
RCB_realtime.elf:     file format elf32-littlearm

Sections:
Idx Name          Size      VMA       LMA       File off  Algn
  0 .isr_vector   0000010c  08000000  08000000  00001000  2**0
                  CONTENTS, ALLOC, LOAD, READONLY, DATA
  1 .text         00009754  0800010c  0800010c  0000110c  2**2
                  CONTENTS, ALLOC, LOAD, READONLY, CODE
  2 .rodata       000000ac  08009860  08009860  0000a860  2**2
                  CONTENTS, ALLOC, LOAD, READONLY, DATA
  3 .ARM.extab    00000000  0800990c  0800990c  0000b044  2**0
                  CONTENTS
  4 .ARM          00000008  0800990c  0800990c  0000a90c  2**2
                  CONTENTS, ALLOC, LOAD, READONLY, DATA
  5 .preinit_array 00000000  08009914  08009914  0000b044  2**0
                  CONTENTS, ALLOC, LOAD, DATA
  6 .init_array   00000004  08009914  08009914  0000a914  2**2
                  CONTENTS, ALLOC, LOAD, DATA
  7 .fini_array   00000004  08009918  08009918  0000a918  2**2
                  CONTENTS, ALLOC, LOAD, DATA
  8 .data         00000044  20000000  0800991c  0000b000  2**2
                  CONTENTS, ALLOC, LOAD, DATA
  9 .bss          000007b0  20000048  08009960  0000b048  2**3
                  ALLOC
 10 ._user_heap_stack 00000600  200007f8  08009960  0000b7f8  2**0
                  ALLOC
 11 .ARM.attributes 00000029  00000000  00000000  0000b044  2**0
                  CONTENTS, READONLY
 12 .debug_info   00014a2f  00000000  00000000  0000b06d  2**0
                  CONTENTS, READONLY, DEBUGGING, OCTETS
 13 .debug_abbrev 000034c8  00000000  00000000  0001fa9c  2**0
                  CONTENTS, READONLY, DEBUGGING, OCTETS
 14 .debug_aranges 00001498  00000000  00000000  00022f68  2**3
                  CONTENTS, READONLY, DEBUGGING, OCTETS
 15 .debug_rnglists 00001017  00000000  00000000  00024400  2**0
                  CONTENTS, READONLY, DEBUGGING, OCTETS
 16 .debug_macro  00019728  00000000  00000000  00025417  2**0
                  CONTENTS, READONLY, DEBUGGING, OCTETS
 17 .debug_line   00017254  00000000  00000000  0003eb3f  2**0
                  CONTENTS, READONLY, DEBUGGING, OCTETS
 18 .debug_str    00093892  00000000  00000000  00055d93  2**0
                  CONTENTS, READONLY, DEBUGGING, OCTETS
 19 .comment      00000043  00000000  00000000  000e9625  2**0
                  CONTENTS, READONLY
 20 .debug_frame  000056ec  00000000  00000000  000e9668  2**2
                  CONTENTS, READONLY, DEBUGGING, OCTETS
 21 .debug_line_str 0000004c  00000000  00000000  000eed54  2**0
                  CONTENTS, READONLY, DEBUGGING, OCTETS

Disassembly of section .text:

0800010c <__do_global_dtors_aux>:
 800010c:	b510      	push	{r4, lr}
 800010e:	4c05      	ldr	r4, [pc, #20]	@ (8000124 <__do_global_dtors_aux+0x18>)
 8000110:	7823      	ldrb	r3, [r4, #0]
 8000112:	b933      	cbnz	r3, 8000122 <__do_global_dtors_aux+0x16>
 8000114:	4b04      	ldr	r3, [pc, #16]	@ (8000128 <__do_global_dtors_aux+0x1c>)
 8000116:	b113      	cbz	r3, 800011e <__do_global_dtors_aux+0x12>
 8000118:	4804      	ldr	r0, [pc, #16]	@ (800012c <__do_global_dtors_aux+0x20>)
 800011a:	f3af 8000 	nop.w
 800011e:	2301      	movs	r3, #1
 8000120:	7023      	strb	r3, [r4, #0]
 8000122:	bd10      	pop	{r4, pc}
 8000124:	20000048 	.word	0x20000048
 8000128:	00000000 	.word	0x00000000
 800012c:	08009848 	.word	0x08009848

08000130 <frame_dummy>:
 8000130:	b508      	push	{r3, lr}
 8000132:	4b03      	ldr	r3, [pc, #12]	@ (8000140 <frame_dummy+0x10>)
 8000134:	b11b      	cbz	r3, 800013e <frame_dummy+0xe>
 8000136:	4903      	ldr	r1, [pc, #12]	@ (8000144 <frame_dummy+0x14>)
 8000138:	4803      	ldr	r0, [pc, #12]	@ (8000148 <frame_dummy+0x18>)
 800013a:	f3af 8000 	nop.w
 800013e:	bd08      	pop	{r3, pc}
 8000140:	00000000 	.word	0x00000000
 8000144:	2000004c 	.word	0x2000004c
 8000148:	08009848 	.word	0x08009848

0800014c <strlen>:
 800014c:	4603      	mov	r3, r0
 800014e:	f813 2b01 	ldrb.w	r2, [r3], #1
 8000152:	2a00      	cmp	r2, #0
 8000154:	d1fb      	bne.n	800014e <strlen+0x2>
 8000156:	1a18      	subs	r0, r3, r0
 8000158:	3801      	subs	r0, #1
 800015a:	4770      	bx	lr

0800015c <WIZCHIP_READ>:
 800015c:	b580      	push	{r7, lr}
 800015e:	b084      	sub	sp, #16
 8000160:	af00      	add	r7, sp, #0
 8000162:	6078      	str	r0, [r7, #4]
 8000164:	4b22      	ldr	r3, [pc, #136]	@ (80001f0 <WIZCHIP_READ+0x94>)
 8000166:	68db      	ldr	r3, [r3, #12]
 8000168:	4798      	blx	r3
 800016a:	4b21      	ldr	r3, [pc, #132]	@ (80001f0 <WIZCHIP_READ+0x94>)
 800016c:	695b      	ldr	r3, [r3, #20]
 800016e:	4798      	blx	r3
 8000170:	4b1f      	ldr	r3, [pc, #124]	@ (80001f0 <WIZCHIP_READ+0x94>)
 8000172:	6a5b      	ldr	r3, [r3, #36]	@ 0x24
 8000174:	2b00      	cmp	r3, #0
 8000176:	d003      	beq.n	8000180 <WIZCHIP_READ+0x24>
 8000178:	4b1d      	ldr	r3, [pc, #116]	@ (80001f0 <WIZCHIP_READ+0x94>)
 800017a:	6a9b      	ldr	r3, [r3, #40]	@ 0x28
 800017c:	2b00      	cmp	r3, #0
 800017e:	d114      	bne.n	80001aa <WIZCHIP_READ+0x4e>
 8000180:	4b1b      	ldr	r3, [pc, #108]	@ (80001f0 <WIZCHIP_READ+0x94>)
 8000182:	6a1b      	ldr	r3, [r3, #32]
 8000184:	687a      	ldr	r2, [r7, #4]
 8000186:	0c12      	lsrs	r2, r2, #16
 8000188:	b2d2      	uxtb	r2, r2
 800018a:	4610      	mov	r0, r2
 800018c:	4798      	blx	r3
 800018e:	4b18      	ldr	r3, [pc, #96]	@ (80001f0 <WIZCHIP_READ+0x94>)
 8000190:	6a1b      	ldr	r3, [r3, #32]
 8000192:	687a      	ldr	r2, [r7, #4]
 8000194:	0a12      	lsrs	r2, r2, #8
 8000196:	b2d2      	uxtb	r2, r2
 8000198:	4610      	mov	r0, r2
 800019a:	4798      	blx	r3
 800019c:	4b14      	ldr	r3, [pc, #80]	@ (80001f0 <WIZCHIP_READ+0x94>)
 800019e:	6a1b      	ldr	r3, [r3, #32]
 80001a0:	687a      	ldr	r2, [r7, #4]
 80001a2:	b2d2      	uxtb	r2, r2
 80001a4:	4610      	mov	r0, r2
 80001a6:	4798      	blx	r3
 80001a8:	e011      	b.n	80001ce <WIZCHIP_READ+0x72>
 80001aa:	687b      	ldr	r3, [r7, #4]
 80001ac:	0c1b      	lsrs	r3, r3, #16
 80001ae:	b2db      	uxtb	r3, r3
 80001b0:	733b      	strb	r3, [r7, #12]
 80001b2:	687b      	ldr	r3, [r7, #4]
 80001b4:	0a1b      	lsrs	r3, r3, #8
 80001b6:	b2db      	uxtb	r3, r3
 80001b8:	737b      	strb	r3, [r7, #13]
 80001ba:	687b      	ldr	r3, [r7, #4]
 80001bc:	b2db      	uxtb	r3, r3
 80001be:	73bb      	strb	r3, [r7, #14]
 80001c0:	4b0b      	ldr	r3, [pc, #44]	@ (80001f0 <WIZCHIP_READ+0x94>)
 80001c2:	6a9b      	ldr	r3, [r3, #40]	@ 0x28
 80001c4:	f107 020c 	add.w	r2, r7, #12
 80001c8:	2103      	movs	r1, #3
 80001ca:	4610      	mov	r0, r2
 80001cc:	4798      	blx	r3
 80001ce:	4b08      	ldr	r3, [pc, #32]	@ (80001f0 <WIZCHIP_READ+0x94>)
 80001d0:	69db      	ldr	r3, [r3, #28]
 80001d2:	4798      	blx	r3
 80001d4:	4603      	mov	r3, r0
 80001d6:	73fb      	strb	r3, [r7, #15]
 80001d8:	4b05      	ldr	r3, [pc, #20]	@ (80001f0 <WIZCHIP_READ+0x94>)
 80001da:	699b      	ldr	r3, [r3, #24]
 80001dc:	4798      	blx	r3
 80001de:	4b04      	ldr	r3, [pc, #16]	@ (80001f0 <WIZCHIP_READ+0x94>)
 80001e0:	691b      	ldr	r3, [r3, #16]
 80001e2:	4798      	blx	r3
 80001e4:	7bfb      	ldrb	r3, [r7, #15]
 80001e6:	4618      	mov	r0, r3
 80001e8:	3710      	adds	r7, #16
 80001ea:	46bd      	mov	sp, r7
 80001ec:	bd80      	pop	{r7, pc}
 80001ee:	bf00      	nop
 80001f0:	20000004 	.word	0x20000004

080001f4 <WIZCHIP_WRITE>:
 80001f4:	b580      	push	{r7, lr}
 80001f6:	b084      	sub	sp, #16
 80001f8:	af00      	add	r7, sp, #0
 80001fa:	6078      	str	r0, [r7, #4]
 80001fc:	460b      	mov	r3, r1
 80001fe:	70fb      	strb	r3, [r7, #3]
 8000200:	4b22      	ldr	r3, [pc, #136]	@ (800028c <WIZCHIP_WRITE+0x98>)
 8000202:	68db      	ldr	r3, [r3, #12]
 8000204:	4798      	blx	r3
 8000206:	4b21      	ldr	r3, [pc, #132]	@ (800028c <WIZCHIP_WRITE+0x98>)
 8000208:	695b      	ldr	r3, [r3, #20]
 800020a:	4798      	blx	r3
 800020c:	687b      	ldr	r3, [r7, #4]
 800020e:	f043 0304 	orr.w	r3, r3, #4
 8000212:	607b      	str	r3, [r7, #4]
 8000214:	4b1d      	ldr	r3, [pc, #116]	@ (800028c <WIZCHIP_WRITE+0x98>)
 8000216:	6a9b      	ldr	r3, [r3, #40]	@ 0x28
 8000218:	2b00      	cmp	r3, #0
 800021a:	d119      	bne.n	8000250 <WIZCHIP_WRITE+0x5c>
 800021c:	4b1b      	ldr	r3, [pc, #108]	@ (800028c <WIZCHIP_WRITE+0x98>)
 800021e:	6a1b      	ldr	r3, [r3, #32]
 8000220:	687a      	ldr	r2, [r7, #4]
 8000222:	0c12      	lsrs	r2, r2, #16
 8000224:	b2d2      	uxtb	r2, r2
 8000226:	4610      	mov	r0, r2
 8000228:	4798      	blx	r3
 800022a:	4b18      	ldr	r3, [pc, #96]	@ (800028c <WIZCHIP_WRITE+0x98>)
 800022c:	6a1b      	ldr	r3, [r3, #32]
 800022e:	687a      	ldr	r2, [r7, #4]
 8000230:	0a12      	lsrs	r2, r2, #8
 8000232:	b2d2      	uxtb	r2, r2
 8000234:	4610      	mov	r0, r2
 8000236:	4798      	blx	r3
 8000238:	4b14      	ldr	r3, [pc, #80]	@ (800028c <WIZCHIP_WRITE+0x98>)
 800023a:	6a1b      	ldr	r3, [r3, #32]
 800023c:	687a      	ldr	r2, [r7, #4]
 800023e:	b2d2      	uxtb	r2, r2
 8000240:	4610      	mov	r0, r2
 8000242:	4798      	blx	r3
 8000244:	4b11      	ldr	r3, [pc, #68]	@ (800028c <WIZCHIP_WRITE+0x98>)
 8000246:	6a1b      	ldr	r3, [r3, #32]
 8000248:	78fa      	ldrb	r2, [r7, #3]
 800024a:	4610      	mov	r0, r2
 800024c:	4798      	blx	r3
 800024e:	e013      	b.n	8000278 <WIZCHIP_WRITE+0x84>
 8000250:	687b      	ldr	r3, [r7, #4]
 8000252:	0c1b      	lsrs	r3, r3, #16
 8000254:	b2db      	uxtb	r3, r3
 8000256:	733b      	strb	r3, [r7, #12]
 8000258:	687b      	ldr	r3, [r7, #4]
 800025a:	0a1b      	lsrs	r3, r3, #8
 800025c:	b2db      	uxtb	r3, r3
 800025e:	737b      	strb	r3, [r7, #13]
 8000260:	687b      	ldr	r3, [r7, #4]
 8000262:	b2db      	uxtb	r3, r3
 8000264:	73bb      	strb	r3, [r7, #14]
 8000266:	78fb      	ldrb	r3, [r7, #3]
 8000268:	73fb      	strb	r3, [r7, #15]
 800026a:	4b08      	ldr	r3, [pc, #32]	@ (800028c <WIZCHIP_WRITE+0x98>)
 800026c:	6a9b      	ldr	r3, [r3, #40]	@ 0x28
 800026e:	f107 020c 	add.w	r2, r7, #12
 8000272:	2104      	movs	r1, #4
 8000274:	4610      	mov	r0, r2
 8000276:	4798      	blx	r3
 8000278:	4b04      	ldr	r3, [pc, #16]	@ (800028c <WIZCHIP_WRITE+0x98>)
 800027a:	699b      	ldr	r3, [r3, #24]
 800027c:	4798      	blx	r3
 800027e:	4b03      	ldr	r3, [pc, #12]	@ (800028c <WIZCHIP_WRITE+0x98>)
 8000280:	691b      	ldr	r3, [r3, #16]
 8000282:	4798      	blx	r3
 8000284:	bf00      	nop
 8000286:	3710      	adds	r7, #16
 8000288:	46bd      	mov	sp, r7
 800028a:	bd80      	pop	{r7, pc}
 800028c:	20000004 	.word	0x20000004

08000290 <WIZCHIP_READ_BUF>:
 8000290:	b590      	push	{r4, r7, lr}
 8000292:	b087      	sub	sp, #28
 8000294:	af00      	add	r7, sp, #0
 8000296:	60f8      	str	r0, [r7, #12]
 8000298:	60b9      	str	r1, [r7, #8]
 800029a:	4613      	mov	r3, r2
 800029c:	80fb      	strh	r3, [r7, #6]
 800029e:	4b2b      	ldr	r3, [pc, #172]	@ (800034c <WIZCHIP_READ_BUF+0xbc>)
 80002a0:	68db      	ldr	r3, [r3, #12]
 80002a2:	4798      	blx	r3
 80002a4:	4b29      	ldr	r3, [pc, #164]	@ (800034c <WIZCHIP_READ_BUF+0xbc>)
 80002a6:	695b      	ldr	r3, [r3, #20]
 80002a8:	4798      	blx	r3
 80002aa:	4b28      	ldr	r3, [pc, #160]	@ (800034c <WIZCHIP_READ_BUF+0xbc>)
 80002ac:	6a5b      	ldr	r3, [r3, #36]	@ 0x24
 80002ae:	2b00      	cmp	r3, #0
 80002b0:	d003      	beq.n	80002ba <WIZCHIP_READ_BUF+0x2a>
 80002b2:	4b26      	ldr	r3, [pc, #152]	@ (800034c <WIZCHIP_READ_BUF+0xbc>)
 80002b4:	6a9b      	ldr	r3, [r3, #40]	@ 0x28
 80002b6:	2b00      	cmp	r3, #0
 80002b8:	d126      	bne.n	8000308 <WIZCHIP_READ_BUF+0x78>
 80002ba:	4b24      	ldr	r3, [pc, #144]	@ (800034c <WIZCHIP_READ_BUF+0xbc>)
 80002bc:	6a1b      	ldr	r3, [r3, #32]
 80002be:	68fa      	ldr	r2, [r7, #12]
 80002c0:	0c12      	lsrs	r2, r2, #16
 80002c2:	b2d2      	uxtb	r2, r2
 80002c4:	4610      	mov	r0, r2
 80002c6:	4798      	blx	r3
 80002c8:	4b20      	ldr	r3, [pc, #128]	@ (800034c <WIZCHIP_READ_BUF+0xbc>)
 80002ca:	6a1b      	ldr	r3, [r3, #32]
 80002cc:	68fa      	ldr	r2, [r7, #12]
 80002ce:	0a12      	lsrs	r2, r2, #8
 80002d0:	b2d2      	uxtb	r2, r2
 80002d2:	4610      	mov	r0, r2
 80002d4:	4798      	blx	r3
 80002d6:	4b1d      	ldr	r3, [pc, #116]	@ (800034c <WIZCHIP_READ_BUF+0xbc>)
 80002d8:	6a1b      	ldr	r3, [r3, #32]
 80002da:	68fa      	ldr	r2, [r7, #12]
 80002dc:	b2d2      	uxtb	r2, r2
 80002de:	4610      	mov	r0, r2
 80002e0:	4798      	blx	r3
 80002e2:	2300      	movs	r3, #0
 80002e4:	82fb      	strh	r3, [r7, #22]
 80002e6:	e00a      	b.n	80002fe <WIZCHIP_READ_BUF+0x6e>
 80002e8:	4b18      	ldr	r3, [pc, #96]	@ (800034c <WIZCHIP_READ_BUF+0xbc>)
 80002ea:	69db      	ldr	r3, [r3, #28]
 80002ec:	8afa      	ldrh	r2, [r7, #22]
 80002ee:	68b9      	ldr	r1, [r7, #8]
 80002f0:	188c      	adds	r4, r1, r2
 80002f2:	4798      	blx	r3
 80002f4:	4603      	mov	r3, r0
 80002f6:	7023      	strb	r3, [r4, #0]
 80002f8:	8afb      	ldrh	r3, [r7, #22]
 80002fa:	3301      	adds	r3, #1
 80002fc:	82fb      	strh	r3, [r7, #22]
 80002fe:	8afa      	ldrh	r2, [r7, #22]
 8000300:	88fb      	ldrh	r3, [r7, #6]
 8000302:	429a      	cmp	r2, r3
 8000304:	d3f0      	bcc.n	80002e8 <WIZCHIP_READ_BUF+0x58>
 8000306:	e017      	b.n	8000338 <WIZCHIP_READ_BUF+0xa8>
 8000308:	68fb      	ldr	r3, [r7, #12]
 800030a:	0c1b      	lsrs	r3, r3, #16
 800030c:	b2db      	uxtb	r3, r3
 800030e:	743b      	strb	r3, [r7, #16]
 8000310:	68fb      	ldr	r3, [r7, #12]
 8000312:	0a1b      	lsrs	r3, r3, #8
 8000314:	b2db      	uxtb	r3, r3
 8000316:	747b      	strb	r3, [r7, #17]
 8000318:	68fb      	ldr	r3, [r7, #12]
 800031a:	b2db      	uxtb	r3, r3
 800031c:	74bb      	strb	r3, [r7, #18]
 800031e:	4b0b      	ldr	r3, [pc, #44]	@ (800034c <WIZCHIP_READ_BUF+0xbc>)
 8000320:	6a9b      	ldr	r3, [r3, #40]	@ 0x28
 8000322:	f107 0210 	add.w	r2, r7, #16
 8000326:	2103      	movs	r1, #3
 8000328:	4610      	mov	r0, r2
 800032a:	4798      	blx	r3
 800032c:	4b07      	ldr	r3, [pc, #28]	@ (800034c <WIZCHIP_READ_BUF+0xbc>)
 800032e:	6a5b      	ldr	r3, [r3, #36]	@ 0x24
 8000330:	88fa      	ldrh	r2, [r7, #6]
 8000332:	4611      	mov	r1, r2
 8000334:	68b8      	ldr	r0, [r7, #8]
 8000336:	4798      	blx	r3
 8000338:	4b04      	ldr	r3, [pc, #16]	@ (800034c <WIZCHIP_READ_BUF+0xbc>)
 800033a:	699b      	ldr	r3, [r3, #24]
 800033c:	4798      	blx	r3
 800033e:	4b03      	ldr	r3, [pc, #12]	@ (800034c <WIZCHIP_READ_BUF+0xbc>)
 8000340:	691b      	ldr	r3, [r3, #16]
 8000342:	4798      	blx	r3
 8000344:	bf00      	nop
 8000346:	371c      	adds	r7, #28
 8000348:	46bd      	mov	sp, r7
 800034a:	bd90      	pop	{r4, r7, pc}
 800034c:	20000004 	.word	0x20000004

08000350 <WIZCHIP_WRITE_BUF>:
 8000350:	b580      	push	{r7, lr}
 8000352:	b086      	sub	sp, #24
 8000354:	af00      	add	r7, sp, #0
 8000356:	60f8      	str	r0, [r7, #12]
 8000358:	60b9      	str	r1, [r7, #8]
 800035a:	4613      	mov	r3, r2
 800035c:	80fb      	strh	r3, [r7, #6]
 800035e:	4b2b      	ldr	r3, [pc, #172]	@ (800040c <WIZCHIP_WRITE_BUF+0xbc>)
 8000360:	68db      	ldr	r3, [r3, #12]
 8000362:	4798      	blx	r3
 8000364:	4b29      	ldr	r3, [pc, #164]	@ (800040c <WIZCHIP_WRITE_BUF+0xbc>)
 8000366:	695b      	ldr	r3, [r3, #20]
 8000368:	4798      	blx	r3
 800036a:	68fb      	ldr	r3, [r7, #12]
 800036c:	f043 0304 	orr.w	r3, r3, #4
 8000370:	60fb      	str	r3, [r7, #12]
 8000372:	4b26      	ldr	r3, [pc, #152]	@ (800040c <WIZCHIP_WRITE_BUF+0xbc>)
 8000374:	6a9b      	ldr	r3, [r3, #40]	@ 0x28
 8000376:	2b00      	cmp	r3, #0
 8000378:	d126      	bne.n	80003c8 <WIZCHIP_WRITE_BUF+0x78>
 800037a:	4b24      	ldr	r3, [pc, #144]	@ (800040c <WIZCHIP_WRITE_BUF+0xbc>)
 800037c:	6a1b      	ldr	r3, [r3, #32]
 800037e:	68fa      	ldr	r2, [r7, #12]
 8000380:	0c12      	lsrs	r2, r2, #16
 8000382:	b2d2      	uxtb	r2, r2
 8000384:	4610      	mov	r0, r2
 8000386:	4798      	blx	r3
 8000388:	4b20      	ldr	r3, [pc, #128]	@ (800040c <WIZCHIP_WRITE_BUF+0xbc>)
 800038a:	6a1b      	ldr	r3, [r3, #32]
 800038c:	68fa      	ldr	r2, [r7, #12]
 800038e:	0a12      	lsrs	r2, r2, #8
 8000390:	b2d2      	uxtb	r2, r2
 8000392:	4610      	mov	r0, r2
 8000394:	4798      	blx	r3
 8000396:	4b1d      	ldr	r3, [pc, #116]	@ (800040c <WIZCHIP_WRITE_BUF+0xbc>)
 8000398:	6a1b      	ldr	r3, [r3, #32]
 800039a:	68fa      	ldr	r2, [r7, #12]
 800039c:	b2d2      	uxtb	r2, r2
 800039e:	4610      	mov	r0, r2
 80003a0:	4798      	blx	r3
 80003a2:	2300      	movs	r3, #0
 80003a4:	82fb      	strh	r3, [r7, #22]
 80003a6:	e00a      	b.n	80003be <WIZCHIP_WRITE_BUF+0x6e>
 80003a8:	4b18      	ldr	r3, [pc, #96]	@ (800040c <WIZCHIP_WRITE_BUF+0xbc>)
 80003aa:	6a1b      	ldr	r3, [r3, #32]
 80003ac:	8afa      	ldrh	r2, [r7, #22]
 80003ae:	68b9      	ldr	r1, [r7, #8]
 80003b0:	440a      	add	r2, r1
 80003b2:	7812      	ldrb	r2, [r2, #0]
 80003b4:	4610      	mov	r0, r2
 80003b6:	4798      	blx	r3
 80003b8:	8afb      	ldrh	r3, [r7, #22]
 80003ba:	3301      	adds	r3, #1
 80003bc:	82fb      	strh	r3, [r7, #22]
 80003be:	8afa      	ldrh	r2, [r7, #22]
 80003c0:	88fb      	ldrh	r3, [r7, #6]
 80003c2:	429a      	cmp	r2, r3
 80003c4:	d3f0      	bcc.n	80003a8 <WIZCHIP_WRITE_BUF+0x58>
 80003c6:	e017      	b.n	80003f8 <WIZCHIP_WRITE_BUF+0xa8>
 80003c8:	68fb      	ldr	r3, [r7, #12]
 80003ca:	0c1b      	lsrs	r3, r3, #16
 80003cc:	b2db      	uxtb	r3, r3
 80003ce:	743b      	strb	r3, [r7, #16]
 80003d0:	68fb      	ldr	r3, [r7, #12]
 80003d2:	0a1b      	lsrs	r3, r3, #8
 80003d4:	b2db      	uxtb	r3, r3
 80003d6:	747b      	strb	r3, [r7, #17]
 80003d8:	68fb      	ldr	r3, [r7, #12]
 80003da:	b2db      	uxtb	r3, r3
 80003dc:	74bb      	strb	r3, [r7, #18]
 80003de:	4b0b      	ldr	r3, [pc, #44]	@ (800040c <WIZCHIP_WRITE_BUF+0xbc>)
 80003e0:	6a9b      	ldr	r3, [r3, #40]	@ 0x28
 80003e2:	f107 0210 	add.w	r2, r7, #16
 80003e6:	2103      	movs	r1, #3
 80003e8:	4610      	mov	r0, r2
 80003ea:	4798      	blx	r3
 80003ec:	4b07      	ldr	r3, [pc, #28]	@ (800040c <WIZCHIP_WRITE_BUF+0xbc>)
 80003ee:	6a9b      	ldr	r3, [r3, #40]	@ 0x28
 80003f0:	88fa      	ldrh	r2, [r7, #6]
 80003f2:	4611      	mov	r1, r2
 80003f4:	68b8      	ldr	r0, [r7, #8]
 80003f6:	4798      	blx	r3
 80003f8:	4b04      	ldr	r3, [pc, #16]	@ (800040c <WIZCHIP_WRITE_BUF+0xbc>)
 80003fa:	699b      	ldr	r3, [r3, #24]
 80003fc:	4798      	blx	r3
 80003fe:	4b03      	ldr	r3, [pc, #12]	@ (800040c <WIZCHIP_WRITE_BUF+0xbc>)
 8000400:	691b      	ldr	r3, [r3, #16]
 8000402:	4798      	blx	r3
 8000404:	bf00      	nop
 8000406:	3718      	adds	r7, #24
 8000408:	46bd      	mov	sp, r7
 800040a:	bd80      	pop	{r7, pc}
 800040c:	20000004 	.word	0x20000004

08000410 <getSn_TX_FSR>:
 8000410:	b590      	push	{r4, r7, lr}
 8000412:	b085      	sub	sp, #20
 8000414:	af00      	add	r7, sp, #0
 8000416:	4603      	mov	r3, r0
 8000418:	71fb      	strb	r3, [r7, #7]
 800041a:	2300      	movs	r3, #0
 800041c:	81fb      	strh	r3, [r7, #14]
 800041e:	2300      	movs	r3, #0
 8000420:	81bb      	strh	r3, [r7, #12]
 8000422:	79fb      	ldrb	r3, [r7, #7]
 8000424:	009b      	lsls	r3, r3, #2
 8000426:	3301      	adds	r3, #1
 8000428:	00db      	lsls	r3, r3, #3
 800042a:	f503 5300 	add.w	r3, r3, #8192	@ 0x2000
 800042e:	4618      	mov	r0, r3
 8000430:	f7ff fe94 	bl	800015c <WIZCHIP_READ>
 8000434:	4603      	mov	r3, r0
 8000436:	81bb      	strh	r3, [r7, #12]
 8000438:	89bb      	ldrh	r3, [r7, #12]
 800043a:	021b      	lsls	r3, r3, #8
 800043c:	b29c      	uxth	r4, r3
 800043e:	79fb      	ldrb	r3, [r7, #7]
 8000440:	009b      	lsls	r3, r3, #2
 8000442:	3301      	adds	r3, #1
 8000444:	00db      	lsls	r3, r3, #3
 8000446:	f503 5304 	add.w	r3, r3, #8448	@ 0x2100
 800044a:	4618      	mov	r0, r3
 800044c:	f7ff fe86 	bl	800015c <WIZCHIP_READ>
 8000450:	4603      	mov	r3, r0
 8000452:	4423      	add	r3, r4
 8000454:	81bb      	strh	r3, [r7, #12]
 8000456:	89bb      	ldrh	r3, [r7, #12]
 8000458:	2b00      	cmp	r3, #0
 800045a:	d019      	beq.n	8000490 <getSn_TX_FSR+0x80>
 800045c:	79fb      	ldrb	r3, [r7, #7]
 800045e:	009b      	lsls	r3, r3, #2
 8000460:	3301      	adds	r3, #1
 8000462:	00db      	lsls	r3, r3, #3
 8000464:	f503 5300 	add.w	r3, r3, #8192	@ 0x2000
 8000468:	4618      	mov	r0, r3
 800046a:	f7ff fe77 	bl	800015c <WIZCHIP_READ>
 800046e:	4603      	mov	r3, r0
 8000470:	81fb      	strh	r3, [r7, #14]
 8000472:	89fb      	ldrh	r3, [r7, #14]
 8000474:	021b      	lsls	r3, r3, #8
 8000476:	b29c      	uxth	r4, r3
 8000478:	79fb      	ldrb	r3, [r7, #7]
 800047a:	009b      	lsls	r3, r3, #2
 800047c:	3301      	adds	r3, #1
 800047e:	00db      	lsls	r3, r3, #3
 8000480:	f503 5304 	add.w	r3, r3, #8448	@ 0x2100
 8000484:	4618      	mov	r0, r3
 8000486:	f7ff fe69 	bl	800015c <WIZCHIP_READ>
 800048a:	4603      	mov	r3, r0
 800048c:	4423      	add	r3, r4
 800048e:	81fb      	strh	r3, [r7, #14]
 8000490:	89fa      	ldrh	r2, [r7, #14]
 8000492:	89bb      	ldrh	r3, [r7, #12]
 8000494:	429a      	cmp	r2, r3
 8000496:	d1c4      	bne.n	8000422 <getSn_TX_FSR+0x12>
 8000498:	89fb      	ldrh	r3, [r7, #14]
 800049a:	4618      	mov	r0, r3
 800049c:	3714      	adds	r7, #20
 800049e:	46bd      	mov	sp, r7
 80004a0:	bd90      	pop	{r4, r7, pc}

080004a2 <getSn_RX_RSR>:
 80004a2:	b590      	push	{r4, r7, lr}
 80004a4:	b085      	sub	sp, #20
 80004a6:	af00      	add	r7, sp, #0
 80004a8:	4603      	mov	r3, r0
 80004aa:	71fb      	strb	r3, [r7, #7]
 80004ac:	2300      	movs	r3, #0
 80004ae:	81fb      	strh	r3, [r7, #14]
 80004b0:	2300      	movs	r3, #0
 80004b2:	81bb      	strh	r3, [r7, #12]
 80004b4:	79fb      	ldrb	r3, [r7, #7]
 80004b6:	009b      	lsls	r3, r3, #2
 80004b8:	3301      	adds	r3, #1
 80004ba:	00db      	lsls	r3, r3, #3
 80004bc:	f503 5318 	add.w	r3, r3, #9728	@ 0x2600
 80004c0:	4618      	mov	r0, r3
 80004c2:	f7ff fe4b 	bl	800015c <WIZCHIP_READ>
 80004c6:	4603      	mov	r3, r0
 80004c8:	81bb      	strh	r3, [r7, #12]
 80004ca:	89bb      	ldrh	r3, [r7, #12]
 80004cc:	021b      	lsls	r3, r3, #8
 80004ce:	b29c      	uxth	r4, r3
 80004d0:	79fb      	ldrb	r3, [r7, #7]
 80004d2:	009b      	lsls	r3, r3, #2
 80004d4:	3301      	adds	r3, #1
 80004d6:	00db      	lsls	r3, r3, #3
 80004d8:	f503 531c 	add.w	r3, r3, #9984	@ 0x2700
 80004dc:	4618      	mov	r0, r3
 80004de:	f7ff fe3d 	bl	800015c <WIZCHIP_READ>
 80004e2:	4603      	mov	r3, r0
 80004e4:	4423      	add	r3, r4
 80004e6:	81bb      	strh	r3, [r7, #12]
 80004e8:	89bb      	ldrh	r3, [r7, #12]
 80004ea:	2b00      	cmp	r3, #0
 80004ec:	d019      	beq.n	8000522 <getSn_RX_RSR+0x80>
 80004ee:	79fb      	ldrb	r3, [r7, #7]
 80004f0:	009b      	lsls	r3, r3, #2
 80004f2:	3301      	adds	r3, #1
 80004f4:	00db      	lsls	r3, r3, #3
 80004f6:	f503 5318 	add.w	r3, r3, #9728	@ 0x2600
 80004fa:	4618      	mov	r0, r3
 80004fc:	f7ff fe2e 	bl	800015c <WIZCHIP_READ>
 8000500:	4603      	mov	r3, r0
 8000502:	81fb      	strh	r3, [r7, #14]
 8000504:	89fb      	ldrh	r3, [r7, #14]
 8000506:	021b      	lsls	r3, r3, #8
 8000508:	b29c      	uxth	r4, r3
 800050a:	79fb      	ldrb	r3, [r7, #7]
 800050c:	009b      	lsls	r3, r3, #2
 800050e:	3301      	adds	r3, #1
 8000510:	00db      	lsls	r3, r3, #3
 8000512:	f503 531c 	add.w	r3, r3, #9984	@ 0x2700
 8000516:	4618      	mov	r0, r3
 8000518:	f7ff fe20 	bl	800015c <WIZCHIP_READ>
 800051c:	4603      	mov	r3, r0
 800051e:	4423      	add	r3, r4
 8000520:	81fb      	strh	r3, [r7, #14]
 8000522:	89fa      	ldrh	r2, [r7, #14]
 8000524:	89bb      	ldrh	r3, [r7, #12]
 8000526:	429a      	cmp	r2, r3
 8000528:	d1c4      	bne.n	80004b4 <getSn_RX_RSR+0x12>
 800052a:	89fb      	ldrh	r3, [r7, #14]
 800052c:	4618      	mov	r0, r3
 800052e:	3714      	adds	r7, #20
 8000530:	46bd      	mov	sp, r7
 8000532:	bd90      	pop	{r4, r7, pc}

08000534 <wiz_send_data>:
 8000534:	b590      	push	{r4, r7, lr}
 8000536:	b085      	sub	sp, #20
 8000538:	af00      	add	r7, sp, #0
 800053a:	4603      	mov	r3, r0
 800053c:	6039      	str	r1, [r7, #0]
 800053e:	71fb      	strb	r3, [r7, #7]
 8000540:	4613      	mov	r3, r2
 8000542:	80bb      	strh	r3, [r7, #4]
 8000544:	2300      	movs	r3, #0
 8000546:	81fb      	strh	r3, [r7, #14]
 8000548:	2300      	movs	r3, #0
 800054a:	60bb      	str	r3, [r7, #8]
 800054c:	88bb      	ldrh	r3, [r7, #4]
 800054e:	2b00      	cmp	r3, #0
 8000550:	d046      	beq.n	80005e0 <wiz_send_data+0xac>
 8000552:	79fb      	ldrb	r3, [r7, #7]
 8000554:	009b      	lsls	r3, r3, #2
 8000556:	3301      	adds	r3, #1
 8000558:	00db      	lsls	r3, r3, #3
 800055a:	f503 5310 	add.w	r3, r3, #9216	@ 0x2400
 800055e:	4618      	mov	r0, r3
 8000560:	f7ff fdfc 	bl	800015c <WIZCHIP_READ>
 8000564:	4603      	mov	r3, r0
 8000566:	021b      	lsls	r3, r3, #8
 8000568:	b29c      	uxth	r4, r3
 800056a:	79fb      	ldrb	r3, [r7, #7]
 800056c:	009b      	lsls	r3, r3, #2
 800056e:	3301      	adds	r3, #1
 8000570:	00db      	lsls	r3, r3, #3
 8000572:	f503 5314 	add.w	r3, r3, #9472	@ 0x2500
 8000576:	4618      	mov	r0, r3
 8000578:	f7ff fdf0 	bl	800015c <WIZCHIP_READ>
 800057c:	4603      	mov	r3, r0
 800057e:	4423      	add	r3, r4
 8000580:	81fb      	strh	r3, [r7, #14]
 8000582:	89fb      	ldrh	r3, [r7, #14]
 8000584:	021a      	lsls	r2, r3, #8
 8000586:	79fb      	ldrb	r3, [r7, #7]
 8000588:	009b      	lsls	r3, r3, #2
 800058a:	3302      	adds	r3, #2
 800058c:	00db      	lsls	r3, r3, #3
 800058e:	4413      	add	r3, r2
 8000590:	60bb      	str	r3, [r7, #8]
 8000592:	88bb      	ldrh	r3, [r7, #4]
 8000594:	461a      	mov	r2, r3
 8000596:	6839      	ldr	r1, [r7, #0]
 8000598:	68b8      	ldr	r0, [r7, #8]
 800059a:	f7ff fed9 	bl	8000350 <WIZCHIP_WRITE_BUF>
 800059e:	89fa      	ldrh	r2, [r7, #14]
 80005a0:	88bb      	ldrh	r3, [r7, #4]
 80005a2:	4413      	add	r3, r2
 80005a4:	81fb      	strh	r3, [r7, #14]
 80005a6:	79fb      	ldrb	r3, [r7, #7]
 80005a8:	009b      	lsls	r3, r3, #2
 80005aa:	3301      	adds	r3, #1
 80005ac:	00db      	lsls	r3, r3, #3
 80005ae:	f503 5310 	add.w	r3, r3, #9216	@ 0x2400
 80005b2:	461a      	mov	r2, r3
 80005b4:	89fb      	ldrh	r3, [r7, #14]
 80005b6:	0a1b      	lsrs	r3, r3, #8
 80005b8:	b29b      	uxth	r3, r3
 80005ba:	b2db      	uxtb	r3, r3
 80005bc:	4619      	mov	r1, r3
 80005be:	4610      	mov	r0, r2
 80005c0:	f7ff fe18 	bl	80001f4 <WIZCHIP_WRITE>
 80005c4:	79fb      	ldrb	r3, [r7, #7]
 80005c6:	009b      	lsls	r3, r3, #2
 80005c8:	3301      	adds	r3, #1
 80005ca:	00db      	lsls	r3, r3, #3
 80005cc:	f503 5314 	add.w	r3, r3, #9472	@ 0x2500
 80005d0:	461a      	mov	r2, r3
 80005d2:	89fb      	ldrh	r3, [r7, #14]
 80005d4:	b2db      	uxtb	r3, r3
 80005d6:	4619      	mov	r1, r3
 80005d8:	4610      	mov	r0, r2
 80005da:	f7ff fe0b 	bl	80001f4 <WIZCHIP_WRITE>
 80005de:	e000      	b.n	80005e2 <wiz_send_data+0xae>
 80005e0:	bf00      	nop
 80005e2:	3714      	adds	r7, #20
 80005e4:	46bd      	mov	sp, r7
 80005e6:	bd90      	pop	{r4, r7, pc}

080005e8 <wiz_recv_data>:
 80005e8:	b590      	push	{r4, r7, lr}
 80005ea:	b085      	sub	sp, #20
 80005ec:	af00      	add	r7, sp, #0
 80005ee:	4603      	mov	r3, r0
 80005f0:	6039      	str	r1, [r7, #0]
 80005f2:	71fb      	strb	r3, [r7, #7]
 80005f4:	4613      	mov	r3, r2
 80005f6:	80bb      	strh	r3, [r7, #4]
 80005f8:	2300      	movs	r3, #0
 80005fa:	81fb      	strh	r3, [r7, #14]
 80005fc:	2300      	movs	r3, #0
 80005fe:	60bb      	str	r3, [r7, #8]
 8000600:	88bb      	ldrh	r3, [r7, #4]
 8000602:	2b00      	cmp	r3, #0
 8000604:	d046      	beq.n	8000694 <wiz_recv_data+0xac>
 8000606:	79fb      	ldrb	r3, [r7, #7]
 8000608:	009b      	lsls	r3, r3, #2
 800060a:	3301      	adds	r3, #1
 800060c:	00db      	lsls	r3, r3, #3
 800060e:	f503 5320 	add.w	r3, r3, #10240	@ 0x2800
 8000612:	4618      	mov	r0, r3
 8000614:	f7ff fda2 	bl	800015c <WIZCHIP_READ>
 8000618:	4603      	mov	r3, r0
 800061a:	021b      	lsls	r3, r3, #8
 800061c:	b29c      	uxth	r4, r3
 800061e:	79fb      	ldrb	r3, [r7, #7]
 8000620:	009b      	lsls	r3, r3, #2
 8000622:	3301      	adds	r3, #1
 8000624:	00db      	lsls	r3, r3, #3
 8000626:	f503 5324 	add.w	r3, r3, #10496	@ 0x2900
 800062a:	4618      	mov	r0, r3
 800062c:	f7ff fd96 	bl	800015c <WIZCHIP_READ>
 8000630:	4603      	mov	r3, r0
 8000632:	4423      	add	r3, r4
 8000634:	81fb      	strh	r3, [r7, #14]
 8000636:	89fb      	ldrh	r3, [r7, #14]
 8000638:	021a      	lsls	r2, r3, #8
 800063a:	79fb      	ldrb	r3, [r7, #7]
 800063c:	009b      	lsls	r3, r3, #2
 800063e:	3303      	adds	r3, #3
 8000640:	00db      	lsls	r3, r3, #3
 8000642:	4413      	add	r3, r2
 8000644:	60bb      	str	r3, [r7, #8]
 8000646:	88bb      	ldrh	r3, [r7, #4]
 8000648:	461a      	mov	r2, r3
 800064a:	6839      	ldr	r1, [r7, #0]
 800064c:	68b8      	ldr	r0, [r7, #8]
 800064e:	f7ff fe1f 	bl	8000290 <WIZCHIP_READ_BUF>
 8000652:	89fa      	ldrh	r2, [r7, #14]
 8000654:	88bb      	ldrh	r3, [r7, #4]
 8000656:	4413      	add	r3, r2
 8000658:	81fb      	strh	r3, [r7, #14]
 800065a:	79fb      	ldrb	r3, [r7, #7]
 800065c:	009b      	lsls	r3, r3, #2
 800065e:	3301      	adds	r3, #1
 8000660:	00db      	lsls	r3, r3, #3
 8000662:	f503 5320 	add.w	r3, r3, #10240	@ 0x2800
 8000666:	461a      	mov	r2, r3
 8000668:	89fb      	ldrh	r3, [r7, #14]
 800066a:	0a1b      	lsrs	r3, r3, #8
 800066c:	b29b      	uxth	r3, r3
 800066e:	b2db      	uxtb	r3, r3
 8000670:	4619      	mov	r1, r3
 8000672:	4610      	mov	r0, r2
 8000674:	f7ff fdbe 	bl	80001f4 <WIZCHIP_WRITE>
 8000678:	79fb      	ldrb	r3, [r7, #7]
 800067a:	009b      	lsls	r3, r3, #2
 800067c:	3301      	adds	r3, #1
 800067e:	00db      	lsls	r3, r3, #3
 8000680:	f503 5324 	add.w	r3, r3, #10496	@ 0x2900
 8000684:	461a      	mov	r2, r3
 8000686:	89fb      	ldrh	r3, [r7, #14]
 8000688:	b2db      	uxtb	r3, r3
 800068a:	4619      	mov	r1, r3
 800068c:	4610      	mov	r0, r2
 800068e:	f7ff fdb1 	bl	80001f4 <WIZCHIP_WRITE>
 8000692:	e000      	b.n	8000696 <wiz_recv_data+0xae>
 8000694:	bf00      	nop
 8000696:	3714      	adds	r7, #20
 8000698:	46bd      	mov	sp, r7
 800069a:	bd90      	pop	{r4, r7, pc}

0800069c <wizchip_select>:
 800069c:	b580      	push	{r7, lr}
 800069e:	af00      	add	r7, sp, #0
 80006a0:	2200      	movs	r2, #0
 80006a2:	2110      	movs	r1, #16
 80006a4:	4802      	ldr	r0, [pc, #8]	@ (80006b0 <wizchip_select+0x14>)
 80006a6:	f006 fa2a 	bl	8006afe <HAL_GPIO_WritePin>
 80006aa:	bf00      	nop
 80006ac:	bd80      	pop	{r7, pc}
 80006ae:	bf00      	nop
 80006b0:	40010800 	.word	0x40010800

080006b4 <wizchip_deselect>:
 80006b4:	b580      	push	{r7, lr}
 80006b6:	af00      	add	r7, sp, #0
 80006b8:	2201      	movs	r2, #1
 80006ba:	2110      	movs	r1, #16
 80006bc:	4802      	ldr	r0, [pc, #8]	@ (80006c8 <wizchip_deselect+0x14>)
 80006be:	f006 fa1e 	bl	8006afe <HAL_GPIO_WritePin>
 80006c2:	bf00      	nop
 80006c4:	bd80      	pop	{r7, pc}
 80006c6:	bf00      	nop
 80006c8:	40010800 	.word	0x40010800

080006cc <wizchip_read>:
 80006cc:	b580      	push	{r7, lr}
 80006ce:	b082      	sub	sp, #8
 80006d0:	af00      	add	r7, sp, #0
 80006d2:	1df9      	adds	r1, r7, #7
 80006d4:	f04f 33ff 	mov.w	r3, #4294967295
 80006d8:	2201      	movs	r2, #1
 80006da:	4804      	ldr	r0, [pc, #16]	@ (80006ec <wizchip_read+0x20>)
 80006dc:	f007 f886 	bl	80077ec <HAL_SPI_Receive>
 80006e0:	79fb      	ldrb	r3, [r7, #7]
 80006e2:	4618      	mov	r0, r3
 80006e4:	3708      	adds	r7, #8
 80006e6:	46bd      	mov	sp, r7
 80006e8:	bd80      	pop	{r7, pc}
 80006ea:	bf00      	nop
 80006ec:	200000d0 	.word	0x200000d0

080006f0 <wizchip_write>:
 80006f0:	b580      	push	{r7, lr}
 80006f2:	b082      	sub	sp, #8
 80006f4:	af00      	add	r7, sp, #0
 80006f6:	4603      	mov	r3, r0
 80006f8:	71fb      	strb	r3, [r7, #7]
 80006fa:	1df9      	adds	r1, r7, #7
 80006fc:	f04f 33ff 	mov.w	r3, #4294967295
 8000700:	2201      	movs	r2, #1
 8000702:	4803      	ldr	r0, [pc, #12]	@ (8000710 <wizchip_write+0x20>)
 8000704:	f006 ff2e 	bl	8007564 <HAL_SPI_Transmit>
 8000708:	bf00      	nop
 800070a:	3708      	adds	r7, #8
 800070c:	46bd      	mov	sp, r7
 800070e:	bd80      	pop	{r7, pc}
 8000710:	200000d0 	.word	0x200000d0

08000714 <wizchip_readburst>:
 8000714:	b580      	push	{r7, lr}
 8000716:	b082      	sub	sp, #8
 8000718:	af00      	add	r7, sp, #0
 800071a:	6078      	str	r0, [r7, #4]
 800071c:	460b      	mov	r3, r1
 800071e:	807b      	strh	r3, [r7, #2]
 8000720:	887a      	ldrh	r2, [r7, #2]
 8000722:	f04f 33ff 	mov.w	r3, #4294967295
 8000726:	6879      	ldr	r1, [r7, #4]
 8000728:	4803      	ldr	r0, [pc, #12]	@ (8000738 <wizchip_readburst+0x24>)
 800072a:	f007 f85f 	bl	80077ec <HAL_SPI_Receive>
 800072e:	bf00      	nop
 8000730:	3708      	adds	r7, #8
 8000732:	46bd      	mov	sp, r7
 8000734:	bd80      	pop	{r7, pc}
 8000736:	bf00      	nop
 8000738:	200000d0 	.word	0x200000d0

0800073c <wizchip_writeburst>:
 800073c:	b580      	push	{r7, lr}
 800073e:	b082      	sub	sp, #8
 8000740:	af00      	add	r7, sp, #0
 8000742:	6078      	str	r0, [r7, #4]
 8000744:	460b      	mov	r3, r1
 8000746:	807b      	strh	r3, [r7, #2]
 8000748:	887a      	ldrh	r2, [r7, #2]
 800074a:	f04f 33ff 	mov.w	r3, #4294967295
 800074e:	6879      	ldr	r1, [r7, #4]
 8000750:	4803      	ldr	r0, [pc, #12]	@ (8000760 <wizchip_writeburst+0x24>)
 8000752:	f006 ff07 	bl	8007564 <HAL_SPI_Transmit>
 8000756:	bf00      	nop
 8000758:	3708      	adds	r7, #8
 800075a:	46bd      	mov	sp, r7
 800075c:	bd80      	pop	{r7, pc}
 800075e:	bf00      	nop
 8000760:	200000d0 	.word	0x200000d0

08000764 <W5500Init>:
 8000764:	b590      	push	{r4, r7, lr}
 8000766:	b087      	sub	sp, #28
 8000768:	af00      	add	r7, sp, #0
 800076a:	23ff      	movs	r3, #255	@ 0xff
 800076c:	75fb      	strb	r3, [r7, #23]
 800076e:	4b1a      	ldr	r3, [pc, #104]	@ (80007d8 <W5500Init+0x74>)
 8000770:	1d3c      	adds	r4, r7, #4
 8000772:	cb0f      	ldmia	r3, {r0, r1, r2, r3}
 8000774:	e884 000f 	stmia.w	r4, {r0, r1, r2, r3}
 8000778:	2201      	movs	r2, #1
 800077a:	2110      	movs	r1, #16
 800077c:	4817      	ldr	r0, [pc, #92]	@ (80007dc <W5500Init+0x78>)
 800077e:	f006 f9be 	bl	8006afe <HAL_GPIO_WritePin>
 8000782:	2200      	movs	r2, #0
 8000784:	2102      	movs	r1, #2
 8000786:	4816      	ldr	r0, [pc, #88]	@ (80007e0 <W5500Init+0x7c>)
 8000788:	f006 f9b9 	bl	8006afe <HAL_GPIO_WritePin>
 800078c:	bf00      	nop
 800078e:	7dfb      	ldrb	r3, [r7, #23]
 8000790:	1e5a      	subs	r2, r3, #1
 8000792:	75fa      	strb	r2, [r7, #23]
 8000794:	2b00      	cmp	r3, #0
 8000796:	d1fa      	bne.n	800078e <W5500Init+0x2a>
 8000798:	2201      	movs	r2, #1
 800079a:	2102      	movs	r1, #2
 800079c:	4810      	ldr	r0, [pc, #64]	@ (80007e0 <W5500Init+0x7c>)
 800079e:	f006 f9ae 	bl	8006afe <HAL_GPIO_WritePin>
 80007a2:	4910      	ldr	r1, [pc, #64]	@ (80007e4 <W5500Init+0x80>)
 80007a4:	4810      	ldr	r0, [pc, #64]	@ (80007e8 <W5500Init+0x84>)
 80007a6:	f000 fca5 	bl	80010f4 <reg_wizchip_cs_cbfunc>
 80007aa:	4910      	ldr	r1, [pc, #64]	@ (80007ec <W5500Init+0x88>)
 80007ac:	4810      	ldr	r0, [pc, #64]	@ (80007f0 <W5500Init+0x8c>)
 80007ae:	f000 fcc5 	bl	800113c <reg_wizchip_spi_cbfunc>
 80007b2:	4910      	ldr	r1, [pc, #64]	@ (80007f4 <W5500Init+0x90>)
 80007b4:	4810      	ldr	r0, [pc, #64]	@ (80007f8 <W5500Init+0x94>)
 80007b6:	f000 fced 	bl	8001194 <reg_wizchip_spiburst_cbfunc>
 80007ba:	1d3b      	adds	r3, r7, #4
 80007bc:	4619      	mov	r1, r3
 80007be:	2001      	movs	r0, #1
 80007c0:	f000 fd14 	bl	80011ec <ctlwizchip>
 80007c4:	4603      	mov	r3, r0
 80007c6:	f1b3 3fff 	cmp.w	r3, #4294967295
 80007ca:	d101      	bne.n	80007d0 <W5500Init+0x6c>
 80007cc:	bf00      	nop
 80007ce:	e7fd      	b.n	80007cc <W5500Init+0x68>
 80007d0:	bf00      	nop
 80007d2:	371c      	adds	r7, #28
 80007d4:	46bd      	mov	sp, r7
 80007d6:	bd90      	pop	{r4, r7, pc}
 80007d8:	08009860 	.word	0x08009860
 80007dc:	40010800 	.word	0x40010800
 80007e0:	40010c00 	.word	0x40010c00
 80007e4:	080006b5 	.word	0x080006b5
 80007e8:	0800069d 	.word	0x0800069d
 80007ec:	080006f1 	.word	0x080006f1
 80007f0:	080006cd 	.word	0x080006cd
 80007f4:	0800073d 	.word	0x0800073d
 80007f8:	08000715 	.word	0x08000715

080007fc <socket>:
 80007fc:	b590      	push	{r4, r7, lr}
 80007fe:	b085      	sub	sp, #20
 8000800:	af00      	add	r7, sp, #0
 8000802:	4604      	mov	r4, r0
 8000804:	4608      	mov	r0, r1
 8000806:	4611      	mov	r1, r2
 8000808:	461a      	mov	r2, r3
 800080a:	4623      	mov	r3, r4
 800080c:	71fb      	strb	r3, [r7, #7]
 800080e:	4603      	mov	r3, r0
 8000810:	71bb      	strb	r3, [r7, #6]
 8000812:	460b      	mov	r3, r1
 8000814:	80bb      	strh	r3, [r7, #4]
 8000816:	4613      	mov	r3, r2
 8000818:	70fb      	strb	r3, [r7, #3]
 800081a:	79fb      	ldrb	r3, [r7, #7]
 800081c:	2b08      	cmp	r3, #8
 800081e:	d902      	bls.n	8000826 <socket+0x2a>
 8000820:	f04f 33ff 	mov.w	r3, #4294967295
 8000824:	e0ef      	b.n	8000a06 <socket+0x20a>
 8000826:	79bb      	ldrb	r3, [r7, #6]
 8000828:	2b01      	cmp	r3, #1
 800082a:	d005      	beq.n	8000838 <socket+0x3c>
 800082c:	2b00      	cmp	r3, #0
 800082e:	dd11      	ble.n	8000854 <socket+0x58>
 8000830:	3b02      	subs	r3, #2
 8000832:	2b02      	cmp	r3, #2
 8000834:	d80e      	bhi.n	8000854 <socket+0x58>
 8000836:	e011      	b.n	800085c <socket+0x60>
 8000838:	f107 030c 	add.w	r3, r7, #12
 800083c:	2204      	movs	r2, #4
 800083e:	4619      	mov	r1, r3
 8000840:	f44f 6070 	mov.w	r0, #3840	@ 0xf00
 8000844:	f7ff fd24 	bl	8000290 <WIZCHIP_READ_BUF>
 8000848:	68fb      	ldr	r3, [r7, #12]
 800084a:	2b00      	cmp	r3, #0
 800084c:	d105      	bne.n	800085a <socket+0x5e>
 800084e:	f06f 0302 	mvn.w	r3, #2
 8000852:	e0d8      	b.n	8000a06 <socket+0x20a>
 8000854:	f06f 0304 	mvn.w	r3, #4
 8000858:	e0d5      	b.n	8000a06 <socket+0x20a>
 800085a:	bf00      	nop
 800085c:	78fb      	ldrb	r3, [r7, #3]
 800085e:	f003 0304 	and.w	r3, r3, #4
 8000862:	2b00      	cmp	r3, #0
 8000864:	d002      	beq.n	800086c <socket+0x70>
 8000866:	f06f 0305 	mvn.w	r3, #5
 800086a:	e0cc      	b.n	8000a06 <socket+0x20a>
 800086c:	78fb      	ldrb	r3, [r7, #3]
 800086e:	2b00      	cmp	r3, #0
 8000870:	d028      	beq.n	80008c4 <socket+0xc8>
 8000872:	79bb      	ldrb	r3, [r7, #6]
 8000874:	2b01      	cmp	r3, #1
 8000876:	d002      	beq.n	800087e <socket+0x82>
 8000878:	2b02      	cmp	r3, #2
 800087a:	d008      	beq.n	800088e <socket+0x92>
 800087c:	e022      	b.n	80008c4 <socket+0xc8>
 800087e:	78fb      	ldrb	r3, [r7, #3]
 8000880:	f003 0321 	and.w	r3, r3, #33	@ 0x21
 8000884:	2b00      	cmp	r3, #0
 8000886:	d11a      	bne.n	80008be <socket+0xc2>
 8000888:	f06f 0305 	mvn.w	r3, #5
 800088c:	e0bb      	b.n	8000a06 <socket+0x20a>
 800088e:	78fb      	ldrb	r3, [r7, #3]
 8000890:	f003 0320 	and.w	r3, r3, #32
 8000894:	2b00      	cmp	r3, #0
 8000896:	d006      	beq.n	80008a6 <socket+0xaa>
 8000898:	f997 3003 	ldrsb.w	r3, [r7, #3]
 800089c:	2b00      	cmp	r3, #0
 800089e:	db02      	blt.n	80008a6 <socket+0xaa>
 80008a0:	f06f 0305 	mvn.w	r3, #5
 80008a4:	e0af      	b.n	8000a06 <socket+0x20a>
 80008a6:	78fb      	ldrb	r3, [r7, #3]
 80008a8:	f003 0310 	and.w	r3, r3, #16
 80008ac:	2b00      	cmp	r3, #0
 80008ae:	d008      	beq.n	80008c2 <socket+0xc6>
 80008b0:	f997 3003 	ldrsb.w	r3, [r7, #3]
 80008b4:	2b00      	cmp	r3, #0
 80008b6:	db04      	blt.n	80008c2 <socket+0xc6>
 80008b8:	f06f 0305 	mvn.w	r3, #5
 80008bc:	e0a3      	b.n	8000a06 <socket+0x20a>
 80008be:	bf00      	nop
 80008c0:	e000      	b.n	80008c4 <socket+0xc8>
 80008c2:	bf00      	nop
 80008c4:	79fb      	ldrb	r3, [r7, #7]
 80008c6:	4618      	mov	r0, r3
 80008c8:	f000 f8ac 	bl	8000a24 <close>
 80008cc:	79fb      	ldrb	r3, [r7, #7]
 80008ce:	009b      	lsls	r3, r3, #2
 80008d0:	3301      	adds	r3, #1
 80008d2:	00d8      	lsls	r0, r3, #3
 80008d4:	f997 3003 	ldrsb.w	r3, [r7, #3]
 80008d8:	f023 030f 	bic.w	r3, r3, #15
 80008dc:	b25a      	sxtb	r2, r3
 80008de:	f997 3006 	ldrsb.w	r3, [r7, #6]
 80008e2:	4313      	orrs	r3, r2
 80008e4:	b25b      	sxtb	r3, r3
 80008e6:	b2db      	uxtb	r3, r3
 80008e8:	4619      	mov	r1, r3
 80008ea:	f7ff fc83 	bl	80001f4 <WIZCHIP_WRITE>
 80008ee:	88bb      	ldrh	r3, [r7, #4]
 80008f0:	2b00      	cmp	r3, #0
 80008f2:	d110      	bne.n	8000916 <socket+0x11a>
 80008f4:	4b46      	ldr	r3, [pc, #280]	@ (8000a10 <socket+0x214>)
 80008f6:	881b      	ldrh	r3, [r3, #0]
 80008f8:	1c5a      	adds	r2, r3, #1
 80008fa:	b291      	uxth	r1, r2
 80008fc:	4a44      	ldr	r2, [pc, #272]	@ (8000a10 <socket+0x214>)
 80008fe:	8011      	strh	r1, [r2, #0]
 8000900:	80bb      	strh	r3, [r7, #4]
 8000902:	4b43      	ldr	r3, [pc, #268]	@ (8000a10 <socket+0x214>)
 8000904:	881b      	ldrh	r3, [r3, #0]
 8000906:	f64f 72f0 	movw	r2, #65520	@ 0xfff0
 800090a:	4293      	cmp	r3, r2
 800090c:	d103      	bne.n	8000916 <socket+0x11a>
 800090e:	4b40      	ldr	r3, [pc, #256]	@ (8000a10 <socket+0x214>)
 8000910:	f44f 4240 	mov.w	r2, #49152	@ 0xc000
 8000914:	801a      	strh	r2, [r3, #0]
 8000916:	79fb      	ldrb	r3, [r7, #7]
 8000918:	009b      	lsls	r3, r3, #2
 800091a:	3301      	adds	r3, #1
 800091c:	00db      	lsls	r3, r3, #3
 800091e:	f503 6380 	add.w	r3, r3, #1024	@ 0x400
 8000922:	461a      	mov	r2, r3
 8000924:	88bb      	ldrh	r3, [r7, #4]
 8000926:	0a1b      	lsrs	r3, r3, #8
 8000928:	b29b      	uxth	r3, r3
 800092a:	b2db      	uxtb	r3, r3
 800092c:	4619      	mov	r1, r3
 800092e:	4610      	mov	r0, r2
 8000930:	f7ff fc60 	bl	80001f4 <WIZCHIP_WRITE>
 8000934:	79fb      	ldrb	r3, [r7, #7]
 8000936:	009b      	lsls	r3, r3, #2
 8000938:	3301      	adds	r3, #1
 800093a:	00db      	lsls	r3, r3, #3
 800093c:	f503 63a0 	add.w	r3, r3, #1280	@ 0x500
 8000940:	461a      	mov	r2, r3
 8000942:	88bb      	ldrh	r3, [r7, #4]
 8000944:	b2db      	uxtb	r3, r3
 8000946:	4619      	mov	r1, r3
 8000948:	4610      	mov	r0, r2
 800094a:	f7ff fc53 	bl	80001f4 <WIZCHIP_WRITE>
 800094e:	79fb      	ldrb	r3, [r7, #7]
 8000950:	009b      	lsls	r3, r3, #2
 8000952:	3301      	adds	r3, #1
 8000954:	00db      	lsls	r3, r3, #3
 8000956:	f503 7380 	add.w	r3, r3, #256	@ 0x100
 800095a:	2101      	movs	r1, #1
 800095c:	4618      	mov	r0, r3
 800095e:	f7ff fc49 	bl	80001f4 <WIZCHIP_WRITE>
 8000962:	bf00      	nop
 8000964:	79fb      	ldrb	r3, [r7, #7]
 8000966:	009b      	lsls	r3, r3, #2
 8000968:	3301      	adds	r3, #1
 800096a:	00db      	lsls	r3, r3, #3
 800096c:	f503 7380 	add.w	r3, r3, #256	@ 0x100
 8000970:	4618      	mov	r0, r3
 8000972:	f7ff fbf3 	bl	800015c <WIZCHIP_READ>
 8000976:	4603      	mov	r3, r0
 8000978:	2b00      	cmp	r3, #0
 800097a:	d1f3      	bne.n	8000964 <socket+0x168>
 800097c:	79fb      	ldrb	r3, [r7, #7]
 800097e:	2201      	movs	r2, #1
 8000980:	fa02 f303 	lsl.w	r3, r2, r3
 8000984:	b21b      	sxth	r3, r3
 8000986:	43db      	mvns	r3, r3
 8000988:	b21a      	sxth	r2, r3
 800098a:	4b22      	ldr	r3, [pc, #136]	@ (8000a14 <socket+0x218>)
 800098c:	881b      	ldrh	r3, [r3, #0]
 800098e:	b21b      	sxth	r3, r3
 8000990:	4013      	ands	r3, r2
 8000992:	b21b      	sxth	r3, r3
 8000994:	b29a      	uxth	r2, r3
 8000996:	4b1f      	ldr	r3, [pc, #124]	@ (8000a14 <socket+0x218>)
 8000998:	801a      	strh	r2, [r3, #0]
 800099a:	78fb      	ldrb	r3, [r7, #3]
 800099c:	f003 0201 	and.w	r2, r3, #1
 80009a0:	79fb      	ldrb	r3, [r7, #7]
 80009a2:	fa02 f303 	lsl.w	r3, r2, r3
 80009a6:	b21a      	sxth	r2, r3
 80009a8:	4b1a      	ldr	r3, [pc, #104]	@ (8000a14 <socket+0x218>)
 80009aa:	881b      	ldrh	r3, [r3, #0]
 80009ac:	b21b      	sxth	r3, r3
 80009ae:	4313      	orrs	r3, r2
 80009b0:	b21b      	sxth	r3, r3
 80009b2:	b29a      	uxth	r2, r3
 80009b4:	4b17      	ldr	r3, [pc, #92]	@ (8000a14 <socket+0x218>)
 80009b6:	801a      	strh	r2, [r3, #0]
 80009b8:	79fb      	ldrb	r3, [r7, #7]
 80009ba:	2201      	movs	r2, #1
 80009bc:	fa02 f303 	lsl.w	r3, r2, r3
 80009c0:	b21b      	sxth	r3, r3
 80009c2:	43db      	mvns	r3, r3
 80009c4:	b21a      	sxth	r2, r3
 80009c6:	4b14      	ldr	r3, [pc, #80]	@ (8000a18 <socket+0x21c>)
 80009c8:	881b      	ldrh	r3, [r3, #0]
 80009ca:	b21b      	sxth	r3, r3
 80009cc:	4013      	ands	r3, r2
 80009ce:	b21b      	sxth	r3, r3
 80009d0:	b29a      	uxth	r2, r3
 80009d2:	4b11      	ldr	r3, [pc, #68]	@ (8000a18 <socket+0x21c>)
 80009d4:	801a      	strh	r2, [r3, #0]
 80009d6:	79fb      	ldrb	r3, [r7, #7]
 80009d8:	4a10      	ldr	r2, [pc, #64]	@ (8000a1c <socket+0x220>)
 80009da:	2100      	movs	r1, #0
 80009dc:	f822 1013 	strh.w	r1, [r2, r3, lsl #1]
 80009e0:	79fb      	ldrb	r3, [r7, #7]
 80009e2:	4a0f      	ldr	r2, [pc, #60]	@ (8000a20 <socket+0x224>)
 80009e4:	2100      	movs	r1, #0
 80009e6:	54d1      	strb	r1, [r2, r3]
 80009e8:	bf00      	nop
 80009ea:	79fb      	ldrb	r3, [r7, #7]
 80009ec:	009b      	lsls	r3, r3, #2
 80009ee:	3301      	adds	r3, #1
 80009f0:	00db      	lsls	r3, r3, #3
 80009f2:	f503 7340 	add.w	r3, r3, #768	@ 0x300
 80009f6:	4618      	mov	r0, r3
 80009f8:	f7ff fbb0 	bl	800015c <WIZCHIP_READ>
 80009fc:	4603      	mov	r3, r0
 80009fe:	2b00      	cmp	r3, #0
 8000a00:	d0f3      	beq.n	80009ea <socket+0x1ee>
 8000a02:	f997 3007 	ldrsb.w	r3, [r7, #7]
 8000a06:	4618      	mov	r0, r3
 8000a08:	3714      	adds	r7, #20
 8000a0a:	46bd      	mov	sp, r7
 8000a0c:	bd90      	pop	{r4, r7, pc}
 8000a0e:	bf00      	nop
 8000a10:	20000000 	.word	0x20000000
 8000a14:	20000064 	.word	0x20000064
 8000a18:	20000066 	.word	0x20000066
 8000a1c:	20000068 	.word	0x20000068
 8000a20:	2000007c 	.word	0x2000007c

08000a24 <close>:
 8000a24:	b580      	push	{r7, lr}
 8000a26:	b082      	sub	sp, #8
 8000a28:	af00      	add	r7, sp, #0
 8000a2a:	4603      	mov	r3, r0
 8000a2c:	71fb      	strb	r3, [r7, #7]
 8000a2e:	79fb      	ldrb	r3, [r7, #7]
 8000a30:	2b08      	cmp	r3, #8
 8000a32:	d902      	bls.n	8000a3a <close+0x16>
 8000a34:	f04f 33ff 	mov.w	r3, #4294967295
 8000a38:	e060      	b.n	8000afc <close+0xd8>
 8000a3a:	79fb      	ldrb	r3, [r7, #7]
 8000a3c:	009b      	lsls	r3, r3, #2
 8000a3e:	3301      	adds	r3, #1
 8000a40:	00db      	lsls	r3, r3, #3
 8000a42:	f503 7380 	add.w	r3, r3, #256	@ 0x100
 8000a46:	2110      	movs	r1, #16
 8000a48:	4618      	mov	r0, r3
 8000a4a:	f7ff fbd3 	bl	80001f4 <WIZCHIP_WRITE>
 8000a4e:	bf00      	nop
 8000a50:	79fb      	ldrb	r3, [r7, #7]
 8000a52:	009b      	lsls	r3, r3, #2
 8000a54:	3301      	adds	r3, #1
 8000a56:	00db      	lsls	r3, r3, #3
 8000a58:	f503 7380 	add.w	r3, r3, #256	@ 0x100
 8000a5c:	4618      	mov	r0, r3
 8000a5e:	f7ff fb7d 	bl	800015c <WIZCHIP_READ>
 8000a62:	4603      	mov	r3, r0
 8000a64:	2b00      	cmp	r3, #0
 8000a66:	d1f3      	bne.n	8000a50 <close+0x2c>
 8000a68:	79fb      	ldrb	r3, [r7, #7]
 8000a6a:	009b      	lsls	r3, r3, #2
 8000a6c:	3301      	adds	r3, #1
 8000a6e:	00db      	lsls	r3, r3, #3
 8000a70:	f503 7300 	add.w	r3, r3, #512	@ 0x200
 8000a74:	211f      	movs	r1, #31
 8000a76:	4618      	mov	r0, r3
 8000a78:	f7ff fbbc 	bl	80001f4 <WIZCHIP_WRITE>
 8000a7c:	79fb      	ldrb	r3, [r7, #7]
 8000a7e:	2201      	movs	r2, #1
 8000a80:	fa02 f303 	lsl.w	r3, r2, r3
 8000a84:	b21b      	sxth	r3, r3
 8000a86:	43db      	mvns	r3, r3
 8000a88:	b21a      	sxth	r2, r3
 8000a8a:	4b1e      	ldr	r3, [pc, #120]	@ (8000b04 <close+0xe0>)
 8000a8c:	881b      	ldrh	r3, [r3, #0]
 8000a8e:	b21b      	sxth	r3, r3
 8000a90:	4013      	ands	r3, r2
 8000a92:	b21b      	sxth	r3, r3
 8000a94:	b29a      	uxth	r2, r3
 8000a96:	4b1b      	ldr	r3, [pc, #108]	@ (8000b04 <close+0xe0>)
 8000a98:	801a      	strh	r2, [r3, #0]
 8000a9a:	79fb      	ldrb	r3, [r7, #7]
 8000a9c:	2201      	movs	r2, #1
 8000a9e:	fa02 f303 	lsl.w	r3, r2, r3
 8000aa2:	b21b      	sxth	r3, r3
 8000aa4:	43db      	mvns	r3, r3
 8000aa6:	b21a      	sxth	r2, r3
 8000aa8:	4b17      	ldr	r3, [pc, #92]	@ (8000b08 <close+0xe4>)
 8000aaa:	881b      	ldrh	r3, [r3, #0]
 8000aac:	b21b      	sxth	r3, r3
 8000aae:	4013      	ands	r3, r2
 8000ab0:	b21b      	sxth	r3, r3
 8000ab2:	b29a      	uxth	r2, r3
 8000ab4:	4b14      	ldr	r3, [pc, #80]	@ (8000b08 <close+0xe4>)
 8000ab6:	801a      	strh	r2, [r3, #0]
 8000ab8:	79fb      	ldrb	r3, [r7, #7]
 8000aba:	4a14      	ldr	r2, [pc, #80]	@ (8000b0c <close+0xe8>)
 8000abc:	2100      	movs	r1, #0
 8000abe:	f822 1013 	strh.w	r1, [r2, r3, lsl #1]
 8000ac2:	79fb      	ldrb	r3, [r7, #7]
 8000ac4:	4a12      	ldr	r2, [pc, #72]	@ (8000b10 <close+0xec>)
 8000ac6:	2100      	movs	r1, #0
 8000ac8:	54d1      	strb	r1, [r2, r3]
 8000aca:	e00a      	b.n	8000ae2 <close+0xbe>
 8000acc:	4b11      	ldr	r3, [pc, #68]	@ (8000b14 <close+0xf0>)
 8000ace:	781b      	ldrb	r3, [r3, #0]
 8000ad0:	b2db      	uxtb	r3, r3
 8000ad2:	2b01      	cmp	r3, #1
 8000ad4:	d105      	bne.n	8000ae2 <close+0xbe>
 8000ad6:	4b0f      	ldr	r3, [pc, #60]	@ (8000b14 <close+0xf0>)
 8000ad8:	2200      	movs	r2, #0
 8000ada:	701a      	strb	r2, [r3, #0]
 8000adc:	f06f 030c 	mvn.w	r3, #12
 8000ae0:	e00c      	b.n	8000afc <close+0xd8>
 8000ae2:	79fb      	ldrb	r3, [r7, #7]
 8000ae4:	009b      	lsls	r3, r3, #2
 8000ae6:	3301      	adds	r3, #1
 8000ae8:	00db      	lsls	r3, r3, #3
 8000aea:	f503 7340 	add.w	r3, r3, #768	@ 0x300
 8000aee:	4618      	mov	r0, r3
 8000af0:	f7ff fb34 	bl	800015c <WIZCHIP_READ>
 8000af4:	4603      	mov	r3, r0
 8000af6:	2b00      	cmp	r3, #0
 8000af8:	d1e8      	bne.n	8000acc <close+0xa8>
 8000afa:	2301      	movs	r3, #1
 8000afc:	4618      	mov	r0, r3
 8000afe:	3708      	adds	r7, #8
 8000b00:	46bd      	mov	sp, r7
 8000b02:	bd80      	pop	{r7, pc}
 8000b04:	20000064 	.word	0x20000064
 8000b08:	20000066 	.word	0x20000066
 8000b0c:	20000068 	.word	0x20000068
 8000b10:	2000007c 	.word	0x2000007c
 8000b14:	20000078 	.word	0x20000078

08000b18 <connect>:
 8000b18:	b580      	push	{r7, lr}
 8000b1a:	b084      	sub	sp, #16
 8000b1c:	af00      	add	r7, sp, #0
 8000b1e:	4603      	mov	r3, r0
 8000b20:	6039      	str	r1, [r7, #0]
 8000b22:	71fb      	strb	r3, [r7, #7]
 8000b24:	4613      	mov	r3, r2
 8000b26:	80bb      	strh	r3, [r7, #4]
 8000b28:	79fb      	ldrb	r3, [r7, #7]
 8000b2a:	2b08      	cmp	r3, #8
 8000b2c:	d902      	bls.n	8000b34 <connect+0x1c>
 8000b2e:	f04f 33ff 	mov.w	r3, #4294967295
 8000b32:	e0d1      	b.n	8000cd8 <connect+0x1c0>
 8000b34:	79fb      	ldrb	r3, [r7, #7]
 8000b36:	009b      	lsls	r3, r3, #2
 8000b38:	3301      	adds	r3, #1
 8000b3a:	00db      	lsls	r3, r3, #3
 8000b3c:	4618      	mov	r0, r3
 8000b3e:	f7ff fb0d 	bl	800015c <WIZCHIP_READ>
 8000b42:	4603      	mov	r3, r0
 8000b44:	f003 030f 	and.w	r3, r3, #15
 8000b48:	2b01      	cmp	r3, #1
 8000b4a:	d002      	beq.n	8000b52 <connect+0x3a>
 8000b4c:	f06f 0304 	mvn.w	r3, #4
 8000b50:	e0c2      	b.n	8000cd8 <connect+0x1c0>
 8000b52:	79fb      	ldrb	r3, [r7, #7]
 8000b54:	009b      	lsls	r3, r3, #2
 8000b56:	3301      	adds	r3, #1
 8000b58:	00db      	lsls	r3, r3, #3
 8000b5a:	f503 7340 	add.w	r3, r3, #768	@ 0x300
 8000b5e:	4618      	mov	r0, r3
 8000b60:	f7ff fafc 	bl	800015c <WIZCHIP_READ>
 8000b64:	4603      	mov	r3, r0
 8000b66:	2b13      	cmp	r3, #19
 8000b68:	d002      	beq.n	8000b70 <connect+0x58>
 8000b6a:	f06f 0302 	mvn.w	r3, #2
 8000b6e:	e0b3      	b.n	8000cd8 <connect+0x1c0>
 8000b70:	683b      	ldr	r3, [r7, #0]
 8000b72:	781b      	ldrb	r3, [r3, #0]
 8000b74:	60fb      	str	r3, [r7, #12]
 8000b76:	68fb      	ldr	r3, [r7, #12]
 8000b78:	021b      	lsls	r3, r3, #8
 8000b7a:	683a      	ldr	r2, [r7, #0]
 8000b7c:	3201      	adds	r2, #1
 8000b7e:	7812      	ldrb	r2, [r2, #0]
 8000b80:	4413      	add	r3, r2
 8000b82:	60fb      	str	r3, [r7, #12]
 8000b84:	68fb      	ldr	r3, [r7, #12]
 8000b86:	021b      	lsls	r3, r3, #8
 8000b88:	683a      	ldr	r2, [r7, #0]
 8000b8a:	3202      	adds	r2, #2
 8000b8c:	7812      	ldrb	r2, [r2, #0]
 8000b8e:	4413      	add	r3, r2
 8000b90:	60fb      	str	r3, [r7, #12]
 8000b92:	68fb      	ldr	r3, [r7, #12]
 8000b94:	021b      	lsls	r3, r3, #8
 8000b96:	683a      	ldr	r2, [r7, #0]
 8000b98:	3203      	adds	r2, #3
 8000b9a:	7812      	ldrb	r2, [r2, #0]
 8000b9c:	4413      	add	r3, r2
 8000b9e:	60fb      	str	r3, [r7, #12]
 8000ba0:	68fb      	ldr	r3, [r7, #12]
 8000ba2:	f1b3 3fff 	cmp.w	r3, #4294967295
 8000ba6:	d002      	beq.n	8000bae <connect+0x96>
 8000ba8:	68fb      	ldr	r3, [r7, #12]
 8000baa:	2b00      	cmp	r3, #0
 8000bac:	d102      	bne.n	8000bb4 <connect+0x9c>
 8000bae:	f06f 030b 	mvn.w	r3, #11
 8000bb2:	e091      	b.n	8000cd8 <connect+0x1c0>
 8000bb4:	88bb      	ldrh	r3, [r7, #4]
 8000bb6:	2b00      	cmp	r3, #0
 8000bb8:	d102      	bne.n	8000bc0 <connect+0xa8>
 8000bba:	f06f 030a 	mvn.w	r3, #10
 8000bbe:	e08b      	b.n	8000cd8 <connect+0x1c0>
 8000bc0:	79fb      	ldrb	r3, [r7, #7]
 8000bc2:	009b      	lsls	r3, r3, #2
 8000bc4:	3301      	adds	r3, #1
 8000bc6:	00db      	lsls	r3, r3, #3
 8000bc8:	f503 6340 	add.w	r3, r3, #3072	@ 0xc00
 8000bcc:	2204      	movs	r2, #4
 8000bce:	6839      	ldr	r1, [r7, #0]
 8000bd0:	4618      	mov	r0, r3
 8000bd2:	f7ff fbbd 	bl	8000350 <WIZCHIP_WRITE_BUF>
 8000bd6:	79fb      	ldrb	r3, [r7, #7]
 8000bd8:	009b      	lsls	r3, r3, #2
 8000bda:	3301      	adds	r3, #1
 8000bdc:	00db      	lsls	r3, r3, #3
 8000bde:	f503 5380 	add.w	r3, r3, #4096	@ 0x1000
 8000be2:	461a      	mov	r2, r3
 8000be4:	88bb      	ldrh	r3, [r7, #4]
 8000be6:	0a1b      	lsrs	r3, r3, #8
 8000be8:	b29b      	uxth	r3, r3
 8000bea:	b2db      	uxtb	r3, r3
 8000bec:	4619      	mov	r1, r3
 8000bee:	4610      	mov	r0, r2
 8000bf0:	f7ff fb00 	bl	80001f4 <WIZCHIP_WRITE>
 8000bf4:	79fb      	ldrb	r3, [r7, #7]
 8000bf6:	009b      	lsls	r3, r3, #2
 8000bf8:	3301      	adds	r3, #1
 8000bfa:	00db      	lsls	r3, r3, #3
 8000bfc:	f503 5388 	add.w	r3, r3, #4352	@ 0x1100
 8000c00:	461a      	mov	r2, r3
 8000c02:	88bb      	ldrh	r3, [r7, #4]
 8000c04:	b2db      	uxtb	r3, r3
 8000c06:	4619      	mov	r1, r3
 8000c08:	4610      	mov	r0, r2
 8000c0a:	f7ff faf3 	bl	80001f4 <WIZCHIP_WRITE>
 8000c0e:	79fb      	ldrb	r3, [r7, #7]
 8000c10:	009b      	lsls	r3, r3, #2
 8000c12:	3301      	adds	r3, #1
 8000c14:	00db      	lsls	r3, r3, #3
 8000c16:	f503 7380 	add.w	r3, r3, #256	@ 0x100
 8000c1a:	2104      	movs	r1, #4
 8000c1c:	4618      	mov	r0, r3
 8000c1e:	f7ff fae9 	bl	80001f4 <WIZCHIP_WRITE>
 8000c22:	bf00      	nop
 8000c24:	79fb      	ldrb	r3, [r7, #7]
 8000c26:	009b      	lsls	r3, r3, #2
 8000c28:	3301      	adds	r3, #1
 8000c2a:	00db      	lsls	r3, r3, #3
 8000c2c:	f503 7380 	add.w	r3, r3, #256	@ 0x100
 8000c30:	4618      	mov	r0, r3
 8000c32:	f7ff fa93 	bl	800015c <WIZCHIP_READ>
 8000c36:	4603      	mov	r3, r0
 8000c38:	2b00      	cmp	r3, #0
 8000c3a:	d1f3      	bne.n	8000c24 <connect+0x10c>
 8000c3c:	4b28      	ldr	r3, [pc, #160]	@ (8000ce0 <connect+0x1c8>)
 8000c3e:	881b      	ldrh	r3, [r3, #0]
 8000c40:	461a      	mov	r2, r3
 8000c42:	79fb      	ldrb	r3, [r7, #7]
 8000c44:	fa42 f303 	asr.w	r3, r2, r3
 8000c48:	f003 0301 	and.w	r3, r3, #1
 8000c4c:	2b00      	cmp	r3, #0
 8000c4e:	d036      	beq.n	8000cbe <connect+0x1a6>
 8000c50:	2300      	movs	r3, #0
 8000c52:	e041      	b.n	8000cd8 <connect+0x1c0>
 8000c54:	79fb      	ldrb	r3, [r7, #7]
 8000c56:	009b      	lsls	r3, r3, #2
 8000c58:	3301      	adds	r3, #1
 8000c5a:	00db      	lsls	r3, r3, #3
 8000c5c:	f503 7300 	add.w	r3, r3, #512	@ 0x200
 8000c60:	4618      	mov	r0, r3
 8000c62:	f7ff fa7b 	bl	800015c <WIZCHIP_READ>
 8000c66:	4603      	mov	r3, r0
 8000c68:	f003 0308 	and.w	r3, r3, #8
 8000c6c:	2b00      	cmp	r3, #0
 8000c6e:	d00c      	beq.n	8000c8a <connect+0x172>
 8000c70:	79fb      	ldrb	r3, [r7, #7]
 8000c72:	009b      	lsls	r3, r3, #2
 8000c74:	3301      	adds	r3, #1
 8000c76:	00db      	lsls	r3, r3, #3
 8000c78:	f503 7300 	add.w	r3, r3, #512	@ 0x200
 8000c7c:	2108      	movs	r1, #8
 8000c7e:	4618      	mov	r0, r3
 8000c80:	f7ff fab8 	bl	80001f4 <WIZCHIP_WRITE>
 8000c84:	f06f 030c 	mvn.w	r3, #12
 8000c88:	e026      	b.n	8000cd8 <connect+0x1c0>
 8000c8a:	79fb      	ldrb	r3, [r7, #7]
 8000c8c:	009b      	lsls	r3, r3, #2
 8000c8e:	3301      	adds	r3, #1
 8000c90:	00db      	lsls	r3, r3, #3
 8000c92:	f503 7340 	add.w	r3, r3, #768	@ 0x300
 8000c96:	4618      	mov	r0, r3
 8000c98:	f7ff fa60 	bl	800015c <WIZCHIP_READ>
 8000c9c:	4603      	mov	r3, r0
 8000c9e:	2b00      	cmp	r3, #0
 8000ca0:	d102      	bne.n	8000ca8 <connect+0x190>
 8000ca2:	f06f 0303 	mvn.w	r3, #3
 8000ca6:	e017      	b.n	8000cd8 <connect+0x1c0>
 8000ca8:	4b0e      	ldr	r3, [pc, #56]	@ (8000ce4 <connect+0x1cc>)
 8000caa:	781b      	ldrb	r3, [r3, #0]
 8000cac:	b2db      	uxtb	r3, r3
 8000cae:	2b01      	cmp	r3, #1
 8000cb0:	d105      	bne.n	8000cbe <connect+0x1a6>
 8000cb2:	4b0c      	ldr	r3, [pc, #48]	@ (8000ce4 <connect+0x1cc>)
 8000cb4:	2200      	movs	r2, #0
 8000cb6:	701a      	strb	r2, [r3, #0]
 8000cb8:	f06f 030c 	mvn.w	r3, #12
 8000cbc:	e00c      	b.n	8000cd8 <connect+0x1c0>
 8000cbe:	79fb      	ldrb	r3, [r7, #7]
 8000cc0:	009b      	lsls	r3, r3, #2
 8000cc2:	3301      	adds	r3, #1
 8000cc4:	00db      	lsls	r3, r3, #3
 8000cc6:	f503 7340 	add.w	r3, r3, #768	@ 0x300
 8000cca:	4618      	mov	r0, r3
 8000ccc:	f7ff fa46 	bl	800015c <WIZCHIP_READ>
 8000cd0:	4603      	mov	r3, r0
 8000cd2:	2b17      	cmp	r3, #23
 8000cd4:	d1be      	bne.n	8000c54 <connect+0x13c>
 8000cd6:	2301      	movs	r3, #1
 8000cd8:	4618      	mov	r0, r3
 8000cda:	3710      	adds	r7, #16
 8000cdc:	46bd      	mov	sp, r7
 8000cde:	bd80      	pop	{r7, pc}
 8000ce0:	20000064 	.word	0x20000064
 8000ce4:	20000078 	.word	0x20000078

08000ce8 <send>:
 8000ce8:	b580      	push	{r7, lr}
 8000cea:	b084      	sub	sp, #16
 8000cec:	af00      	add	r7, sp, #0
 8000cee:	4603      	mov	r3, r0
 8000cf0:	6039      	str	r1, [r7, #0]
 8000cf2:	71fb      	strb	r3, [r7, #7]
 8000cf4:	4613      	mov	r3, r2
 8000cf6:	80bb      	strh	r3, [r7, #4]
 8000cf8:	2300      	movs	r3, #0
 8000cfa:	73fb      	strb	r3, [r7, #15]
 8000cfc:	2300      	movs	r3, #0
 8000cfe:	81bb      	strh	r3, [r7, #12]
 8000d00:	79fb      	ldrb	r3, [r7, #7]
 8000d02:	2b08      	cmp	r3, #8
 8000d04:	d902      	bls.n	8000d0c <send+0x24>
 8000d06:	f04f 33ff 	mov.w	r3, #4294967295
 8000d0a:	e0dd      	b.n	8000ec8 <send+0x1e0>
 8000d0c:	79fb      	ldrb	r3, [r7, #7]
 8000d0e:	009b      	lsls	r3, r3, #2
 8000d10:	3301      	adds	r3, #1
 8000d12:	00db      	lsls	r3, r3, #3
 8000d14:	4618      	mov	r0, r3
 8000d16:	f7ff fa21 	bl	800015c <WIZCHIP_READ>
 8000d1a:	4603      	mov	r3, r0
 8000d1c:	f003 030f 	and.w	r3, r3, #15
 8000d20:	2b01      	cmp	r3, #1
 8000d22:	d002      	beq.n	8000d2a <send+0x42>
 8000d24:	f06f 0304 	mvn.w	r3, #4
 8000d28:	e0ce      	b.n	8000ec8 <send+0x1e0>
 8000d2a:	88bb      	ldrh	r3, [r7, #4]
 8000d2c:	2b00      	cmp	r3, #0
 8000d2e:	d102      	bne.n	8000d36 <send+0x4e>
 8000d30:	f06f 030d 	mvn.w	r3, #13
 8000d34:	e0c8      	b.n	8000ec8 <send+0x1e0>
 8000d36:	79fb      	ldrb	r3, [r7, #7]
 8000d38:	009b      	lsls	r3, r3, #2
 8000d3a:	3301      	adds	r3, #1
 8000d3c:	00db      	lsls	r3, r3, #3
 8000d3e:	f503 7340 	add.w	r3, r3, #768	@ 0x300
 8000d42:	4618      	mov	r0, r3
 8000d44:	f7ff fa0a 	bl	800015c <WIZCHIP_READ>
 8000d48:	4603      	mov	r3, r0
 8000d4a:	73fb      	strb	r3, [r7, #15]
 8000d4c:	7bfb      	ldrb	r3, [r7, #15]
 8000d4e:	2b17      	cmp	r3, #23
 8000d50:	d005      	beq.n	8000d5e <send+0x76>
 8000d52:	7bfb      	ldrb	r3, [r7, #15]
 8000d54:	2b1c      	cmp	r3, #28
 8000d56:	d002      	beq.n	8000d5e <send+0x76>
 8000d58:	f06f 0306 	mvn.w	r3, #6
 8000d5c:	e0b4      	b.n	8000ec8 <send+0x1e0>
 8000d5e:	4b5c      	ldr	r3, [pc, #368]	@ (8000ed0 <send+0x1e8>)
 8000d60:	881b      	ldrh	r3, [r3, #0]
 8000d62:	461a      	mov	r2, r3
 8000d64:	79fb      	ldrb	r3, [r7, #7]
 8000d66:	fa42 f303 	asr.w	r3, r2, r3
 8000d6a:	f003 0301 	and.w	r3, r3, #1
 8000d6e:	2b00      	cmp	r3, #0
 8000d70:	d039      	beq.n	8000de6 <send+0xfe>
 8000d72:	79fb      	ldrb	r3, [r7, #7]
 8000d74:	009b      	lsls	r3, r3, #2
 8000d76:	3301      	adds	r3, #1
 8000d78:	00db      	lsls	r3, r3, #3
 8000d7a:	f503 7300 	add.w	r3, r3, #512	@ 0x200
 8000d7e:	4618      	mov	r0, r3
 8000d80:	f7ff f9ec 	bl	800015c <WIZCHIP_READ>
 8000d84:	4603      	mov	r3, r0
 8000d86:	f003 031f 	and.w	r3, r3, #31
 8000d8a:	73fb      	strb	r3, [r7, #15]
 8000d8c:	7bfb      	ldrb	r3, [r7, #15]
 8000d8e:	f003 0310 	and.w	r3, r3, #16
 8000d92:	2b00      	cmp	r3, #0
 8000d94:	d019      	beq.n	8000dca <send+0xe2>
 8000d96:	79fb      	ldrb	r3, [r7, #7]
 8000d98:	009b      	lsls	r3, r3, #2
 8000d9a:	3301      	adds	r3, #1
 8000d9c:	00db      	lsls	r3, r3, #3
 8000d9e:	f503 7300 	add.w	r3, r3, #512	@ 0x200
 8000da2:	2110      	movs	r1, #16
 8000da4:	4618      	mov	r0, r3
 8000da6:	f7ff fa25 	bl	80001f4 <WIZCHIP_WRITE>
 8000daa:	79fb      	ldrb	r3, [r7, #7]
 8000dac:	2201      	movs	r2, #1
 8000dae:	fa02 f303 	lsl.w	r3, r2, r3
 8000db2:	b21b      	sxth	r3, r3
 8000db4:	43db      	mvns	r3, r3
 8000db6:	b21a      	sxth	r2, r3
 8000db8:	4b45      	ldr	r3, [pc, #276]	@ (8000ed0 <send+0x1e8>)
 8000dba:	881b      	ldrh	r3, [r3, #0]
 8000dbc:	b21b      	sxth	r3, r3
 8000dbe:	4013      	ands	r3, r2
 8000dc0:	b21b      	sxth	r3, r3
 8000dc2:	b29a      	uxth	r2, r3
 8000dc4:	4b42      	ldr	r3, [pc, #264]	@ (8000ed0 <send+0x1e8>)
 8000dc6:	801a      	strh	r2, [r3, #0]
 8000dc8:	e00d      	b.n	8000de6 <send+0xfe>
 8000dca:	7bfb      	ldrb	r3, [r7, #15]
 8000dcc:	f003 0308 	and.w	r3, r3, #8
 8000dd0:	2b00      	cmp	r3, #0
 8000dd2:	d006      	beq.n	8000de2 <send+0xfa>
 8000dd4:	79fb      	ldrb	r3, [r7, #7]
 8000dd6:	4618      	mov	r0, r3
 8000dd8:	f7ff fe24 	bl	8000a24 <close>
 8000ddc:	f06f 030c 	mvn.w	r3, #12
 8000de0:	e072      	b.n	8000ec8 <send+0x1e0>
 8000de2:	2300      	movs	r3, #0
 8000de4:	e070      	b.n	8000ec8 <send+0x1e0>
 8000de6:	79fb      	ldrb	r3, [r7, #7]
 8000de8:	009b      	lsls	r3, r3, #2
 8000dea:	3301      	adds	r3, #1
 8000dec:	00db      	lsls	r3, r3, #3
 8000dee:	f503 53f8 	add.w	r3, r3, #7936	@ 0x1f00
 8000df2:	4618      	mov	r0, r3
 8000df4:	f7ff f9b2 	bl	800015c <WIZCHIP_READ>
 8000df8:	4603      	mov	r3, r0
 8000dfa:	029b      	lsls	r3, r3, #10
 8000dfc:	81bb      	strh	r3, [r7, #12]
 8000dfe:	88ba      	ldrh	r2, [r7, #4]
 8000e00:	89bb      	ldrh	r3, [r7, #12]
 8000e02:	429a      	cmp	r2, r3
 8000e04:	d901      	bls.n	8000e0a <send+0x122>
 8000e06:	89bb      	ldrh	r3, [r7, #12]
 8000e08:	80bb      	strh	r3, [r7, #4]
 8000e0a:	79fb      	ldrb	r3, [r7, #7]
 8000e0c:	4618      	mov	r0, r3
 8000e0e:	f7ff faff 	bl	8000410 <getSn_TX_FSR>
 8000e12:	4603      	mov	r3, r0
 8000e14:	81bb      	strh	r3, [r7, #12]
 8000e16:	79fb      	ldrb	r3, [r7, #7]
 8000e18:	009b      	lsls	r3, r3, #2
 8000e1a:	3301      	adds	r3, #1
 8000e1c:	00db      	lsls	r3, r3, #3
 8000e1e:	f503 7340 	add.w	r3, r3, #768	@ 0x300
 8000e22:	4618      	mov	r0, r3
 8000e24:	f7ff f99a 	bl	800015c <WIZCHIP_READ>
 8000e28:	4603      	mov	r3, r0
 8000e2a:	73fb      	strb	r3, [r7, #15]
 8000e2c:	7bfb      	ldrb	r3, [r7, #15]
 8000e2e:	2b17      	cmp	r3, #23
 8000e30:	d009      	beq.n	8000e46 <send+0x15e>
 8000e32:	7bfb      	ldrb	r3, [r7, #15]
 8000e34:	2b1c      	cmp	r3, #28
 8000e36:	d006      	beq.n	8000e46 <send+0x15e>
 8000e38:	79fb      	ldrb	r3, [r7, #7]
 8000e3a:	4618      	mov	r0, r3
 8000e3c:	f7ff fdf2 	bl	8000a24 <close>
 8000e40:	f06f 0306 	mvn.w	r3, #6
 8000e44:	e040      	b.n	8000ec8 <send+0x1e0>
 8000e46:	4b23      	ldr	r3, [pc, #140]	@ (8000ed4 <send+0x1ec>)
 8000e48:	881b      	ldrh	r3, [r3, #0]
 8000e4a:	461a      	mov	r2, r3
 8000e4c:	79fb      	ldrb	r3, [r7, #7]
 8000e4e:	fa42 f303 	asr.w	r3, r2, r3
 8000e52:	f003 0301 	and.w	r3, r3, #1
 8000e56:	2b00      	cmp	r3, #0
 8000e58:	d005      	beq.n	8000e66 <send+0x17e>
 8000e5a:	88ba      	ldrh	r2, [r7, #4]
 8000e5c:	89bb      	ldrh	r3, [r7, #12]
 8000e5e:	429a      	cmp	r2, r3
 8000e60:	d901      	bls.n	8000e66 <send+0x17e>
 8000e62:	2300      	movs	r3, #0
 8000e64:	e030      	b.n	8000ec8 <send+0x1e0>
 8000e66:	88ba      	ldrh	r2, [r7, #4]
 8000e68:	89bb      	ldrh	r3, [r7, #12]
 8000e6a:	429a      	cmp	r2, r3
 8000e6c:	d900      	bls.n	8000e70 <send+0x188>
 8000e6e:	e7cc      	b.n	8000e0a <send+0x122>
 8000e70:	bf00      	nop
 8000e72:	88ba      	ldrh	r2, [r7, #4]
 8000e74:	79fb      	ldrb	r3, [r7, #7]
 8000e76:	6839      	ldr	r1, [r7, #0]
 8000e78:	4618      	mov	r0, r3
 8000e7a:	f7ff fb5b 	bl	8000534 <wiz_send_data>
 8000e7e:	79fb      	ldrb	r3, [r7, #7]
 8000e80:	009b      	lsls	r3, r3, #2
 8000e82:	3301      	adds	r3, #1
 8000e84:	00db      	lsls	r3, r3, #3
 8000e86:	f503 7380 	add.w	r3, r3, #256	@ 0x100
 8000e8a:	2120      	movs	r1, #32
 8000e8c:	4618      	mov	r0, r3
 8000e8e:	f7ff f9b1 	bl	80001f4 <WIZCHIP_WRITE>
 8000e92:	bf00      	nop
 8000e94:	79fb      	ldrb	r3, [r7, #7]
 8000e96:	009b      	lsls	r3, r3, #2
 8000e98:	3301      	adds	r3, #1
 8000e9a:	00db      	lsls	r3, r3, #3
 8000e9c:	f503 7380 	add.w	r3, r3, #256	@ 0x100
 8000ea0:	4618      	mov	r0, r3
 8000ea2:	f7ff f95b 	bl	800015c <WIZCHIP_READ>
 8000ea6:	4603      	mov	r3, r0
 8000ea8:	2b00      	cmp	r3, #0
 8000eaa:	d1f3      	bne.n	8000e94 <send+0x1ac>
 8000eac:	79fb      	ldrb	r3, [r7, #7]
 8000eae:	2201      	movs	r2, #1
 8000eb0:	fa02 f303 	lsl.w	r3, r2, r3
 8000eb4:	b21a      	sxth	r2, r3
 8000eb6:	4b06      	ldr	r3, [pc, #24]	@ (8000ed0 <send+0x1e8>)
 8000eb8:	881b      	ldrh	r3, [r3, #0]
 8000eba:	b21b      	sxth	r3, r3
 8000ebc:	4313      	orrs	r3, r2
 8000ebe:	b21b      	sxth	r3, r3
 8000ec0:	b29a      	uxth	r2, r3
 8000ec2:	4b03      	ldr	r3, [pc, #12]	@ (8000ed0 <send+0x1e8>)
 8000ec4:	801a      	strh	r2, [r3, #0]
 8000ec6:	88bb      	ldrh	r3, [r7, #4]
 8000ec8:	4618      	mov	r0, r3
 8000eca:	3710      	adds	r7, #16
 8000ecc:	46bd      	mov	sp, r7
 8000ece:	bd80      	pop	{r7, pc}
 8000ed0:	20000066 	.word	0x20000066
 8000ed4:	20000064 	.word	0x20000064

08000ed8 <recv>:
 8000ed8:	b590      	push	{r4, r7, lr}
 8000eda:	b085      	sub	sp, #20
 8000edc:	af00      	add	r7, sp, #0
 8000ede:	4603      	mov	r3, r0
 8000ee0:	6039      	str	r1, [r7, #0]
 8000ee2:	71fb      	strb	r3, [r7, #7]
 8000ee4:	4613      	mov	r3, r2
 8000ee6:	80bb      	strh	r3, [r7, #4]
 8000ee8:	2300      	movs	r3, #0
 8000eea:	73fb      	strb	r3, [r7, #15]
 8000eec:	2300      	movs	r3, #0
 8000eee:	81bb      	strh	r3, [r7, #12]
 8000ef0:	79fb      	ldrb	r3, [r7, #7]
 8000ef2:	2b08      	cmp	r3, #8
 8000ef4:	d902      	bls.n	8000efc <recv+0x24>
 8000ef6:	f04f 33ff 	mov.w	r3, #4294967295
 8000efa:	e09b      	b.n	8001034 <recv+0x15c>
 8000efc:	79fb      	ldrb	r3, [r7, #7]
 8000efe:	009b      	lsls	r3, r3, #2
 8000f00:	3301      	adds	r3, #1
 8000f02:	00db      	lsls	r3, r3, #3
 8000f04:	4618      	mov	r0, r3
 8000f06:	f7ff f929 	bl	800015c <WIZCHIP_READ>
 8000f0a:	4603      	mov	r3, r0
 8000f0c:	f003 030f 	and.w	r3, r3, #15
 8000f10:	2b01      	cmp	r3, #1
 8000f12:	d002      	beq.n	8000f1a <recv+0x42>
 8000f14:	f06f 0304 	mvn.w	r3, #4
 8000f18:	e08c      	b.n	8001034 <recv+0x15c>
 8000f1a:	88bb      	ldrh	r3, [r7, #4]
 8000f1c:	2b00      	cmp	r3, #0
 8000f1e:	d102      	bne.n	8000f26 <recv+0x4e>
 8000f20:	f06f 030d 	mvn.w	r3, #13
 8000f24:	e086      	b.n	8001034 <recv+0x15c>
 8000f26:	79fb      	ldrb	r3, [r7, #7]
 8000f28:	009b      	lsls	r3, r3, #2
 8000f2a:	3301      	adds	r3, #1
 8000f2c:	00db      	lsls	r3, r3, #3
 8000f2e:	f503 53f0 	add.w	r3, r3, #7680	@ 0x1e00
 8000f32:	4618      	mov	r0, r3
 8000f34:	f7ff f912 	bl	800015c <WIZCHIP_READ>
 8000f38:	4603      	mov	r3, r0
 8000f3a:	029b      	lsls	r3, r3, #10
 8000f3c:	81bb      	strh	r3, [r7, #12]
 8000f3e:	89ba      	ldrh	r2, [r7, #12]
 8000f40:	88bb      	ldrh	r3, [r7, #4]
 8000f42:	429a      	cmp	r2, r3
 8000f44:	d201      	bcs.n	8000f4a <recv+0x72>
 8000f46:	89bb      	ldrh	r3, [r7, #12]
 8000f48:	80bb      	strh	r3, [r7, #4]
 8000f4a:	79fb      	ldrb	r3, [r7, #7]
 8000f4c:	4618      	mov	r0, r3
 8000f4e:	f7ff faa8 	bl	80004a2 <getSn_RX_RSR>
 8000f52:	4603      	mov	r3, r0
 8000f54:	81bb      	strh	r3, [r7, #12]
 8000f56:	79fb      	ldrb	r3, [r7, #7]
 8000f58:	009b      	lsls	r3, r3, #2
 8000f5a:	3301      	adds	r3, #1
 8000f5c:	00db      	lsls	r3, r3, #3
 8000f5e:	f503 7340 	add.w	r3, r3, #768	@ 0x300
 8000f62:	4618      	mov	r0, r3
 8000f64:	f7ff f8fa 	bl	800015c <WIZCHIP_READ>
 8000f68:	4603      	mov	r3, r0
 8000f6a:	73fb      	strb	r3, [r7, #15]
 8000f6c:	7bfb      	ldrb	r3, [r7, #15]
 8000f6e:	2b17      	cmp	r3, #23
 8000f70:	d026      	beq.n	8000fc0 <recv+0xe8>
 8000f72:	7bfb      	ldrb	r3, [r7, #15]
 8000f74:	2b1c      	cmp	r3, #28
 8000f76:	d11c      	bne.n	8000fb2 <recv+0xda>
 8000f78:	89bb      	ldrh	r3, [r7, #12]
 8000f7a:	2b00      	cmp	r3, #0
 8000f7c:	d133      	bne.n	8000fe6 <recv+0x10e>
 8000f7e:	79fb      	ldrb	r3, [r7, #7]
 8000f80:	4618      	mov	r0, r3
 8000f82:	f7ff fa45 	bl	8000410 <getSn_TX_FSR>
 8000f86:	4603      	mov	r3, r0
 8000f88:	461c      	mov	r4, r3
 8000f8a:	79fb      	ldrb	r3, [r7, #7]
 8000f8c:	009b      	lsls	r3, r3, #2
 8000f8e:	3301      	adds	r3, #1
 8000f90:	00db      	lsls	r3, r3, #3
 8000f92:	f503 53f8 	add.w	r3, r3, #7936	@ 0x1f00
 8000f96:	4618      	mov	r0, r3
 8000f98:	f7ff f8e0 	bl	800015c <WIZCHIP_READ>
 8000f9c:	4603      	mov	r3, r0
 8000f9e:	029b      	lsls	r3, r3, #10
 8000fa0:	429c      	cmp	r4, r3
 8000fa2:	d10d      	bne.n	8000fc0 <recv+0xe8>
 8000fa4:	79fb      	ldrb	r3, [r7, #7]
 8000fa6:	4618      	mov	r0, r3
 8000fa8:	f7ff fd3c 	bl	8000a24 <close>
 8000fac:	f06f 0306 	mvn.w	r3, #6
 8000fb0:	e040      	b.n	8001034 <recv+0x15c>
 8000fb2:	79fb      	ldrb	r3, [r7, #7]
 8000fb4:	4618      	mov	r0, r3
 8000fb6:	f7ff fd35 	bl	8000a24 <close>
 8000fba:	f06f 0306 	mvn.w	r3, #6
 8000fbe:	e039      	b.n	8001034 <recv+0x15c>
 8000fc0:	4b1e      	ldr	r3, [pc, #120]	@ (800103c <recv+0x164>)
 8000fc2:	881b      	ldrh	r3, [r3, #0]
 8000fc4:	461a      	mov	r2, r3
 8000fc6:	79fb      	ldrb	r3, [r7, #7]
 8000fc8:	fa42 f303 	asr.w	r3, r2, r3
 8000fcc:	f003 0301 	and.w	r3, r3, #1
 8000fd0:	2b00      	cmp	r3, #0
 8000fd2:	d004      	beq.n	8000fde <recv+0x106>
 8000fd4:	89bb      	ldrh	r3, [r7, #12]
 8000fd6:	2b00      	cmp	r3, #0
 8000fd8:	d101      	bne.n	8000fde <recv+0x106>
 8000fda:	2300      	movs	r3, #0
 8000fdc:	e02a      	b.n	8001034 <recv+0x15c>
 8000fde:	89bb      	ldrh	r3, [r7, #12]
 8000fe0:	2b00      	cmp	r3, #0
 8000fe2:	d102      	bne.n	8000fea <recv+0x112>
 8000fe4:	e7b1      	b.n	8000f4a <recv+0x72>
 8000fe6:	bf00      	nop
 8000fe8:	e000      	b.n	8000fec <recv+0x114>
 8000fea:	bf00      	nop
 8000fec:	89ba      	ldrh	r2, [r7, #12]
 8000fee:	88bb      	ldrh	r3, [r7, #4]
 8000ff0:	429a      	cmp	r2, r3
 8000ff2:	d201      	bcs.n	8000ff8 <recv+0x120>
 8000ff4:	89bb      	ldrh	r3, [r7, #12]
 8000ff6:	80bb      	strh	r3, [r7, #4]
 8000ff8:	88ba      	ldrh	r2, [r7, #4]
 8000ffa:	79fb      	ldrb	r3, [r7, #7]
 8000ffc:	6839      	ldr	r1, [r7, #0]
 8000ffe:	4618      	mov	r0, r3
 8001000:	f7ff faf2 	bl	80005e8 <wiz_recv_data>
 8001004:	79fb      	ldrb	r3, [r7, #7]
 8001006:	009b      	lsls	r3, r3, #2
 8001008:	3301      	adds	r3, #1
 800100a:	00db      	lsls	r3, r3, #3
 800100c:	f503 7380 	add.w	r3, r3, #256	@ 0x100
 8001010:	2140      	movs	r1, #64	@ 0x40
 8001012:	4618      	mov	r0, r3
 8001014:	f7ff f8ee 	bl	80001f4 <WIZCHIP_WRITE>
 8001018:	bf00      	nop
 800101a:	79fb      	ldrb	r3, [r7, #7]
 800101c:	009b      	lsls	r3, r3, #2
 800101e:	3301      	adds	r3, #1
 8001020:	00db      	lsls	r3, r3, #3
 8001022:	f503 7380 	add.w	r3, r3, #256	@ 0x100
 8001026:	4618      	mov	r0, r3
 8001028:	f7ff f898 	bl	800015c <WIZCHIP_READ>
 800102c:	4603      	mov	r3, r0
 800102e:	2b00      	cmp	r3, #0
 8001030:	d1f3      	bne.n	800101a <recv+0x142>
 8001032:	88bb      	ldrh	r3, [r7, #4]
 8001034:	4618      	mov	r0, r3
 8001036:	3714      	adds	r7, #20
 8001038:	46bd      	mov	sp, r7
 800103a:	bd90      	pop	{r4, r7, pc}
 800103c:	20000064 	.word	0x20000064

08001040 <wizchip_cris_enter>:
 8001040:	b480      	push	{r7}
 8001042:	af00      	add	r7, sp, #0
 8001044:	bf00      	nop
 8001046:	46bd      	mov	sp, r7
 8001048:	bc80      	pop	{r7}
 800104a:	4770      	bx	lr

0800104c <wizchip_cris_exit>:
 800104c:	b480      	push	{r7}
 800104e:	af00      	add	r7, sp, #0
 8001050:	bf00      	nop
 8001052:	46bd      	mov	sp, r7
 8001054:	bc80      	pop	{r7}
 8001056:	4770      	bx	lr

08001058 <wizchip_cs_select>:
 8001058:	b480      	push	{r7}
 800105a:	af00      	add	r7, sp, #0
 800105c:	bf00      	nop
 800105e:	46bd      	mov	sp, r7
 8001060:	bc80      	pop	{r7}
 8001062:	4770      	bx	lr

08001064 <wizchip_cs_deselect>:
 8001064:	b480      	push	{r7}
 8001066:	af00      	add	r7, sp, #0
 8001068:	bf00      	nop
 800106a:	46bd      	mov	sp, r7
 800106c:	bc80      	pop	{r7}
 800106e:	4770      	bx	lr

08001070 <wizchip_bus_readdata>:
 8001070:	b480      	push	{r7}
 8001072:	b083      	sub	sp, #12
 8001074:	af00      	add	r7, sp, #0
 8001076:	6078      	str	r0, [r7, #4]
 8001078:	687b      	ldr	r3, [r7, #4]
 800107a:	781b      	ldrb	r3, [r3, #0]
 800107c:	b2db      	uxtb	r3, r3
 800107e:	4618      	mov	r0, r3
 8001080:	370c      	adds	r7, #12
 8001082:	46bd      	mov	sp, r7
 8001084:	bc80      	pop	{r7}
 8001086:	4770      	bx	lr

08001088 <wizchip_bus_writedata>:
 8001088:	b480      	push	{r7}
 800108a:	b083      	sub	sp, #12
 800108c:	af00      	add	r7, sp, #0
 800108e:	6078      	str	r0, [r7, #4]
 8001090:	460b      	mov	r3, r1
 8001092:	70fb      	strb	r3, [r7, #3]
 8001094:	687b      	ldr	r3, [r7, #4]
 8001096:	78fa      	ldrb	r2, [r7, #3]
 8001098:	701a      	strb	r2, [r3, #0]
 800109a:	bf00      	nop
 800109c:	370c      	adds	r7, #12
 800109e:	46bd      	mov	sp, r7
 80010a0:	bc80      	pop	{r7}
 80010a2:	4770      	bx	lr

080010a4 <wizchip_spi_readbyte>:
 80010a4:	b480      	push	{r7}
 80010a6:	af00      	add	r7, sp, #0
 80010a8:	2300      	movs	r3, #0
 80010aa:	4618      	mov	r0, r3
 80010ac:	46bd      	mov	sp, r7
 80010ae:	bc80      	pop	{r7}
 80010b0:	4770      	bx	lr

080010b2 <wizchip_spi_writebyte>:
 80010b2:	b480      	push	{r7}
 80010b4:	b083      	sub	sp, #12
 80010b6:	af00      	add	r7, sp, #0
 80010b8:	4603      	mov	r3, r0
 80010ba:	71fb      	strb	r3, [r7, #7]
 80010bc:	bf00      	nop
 80010be:	370c      	adds	r7, #12
 80010c0:	46bd      	mov	sp, r7
 80010c2:	bc80      	pop	{r7}
 80010c4:	4770      	bx	lr

080010c6 <wizchip_spi_readburst>:
 80010c6:	b480      	push	{r7}
 80010c8:	b083      	sub	sp, #12
 80010ca:	af00      	add	r7, sp, #0
 80010cc:	6078      	str	r0, [r7, #4]
 80010ce:	460b      	mov	r3, r1
 80010d0:	807b      	strh	r3, [r7, #2]
 80010d2:	bf00      	nop
 80010d4:	370c      	adds	r7, #12
 80010d6:	46bd      	mov	sp, r7
 80010d8:	bc80      	pop	{r7}
 80010da:	4770      	bx	lr

080010dc <wizchip_spi_writeburst>:
 80010dc:	b480      	push	{r7}
 80010de:	b083      	sub	sp, #12
 80010e0:	af00      	add	r7, sp, #0
 80010e2:	6078      	str	r0, [r7, #4]
 80010e4:	460b      	mov	r3, r1
 80010e6:	807b      	strh	r3, [r7, #2]
 80010e8:	bf00      	nop
 80010ea:	370c      	adds	r7, #12
 80010ec:	46bd      	mov	sp, r7
 80010ee:	bc80      	pop	{r7}
 80010f0:	4770      	bx	lr
	...

080010f4 <reg_wizchip_cs_cbfunc>:
 80010f4:	b480      	push	{r7}
 80010f6:	b083      	sub	sp, #12
 80010f8:	af00      	add	r7, sp, #0
 80010fa:	6078      	str	r0, [r7, #4]
 80010fc:	6039      	str	r1, [r7, #0]
 80010fe:	687b      	ldr	r3, [r7, #4]
 8001100:	2b00      	cmp	r3, #0
 8001102:	d002      	beq.n	800110a <reg_wizchip_cs_cbfunc+0x16>
 8001104:	683b      	ldr	r3, [r7, #0]
 8001106:	2b00      	cmp	r3, #0
 8001108:	d106      	bne.n	8001118 <reg_wizchip_cs_cbfunc+0x24>
 800110a:	4b09      	ldr	r3, [pc, #36]	@ (8001130 <reg_wizchip_cs_cbfunc+0x3c>)
 800110c:	4a09      	ldr	r2, [pc, #36]	@ (8001134 <reg_wizchip_cs_cbfunc+0x40>)
 800110e:	615a      	str	r2, [r3, #20]
 8001110:	4b07      	ldr	r3, [pc, #28]	@ (8001130 <reg_wizchip_cs_cbfunc+0x3c>)
 8001112:	4a09      	ldr	r2, [pc, #36]	@ (8001138 <reg_wizchip_cs_cbfunc+0x44>)
 8001114:	619a      	str	r2, [r3, #24]
 8001116:	e006      	b.n	8001126 <reg_wizchip_cs_cbfunc+0x32>
 8001118:	4a05      	ldr	r2, [pc, #20]	@ (8001130 <reg_wizchip_cs_cbfunc+0x3c>)
 800111a:	687b      	ldr	r3, [r7, #4]
 800111c:	6153      	str	r3, [r2, #20]
 800111e:	4a04      	ldr	r2, [pc, #16]	@ (8001130 <reg_wizchip_cs_cbfunc+0x3c>)
 8001120:	683b      	ldr	r3, [r7, #0]
 8001122:	6193      	str	r3, [r2, #24]
 8001124:	bf00      	nop
 8001126:	bf00      	nop
 8001128:	370c      	adds	r7, #12
 800112a:	46bd      	mov	sp, r7
 800112c:	bc80      	pop	{r7}
 800112e:	4770      	bx	lr
 8001130:	20000004 	.word	0x20000004
 8001134:	08001059 	.word	0x08001059
 8001138:	08001065 	.word	0x08001065

0800113c <reg_wizchip_spi_cbfunc>:
 800113c:	b480      	push	{r7}
 800113e:	b083      	sub	sp, #12
 8001140:	af00      	add	r7, sp, #0
 8001142:	6078      	str	r0, [r7, #4]
 8001144:	6039      	str	r1, [r7, #0]
 8001146:	bf00      	nop
 8001148:	4b0f      	ldr	r3, [pc, #60]	@ (8001188 <reg_wizchip_spi_cbfunc+0x4c>)
 800114a:	881b      	ldrh	r3, [r3, #0]
 800114c:	f403 7300 	and.w	r3, r3, #512	@ 0x200
 8001150:	2b00      	cmp	r3, #0
 8001152:	d0f9      	beq.n	8001148 <reg_wizchip_spi_cbfunc+0xc>
 8001154:	687b      	ldr	r3, [r7, #4]
 8001156:	2b00      	cmp	r3, #0
 8001158:	d002      	beq.n	8001160 <reg_wizchip_spi_cbfunc+0x24>
 800115a:	683b      	ldr	r3, [r7, #0]
 800115c:	2b00      	cmp	r3, #0
 800115e:	d106      	bne.n	800116e <reg_wizchip_spi_cbfunc+0x32>
 8001160:	4b09      	ldr	r3, [pc, #36]	@ (8001188 <reg_wizchip_spi_cbfunc+0x4c>)
 8001162:	4a0a      	ldr	r2, [pc, #40]	@ (800118c <reg_wizchip_spi_cbfunc+0x50>)
 8001164:	61da      	str	r2, [r3, #28]
 8001166:	4b08      	ldr	r3, [pc, #32]	@ (8001188 <reg_wizchip_spi_cbfunc+0x4c>)
 8001168:	4a09      	ldr	r2, [pc, #36]	@ (8001190 <reg_wizchip_spi_cbfunc+0x54>)
 800116a:	621a      	str	r2, [r3, #32]
 800116c:	e006      	b.n	800117c <reg_wizchip_spi_cbfunc+0x40>
 800116e:	4a06      	ldr	r2, [pc, #24]	@ (8001188 <reg_wizchip_spi_cbfunc+0x4c>)
 8001170:	687b      	ldr	r3, [r7, #4]
 8001172:	61d3      	str	r3, [r2, #28]
 8001174:	4a04      	ldr	r2, [pc, #16]	@ (8001188 <reg_wizchip_spi_cbfunc+0x4c>)
 8001176:	683b      	ldr	r3, [r7, #0]
 8001178:	6213      	str	r3, [r2, #32]
 800117a:	bf00      	nop
 800117c:	bf00      	nop
 800117e:	370c      	adds	r7, #12
 8001180:	46bd      	mov	sp, r7
 8001182:	bc80      	pop	{r7}
 8001184:	4770      	bx	lr
 8001186:	bf00      	nop
 8001188:	20000004 	.word	0x20000004
 800118c:	080010a5 	.word	0x080010a5
 8001190:	080010b3 	.word	0x080010b3

08001194 <reg_wizchip_spiburst_cbfunc>:
 8001194:	b480      	push	{r7}
 8001196:	b083      	sub	sp, #12
 8001198:	af00      	add	r7, sp, #0
 800119a:	6078      	str	r0, [r7, #4]
 800119c:	6039      	str	r1, [r7, #0]
 800119e:	bf00      	nop
 80011a0:	4b0f      	ldr	r3, [pc, #60]	@ (80011e0 <reg_wizchip_spiburst_cbfunc+0x4c>)
 80011a2:	881b      	ldrh	r3, [r3, #0]
 80011a4:	f403 7300 	and.w	r3, r3, #512	@ 0x200
 80011a8:	2b00      	cmp	r3, #0
 80011aa:	d0f9      	beq.n	80011a0 <reg_wizchip_spiburst_cbfunc+0xc>
 80011ac:	687b      	ldr	r3, [r7, #4]
 80011ae:	2b00      	cmp	r3, #0
 80011b0:	d002      	beq.n	80011b8 <reg_wizchip_spiburst_cbfunc+0x24>
 80011b2:	683b      	ldr	r3, [r7, #0]
 80011b4:	2b00      	cmp	r3, #0
 80011b6:	d106      	bne.n	80011c6 <reg_wizchip_spiburst_cbfunc+0x32>
 80011b8:	4b09      	ldr	r3, [pc, #36]	@ (80011e0 <reg_wizchip_spiburst_cbfunc+0x4c>)
 80011ba:	4a0a      	ldr	r2, [pc, #40]	@ (80011e4 <reg_wizchip_spiburst_cbfunc+0x50>)
 80011bc:	625a      	str	r2, [r3, #36]	@ 0x24
 80011be:	4b08      	ldr	r3, [pc, #32]	@ (80011e0 <reg_wizchip_spiburst_cbfunc+0x4c>)
 80011c0:	4a09      	ldr	r2, [pc, #36]	@ (80011e8 <reg_wizchip_spiburst_cbfunc+0x54>)
 80011c2:	629a      	str	r2, [r3, #40]	@ 0x28
 80011c4:	e006      	b.n	80011d4 <reg_wizchip_spiburst_cbfunc+0x40>
 80011c6:	4a06      	ldr	r2, [pc, #24]	@ (80011e0 <reg_wizchip_spiburst_cbfunc+0x4c>)
 80011c8:	687b      	ldr	r3, [r7, #4]
 80011ca:	6253      	str	r3, [r2, #36]	@ 0x24
 80011cc:	4a04      	ldr	r2, [pc, #16]	@ (80011e0 <reg_wizchip_spiburst_cbfunc+0x4c>)
 80011ce:	683b      	ldr	r3, [r7, #0]
 80011d0:	6293      	str	r3, [r2, #40]	@ 0x28
 80011d2:	bf00      	nop
 80011d4:	bf00      	nop
 80011d6:	370c      	adds	r7, #12
 80011d8:	46bd      	mov	sp, r7
 80011da:	bc80      	pop	{r7}
 80011dc:	4770      	bx	lr
 80011de:	bf00      	nop
 80011e0:	20000004 	.word	0x20000004
 80011e4:	080010c7 	.word	0x080010c7
 80011e8:	080010dd 	.word	0x080010dd

080011ec <ctlwizchip>:
 80011ec:	b590      	push	{r4, r7, lr}
 80011ee:	b087      	sub	sp, #28
 80011f0:	af00      	add	r7, sp, #0
 80011f2:	4603      	mov	r3, r0
 80011f4:	6039      	str	r1, [r7, #0]
 80011f6:	71fb      	strb	r3, [r7, #7]
 80011f8:	2300      	movs	r3, #0
 80011fa:	75fb      	strb	r3, [r7, #23]
 80011fc:	2300      	movs	r3, #0
 80011fe:	60fb      	str	r3, [r7, #12]
 8001200:	2300      	movs	r3, #0
 8001202:	613b      	str	r3, [r7, #16]
 8001204:	79fb      	ldrb	r3, [r7, #7]
 8001206:	2b0f      	cmp	r3, #15
 8001208:	f200 80c5 	bhi.w	8001396 <ctlwizchip+0x1aa>
 800120c:	a201      	add	r2, pc, #4	@ (adr r2, 8001214 <ctlwizchip+0x28>)
 800120e:	f852 f023 	ldr.w	pc, [r2, r3, lsl #2]
 8001212:	bf00      	nop
 8001214:	08001255 	.word	0x08001255
 8001218:	0800125b 	.word	0x0800125b
 800121c:	08001287 	.word	0x08001287
 8001220:	0800127b 	.word	0x0800127b
 8001224:	08001295 	.word	0x08001295
 8001228:	080012a1 	.word	0x080012a1
 800122c:	080012af 	.word	0x080012af
 8001230:	080012d5 	.word	0x080012d5
 8001234:	080012f7 	.word	0x080012f7
 8001238:	0800133b 	.word	0x0800133b
 800123c:	08001341 	.word	0x08001341
 8001240:	08001349 	.word	0x08001349
 8001244:	0800139d 	.word	0x0800139d
 8001248:	08001351 	.word	0x08001351
 800124c:	0800135f 	.word	0x0800135f
 8001250:	0800137b 	.word	0x0800137b
 8001254:	f000 f8aa 	bl	80013ac <wizchip_sw_reset>
 8001258:	e0a1      	b.n	800139e <ctlwizchip+0x1b2>
 800125a:	683b      	ldr	r3, [r7, #0]
 800125c:	2b00      	cmp	r3, #0
 800125e:	d004      	beq.n	800126a <ctlwizchip+0x7e>
 8001260:	683b      	ldr	r3, [r7, #0]
 8001262:	60fb      	str	r3, [r7, #12]
 8001264:	68fb      	ldr	r3, [r7, #12]
 8001266:	3308      	adds	r3, #8
 8001268:	613b      	str	r3, [r7, #16]
 800126a:	68fb      	ldr	r3, [r7, #12]
 800126c:	693a      	ldr	r2, [r7, #16]
 800126e:	4611      	mov	r1, r2
 8001270:	4618      	mov	r0, r3
 8001272:	f000 f8e7 	bl	8001444 <wizchip_init>
 8001276:	4603      	mov	r3, r0
 8001278:	e092      	b.n	80013a0 <ctlwizchip+0x1b4>
 800127a:	683b      	ldr	r3, [r7, #0]
 800127c:	881b      	ldrh	r3, [r3, #0]
 800127e:	4618      	mov	r0, r3
 8001280:	f000 f96c 	bl	800155c <wizchip_clrinterrupt>
 8001284:	e08b      	b.n	800139e <ctlwizchip+0x1b2>
 8001286:	f000 f99d 	bl	80015c4 <wizchip_getinterrupt>
 800128a:	4603      	mov	r3, r0
 800128c:	461a      	mov	r2, r3
 800128e:	683b      	ldr	r3, [r7, #0]
 8001290:	801a      	strh	r2, [r3, #0]
 8001292:	e084      	b.n	800139e <ctlwizchip+0x1b2>
 8001294:	683b      	ldr	r3, [r7, #0]
 8001296:	881b      	ldrh	r3, [r3, #0]
 8001298:	4618      	mov	r0, r3
 800129a:	f000 f9b8 	bl	800160e <wizchip_setinterruptmask>
 800129e:	e07e      	b.n	800139e <ctlwizchip+0x1b2>
 80012a0:	f000 f9d0 	bl	8001644 <wizchip_getinterruptmask>
 80012a4:	4603      	mov	r3, r0
 80012a6:	461a      	mov	r2, r3
 80012a8:	683b      	ldr	r3, [r7, #0]
 80012aa:	801a      	strh	r2, [r3, #0]
 80012ac:	e077      	b.n	800139e <ctlwizchip+0x1b2>
 80012ae:	683b      	ldr	r3, [r7, #0]
 80012b0:	881b      	ldrh	r3, [r3, #0]
 80012b2:	0a1b      	lsrs	r3, r3, #8
 80012b4:	b29b      	uxth	r3, r3
 80012b6:	b2db      	uxtb	r3, r3
 80012b8:	4619      	mov	r1, r3
 80012ba:	f44f 5098 	mov.w	r0, #4864	@ 0x1300
 80012be:	f7fe ff99 	bl	80001f4 <WIZCHIP_WRITE>
 80012c2:	683b      	ldr	r3, [r7, #0]
 80012c4:	881b      	ldrh	r3, [r3, #0]
 80012c6:	b2db      	uxtb	r3, r3
 80012c8:	4619      	mov	r1, r3
 80012ca:	f44f 50a0 	mov.w	r0, #5120	@ 0x1400
 80012ce:	f7fe ff91 	bl	80001f4 <WIZCHIP_WRITE>
 80012d2:	e064      	b.n	800139e <ctlwizchip+0x1b2>
 80012d4:	f44f 5098 	mov.w	r0, #4864	@ 0x1300
 80012d8:	f7fe ff40 	bl	800015c <WIZCHIP_READ>
 80012dc:	4603      	mov	r3, r0
 80012de:	021b      	lsls	r3, r3, #8
 80012e0:	b29c      	uxth	r4, r3
 80012e2:	f44f 50a0 	mov.w	r0, #5120	@ 0x1400
 80012e6:	f7fe ff39 	bl	800015c <WIZCHIP_READ>
 80012ea:	4603      	mov	r3, r0
 80012ec:	4423      	add	r3, r4
 80012ee:	b29a      	uxth	r2, r3
 80012f0:	683b      	ldr	r3, [r7, #0]
 80012f2:	801a      	strh	r2, [r3, #0]
 80012f4:	e053      	b.n	800139e <ctlwizchip+0x1b2>
 80012f6:	4b2c      	ldr	r3, [pc, #176]	@ (80013a8 <ctlwizchip+0x1bc>)
 80012f8:	789a      	ldrb	r2, [r3, #2]
 80012fa:	683b      	ldr	r3, [r7, #0]
 80012fc:	701a      	strb	r2, [r3, #0]
 80012fe:	683b      	ldr	r3, [r7, #0]
 8001300:	3301      	adds	r3, #1
 8001302:	4a29      	ldr	r2, [pc, #164]	@ (80013a8 <ctlwizchip+0x1bc>)
 8001304:	78d2      	ldrb	r2, [r2, #3]
 8001306:	701a      	strb	r2, [r3, #0]
 8001308:	683b      	ldr	r3, [r7, #0]
 800130a:	3302      	adds	r3, #2
 800130c:	4a26      	ldr	r2, [pc, #152]	@ (80013a8 <ctlwizchip+0x1bc>)
 800130e:	7912      	ldrb	r2, [r2, #4]
 8001310:	701a      	strb	r2, [r3, #0]
 8001312:	683b      	ldr	r3, [r7, #0]
 8001314:	3303      	adds	r3, #3
 8001316:	4a24      	ldr	r2, [pc, #144]	@ (80013a8 <ctlwizchip+0x1bc>)
 8001318:	7952      	ldrb	r2, [r2, #5]
 800131a:	701a      	strb	r2, [r3, #0]
 800131c:	683b      	ldr	r3, [r7, #0]
 800131e:	3304      	adds	r3, #4
 8001320:	4a21      	ldr	r2, [pc, #132]	@ (80013a8 <ctlwizchip+0x1bc>)
 8001322:	7992      	ldrb	r2, [r2, #6]
 8001324:	701a      	strb	r2, [r3, #0]
 8001326:	683b      	ldr	r3, [r7, #0]
 8001328:	3305      	adds	r3, #5
 800132a:	4a1f      	ldr	r2, [pc, #124]	@ (80013a8 <ctlwizchip+0x1bc>)
 800132c:	79d2      	ldrb	r2, [r2, #7]
 800132e:	701a      	strb	r2, [r3, #0]
 8001330:	683b      	ldr	r3, [r7, #0]
 8001332:	3306      	adds	r3, #6
 8001334:	2200      	movs	r2, #0
 8001336:	701a      	strb	r2, [r3, #0]
 8001338:	e031      	b.n	800139e <ctlwizchip+0x1b2>
 800133a:	f000 f9d5 	bl	80016e8 <wizphy_reset>
 800133e:	e02e      	b.n	800139e <ctlwizchip+0x1b2>
 8001340:	6838      	ldr	r0, [r7, #0]
 8001342:	f000 f9f8 	bl	8001736 <wizphy_setphyconf>
 8001346:	e02a      	b.n	800139e <ctlwizchip+0x1b2>
 8001348:	6838      	ldr	r0, [r7, #0]
 800134a:	f000 fa37 	bl	80017bc <wizphy_getphyconf>
 800134e:	e026      	b.n	800139e <ctlwizchip+0x1b2>
 8001350:	683b      	ldr	r3, [r7, #0]
 8001352:	781b      	ldrb	r3, [r3, #0]
 8001354:	4618      	mov	r0, r3
 8001356:	f000 fa9b 	bl	8001890 <wizphy_setphypmode>
 800135a:	4603      	mov	r3, r0
 800135c:	e020      	b.n	80013a0 <ctlwizchip+0x1b4>
 800135e:	f000 f9aa 	bl	80016b6 <wizphy_getphypmode>
 8001362:	4603      	mov	r3, r0
 8001364:	75fb      	strb	r3, [r7, #23]
 8001366:	7dfb      	ldrb	r3, [r7, #23]
 8001368:	2bff      	cmp	r3, #255	@ 0xff
 800136a:	d102      	bne.n	8001372 <ctlwizchip+0x186>
 800136c:	f04f 33ff 	mov.w	r3, #4294967295
 8001370:	e016      	b.n	80013a0 <ctlwizchip+0x1b4>
 8001372:	683b      	ldr	r3, [r7, #0]
 8001374:	7dfa      	ldrb	r2, [r7, #23]
 8001376:	701a      	strb	r2, [r3, #0]
 8001378:	e011      	b.n	800139e <ctlwizchip+0x1b2>
 800137a:	f000 f986 	bl	800168a <wizphy_getphylink>
 800137e:	4603      	mov	r3, r0
 8001380:	75fb      	strb	r3, [r7, #23]
 8001382:	7dfb      	ldrb	r3, [r7, #23]
 8001384:	2bff      	cmp	r3, #255	@ 0xff
 8001386:	d102      	bne.n	800138e <ctlwizchip+0x1a2>
 8001388:	f04f 33ff 	mov.w	r3, #4294967295
 800138c:	e008      	b.n	80013a0 <ctlwizchip+0x1b4>
 800138e:	683b      	ldr	r3, [r7, #0]
 8001390:	7dfa      	ldrb	r2, [r7, #23]
 8001392:	701a      	strb	r2, [r3, #0]
 8001394:	e003      	b.n	800139e <ctlwizchip+0x1b2>
 8001396:	f04f 33ff 	mov.w	r3, #4294967295
 800139a:	e001      	b.n	80013a0 <ctlwizchip+0x1b4>
 800139c:	bf00      	nop
 800139e:	2300      	movs	r3, #0
 80013a0:	4618      	mov	r0, r3
 80013a2:	371c      	adds	r7, #28
 80013a4:	46bd      	mov	sp, r7
 80013a6:	bd90      	pop	{r4, r7, pc}
 80013a8:	20000004 	.word	0x20000004

080013ac <wizchip_sw_reset>:
 80013ac:	b580      	push	{r7, lr}
 80013ae:	b086      	sub	sp, #24
 80013b0:	af00      	add	r7, sp, #0
 80013b2:	1d3b      	adds	r3, r7, #4
 80013b4:	2206      	movs	r2, #6
 80013b6:	4619      	mov	r1, r3
 80013b8:	f44f 6010 	mov.w	r0, #2304	@ 0x900
 80013bc:	f7fe ff68 	bl	8000290 <WIZCHIP_READ_BUF>
 80013c0:	f107 0314 	add.w	r3, r7, #20
 80013c4:	2204      	movs	r2, #4
 80013c6:	4619      	mov	r1, r3
 80013c8:	f44f 7080 	mov.w	r0, #256	@ 0x100
 80013cc:	f7fe ff60 	bl	8000290 <WIZCHIP_READ_BUF>
 80013d0:	f107 0310 	add.w	r3, r7, #16
 80013d4:	2204      	movs	r2, #4
 80013d6:	4619      	mov	r1, r3
 80013d8:	f44f 60a0 	mov.w	r0, #1280	@ 0x500
 80013dc:	f7fe ff58 	bl	8000290 <WIZCHIP_READ_BUF>
 80013e0:	f107 030c 	add.w	r3, r7, #12
 80013e4:	2204      	movs	r2, #4
 80013e6:	4619      	mov	r1, r3
 80013e8:	f44f 6070 	mov.w	r0, #3840	@ 0xf00
 80013ec:	f7fe ff50 	bl	8000290 <WIZCHIP_READ_BUF>
 80013f0:	2180      	movs	r1, #128	@ 0x80
 80013f2:	2000      	movs	r0, #0
 80013f4:	f7fe fefe 	bl	80001f4 <WIZCHIP_WRITE>
 80013f8:	2000      	movs	r0, #0
 80013fa:	f7fe feaf 	bl	800015c <WIZCHIP_READ>
 80013fe:	1d3b      	adds	r3, r7, #4
 8001400:	2206      	movs	r2, #6
 8001402:	4619      	mov	r1, r3
 8001404:	f44f 6010 	mov.w	r0, #2304	@ 0x900
 8001408:	f7fe ffa2 	bl	8000350 <WIZCHIP_WRITE_BUF>
 800140c:	f107 0314 	add.w	r3, r7, #20
 8001410:	2204      	movs	r2, #4
 8001412:	4619      	mov	r1, r3
 8001414:	f44f 7080 	mov.w	r0, #256	@ 0x100
 8001418:	f7fe ff9a 	bl	8000350 <WIZCHIP_WRITE_BUF>
 800141c:	f107 0310 	add.w	r3, r7, #16
 8001420:	2204      	movs	r2, #4
 8001422:	4619      	mov	r1, r3
 8001424:	f44f 60a0 	mov.w	r0, #1280	@ 0x500
 8001428:	f7fe ff92 	bl	8000350 <WIZCHIP_WRITE_BUF>
 800142c:	f107 030c 	add.w	r3, r7, #12
 8001430:	2204      	movs	r2, #4
 8001432:	4619      	mov	r1, r3
 8001434:	f44f 6070 	mov.w	r0, #3840	@ 0xf00
 8001438:	f7fe ff8a 	bl	8000350 <WIZCHIP_WRITE_BUF>
 800143c:	bf00      	nop
 800143e:	3718      	adds	r7, #24
 8001440:	46bd      	mov	sp, r7
 8001442:	bd80      	pop	{r7, pc}

08001444 <wizchip_init>:
 8001444:	b580      	push	{r7, lr}
 8001446:	b084      	sub	sp, #16
 8001448:	af00      	add	r7, sp, #0
 800144a:	6078      	str	r0, [r7, #4]
 800144c:	6039      	str	r1, [r7, #0]
 800144e:	2300      	movs	r3, #0
 8001450:	73bb      	strb	r3, [r7, #14]
 8001452:	f7ff ffab 	bl	80013ac <wizchip_sw_reset>
 8001456:	687b      	ldr	r3, [r7, #4]
 8001458:	2b00      	cmp	r3, #0
 800145a:	d03b      	beq.n	80014d4 <wizchip_init+0x90>
 800145c:	2300      	movs	r3, #0
 800145e:	73bb      	strb	r3, [r7, #14]
 8001460:	2300      	movs	r3, #0
 8001462:	73fb      	strb	r3, [r7, #15]
 8001464:	e015      	b.n	8001492 <wizchip_init+0x4e>
 8001466:	f997 300f 	ldrsb.w	r3, [r7, #15]
 800146a:	687a      	ldr	r2, [r7, #4]
 800146c:	4413      	add	r3, r2
 800146e:	781a      	ldrb	r2, [r3, #0]
 8001470:	7bbb      	ldrb	r3, [r7, #14]
 8001472:	4413      	add	r3, r2
 8001474:	b2db      	uxtb	r3, r3
 8001476:	73bb      	strb	r3, [r7, #14]
 8001478:	f997 300e 	ldrsb.w	r3, [r7, #14]
 800147c:	2b10      	cmp	r3, #16
 800147e:	dd02      	ble.n	8001486 <wizchip_init+0x42>
 8001480:	f04f 33ff 	mov.w	r3, #4294967295
 8001484:	e066      	b.n	8001554 <wizchip_init+0x110>
 8001486:	f997 300f 	ldrsb.w	r3, [r7, #15]
 800148a:	b2db      	uxtb	r3, r3
 800148c:	3301      	adds	r3, #1
 800148e:	b2db      	uxtb	r3, r3
 8001490:	73fb      	strb	r3, [r7, #15]
 8001492:	f997 300f 	ldrsb.w	r3, [r7, #15]
 8001496:	2b07      	cmp	r3, #7
 8001498:	dde5      	ble.n	8001466 <wizchip_init+0x22>
 800149a:	2300      	movs	r3, #0
 800149c:	73fb      	strb	r3, [r7, #15]
 800149e:	e015      	b.n	80014cc <wizchip_init+0x88>
 80014a0:	f997 300f 	ldrsb.w	r3, [r7, #15]
 80014a4:	009b      	lsls	r3, r3, #2
 80014a6:	3301      	adds	r3, #1
 80014a8:	00db      	lsls	r3, r3, #3
 80014aa:	f503 53f8 	add.w	r3, r3, #7936	@ 0x1f00
 80014ae:	4618      	mov	r0, r3
 80014b0:	f997 300f 	ldrsb.w	r3, [r7, #15]
 80014b4:	687a      	ldr	r2, [r7, #4]
 80014b6:	4413      	add	r3, r2
 80014b8:	781b      	ldrb	r3, [r3, #0]
 80014ba:	4619      	mov	r1, r3
 80014bc:	f7fe fe9a 	bl	80001f4 <WIZCHIP_WRITE>
 80014c0:	f997 300f 	ldrsb.w	r3, [r7, #15]
 80014c4:	b2db      	uxtb	r3, r3
 80014c6:	3301      	adds	r3, #1
 80014c8:	b2db      	uxtb	r3, r3
 80014ca:	73fb      	strb	r3, [r7, #15]
 80014cc:	f997 300f 	ldrsb.w	r3, [r7, #15]
 80014d0:	2b07      	cmp	r3, #7
 80014d2:	dde5      	ble.n	80014a0 <wizchip_init+0x5c>
 80014d4:	683b      	ldr	r3, [r7, #0]
 80014d6:	2b00      	cmp	r3, #0
 80014d8:	d03b      	beq.n	8001552 <wizchip_init+0x10e>
 80014da:	2300      	movs	r3, #0
 80014dc:	73bb      	strb	r3, [r7, #14]
 80014de:	2300      	movs	r3, #0
 80014e0:	73fb      	strb	r3, [r7, #15]
 80014e2:	e015      	b.n	8001510 <wizchip_init+0xcc>
 80014e4:	f997 300f 	ldrsb.w	r3, [r7, #15]
 80014e8:	683a      	ldr	r2, [r7, #0]
 80014ea:	4413      	add	r3, r2
 80014ec:	781a      	ldrb	r2, [r3, #0]
 80014ee:	7bbb      	ldrb	r3, [r7, #14]
 80014f0:	4413      	add	r3, r2
 80014f2:	b2db      	uxtb	r3, r3
 80014f4:	73bb      	strb	r3, [r7, #14]
 80014f6:	f997 300e 	ldrsb.w	r3, [r7, #14]
 80014fa:	2b10      	cmp	r3, #16
 80014fc:	dd02      	ble.n	8001504 <wizchip_init+0xc0>
 80014fe:	f04f 33ff 	mov.w	r3, #4294967295
 8001502:	e027      	b.n	8001554 <wizchip_init+0x110>
 8001504:	f997 300f 	ldrsb.w	r3, [r7, #15]
 8001508:	b2db      	uxtb	r3, r3
 800150a:	3301      	adds	r3, #1
 800150c:	b2db      	uxtb	r3, r3
 800150e:	73fb      	strb	r3, [r7, #15]
 8001510:	f997 300f 	ldrsb.w	r3, [r7, #15]
 8001514:	2b07      	cmp	r3, #7
 8001516:	dde5      	ble.n	80014e4 <wizchip_init+0xa0>
 8001518:	2300      	movs	r3, #0
 800151a:	73fb      	strb	r3, [r7, #15]
 800151c:	e015      	b.n	800154a <wizchip_init+0x106>
 800151e:	f997 300f 	ldrsb.w	r3, [r7, #15]
 8001522:	009b      	lsls	r3, r3, #2
 8001524:	3301      	adds	r3, #1
 8001526:	00db      	lsls	r3, r3, #3
 8001528:	f503 53f0 	add.w	r3, r3, #7680	@ 0x1e00
 800152c:	4618      	mov	r0, r3
 800152e:	f997 300f 	ldrsb.w	r3, [r7, #15]
 8001532:	683a      	ldr	r2, [r7, #0]
 8001534:	4413      	add	r3, r2
 8001536:	781b      	ldrb	r3, [r3, #0]
 8001538:	4619      	mov	r1, r3
 800153a:	f7fe fe5b 	bl	80001f4 <WIZCHIP_WRITE>
 800153e:	f997 300f 	ldrsb.w	r3, [r7, #15]
 8001542:	b2db      	uxtb	r3, r3
 8001544:	3301      	adds	r3, #1
 8001546:	b2db      	uxtb	r3, r3
 8001548:	73fb      	strb	r3, [r7, #15]
 800154a:	f997 300f 	ldrsb.w	r3, [r7, #15]
 800154e:	2b07      	cmp	r3, #7
 8001550:	dde5      	ble.n	800151e <wizchip_init+0xda>
 8001552:	2300      	movs	r3, #0
 8001554:	4618      	mov	r0, r3
 8001556:	3710      	adds	r7, #16
 8001558:	46bd      	mov	sp, r7
 800155a:	bd80      	pop	{r7, pc}

0800155c <wizchip_clrinterrupt>:
 800155c:	b580      	push	{r7, lr}
 800155e:	b084      	sub	sp, #16
 8001560:	af00      	add	r7, sp, #0
 8001562:	4603      	mov	r3, r0
 8001564:	80fb      	strh	r3, [r7, #6]
 8001566:	88fb      	ldrh	r3, [r7, #6]
 8001568:	73fb      	strb	r3, [r7, #15]
 800156a:	88fb      	ldrh	r3, [r7, #6]
 800156c:	0a1b      	lsrs	r3, r3, #8
 800156e:	b29b      	uxth	r3, r3
 8001570:	73bb      	strb	r3, [r7, #14]
 8001572:	7bfb      	ldrb	r3, [r7, #15]
 8001574:	f023 030f 	bic.w	r3, r3, #15
 8001578:	b2db      	uxtb	r3, r3
 800157a:	4619      	mov	r1, r3
 800157c:	f44f 50a8 	mov.w	r0, #5376	@ 0x1500
 8001580:	f7fe fe38 	bl	80001f4 <WIZCHIP_WRITE>
 8001584:	2300      	movs	r3, #0
 8001586:	73fb      	strb	r3, [r7, #15]
 8001588:	e014      	b.n	80015b4 <wizchip_clrinterrupt+0x58>
 800158a:	7bba      	ldrb	r2, [r7, #14]
 800158c:	7bfb      	ldrb	r3, [r7, #15]
 800158e:	fa42 f303 	asr.w	r3, r2, r3
 8001592:	f003 0301 	and.w	r3, r3, #1
 8001596:	2b00      	cmp	r3, #0
 8001598:	d009      	beq.n	80015ae <wizchip_clrinterrupt+0x52>
 800159a:	7bfb      	ldrb	r3, [r7, #15]
 800159c:	009b      	lsls	r3, r3, #2
 800159e:	3301      	adds	r3, #1
 80015a0:	00db      	lsls	r3, r3, #3
 80015a2:	f503 7300 	add.w	r3, r3, #512	@ 0x200
 80015a6:	211f      	movs	r1, #31
 80015a8:	4618      	mov	r0, r3
 80015aa:	f7fe fe23 	bl	80001f4 <WIZCHIP_WRITE>
 80015ae:	7bfb      	ldrb	r3, [r7, #15]
 80015b0:	3301      	adds	r3, #1
 80015b2:	73fb      	strb	r3, [r7, #15]
 80015b4:	7bfb      	ldrb	r3, [r7, #15]
 80015b6:	2b07      	cmp	r3, #7
 80015b8:	d9e7      	bls.n	800158a <wizchip_clrinterrupt+0x2e>
 80015ba:	bf00      	nop
 80015bc:	bf00      	nop
 80015be:	3710      	adds	r7, #16
 80015c0:	46bd      	mov	sp, r7
 80015c2:	bd80      	pop	{r7, pc}

080015c4 <wizchip_getinterrupt>:
 80015c4:	b580      	push	{r7, lr}
 80015c6:	b082      	sub	sp, #8
 80015c8:	af00      	add	r7, sp, #0
 80015ca:	2300      	movs	r3, #0
 80015cc:	71fb      	strb	r3, [r7, #7]
 80015ce:	2300      	movs	r3, #0
 80015d0:	71bb      	strb	r3, [r7, #6]
 80015d2:	2300      	movs	r3, #0
 80015d4:	80bb      	strh	r3, [r7, #4]
 80015d6:	f44f 50a8 	mov.w	r0, #5376	@ 0x1500
 80015da:	f7fe fdbf 	bl	800015c <WIZCHIP_READ>
 80015de:	4603      	mov	r3, r0
 80015e0:	f023 030f 	bic.w	r3, r3, #15
 80015e4:	71fb      	strb	r3, [r7, #7]
 80015e6:	f44f 50b8 	mov.w	r0, #5888	@ 0x1700
 80015ea:	f7fe fdb7 	bl	800015c <WIZCHIP_READ>
 80015ee:	4603      	mov	r3, r0
 80015f0:	71bb      	strb	r3, [r7, #6]
 80015f2:	79bb      	ldrb	r3, [r7, #6]
 80015f4:	80bb      	strh	r3, [r7, #4]
 80015f6:	88bb      	ldrh	r3, [r7, #4]
 80015f8:	021b      	lsls	r3, r3, #8
 80015fa:	b29a      	uxth	r2, r3
 80015fc:	79fb      	ldrb	r3, [r7, #7]
 80015fe:	b29b      	uxth	r3, r3
 8001600:	4413      	add	r3, r2
 8001602:	80bb      	strh	r3, [r7, #4]
 8001604:	88bb      	ldrh	r3, [r7, #4]
 8001606:	4618      	mov	r0, r3
 8001608:	3708      	adds	r7, #8
 800160a:	46bd      	mov	sp, r7
 800160c:	bd80      	pop	{r7, pc}

0800160e <wizchip_setinterruptmask>:
 800160e:	b580      	push	{r7, lr}
 8001610:	b084      	sub	sp, #16
 8001612:	af00      	add	r7, sp, #0
 8001614:	4603      	mov	r3, r0
 8001616:	80fb      	strh	r3, [r7, #6]
 8001618:	88fb      	ldrh	r3, [r7, #6]
 800161a:	73fb      	strb	r3, [r7, #15]
 800161c:	88fb      	ldrh	r3, [r7, #6]
 800161e:	0a1b      	lsrs	r3, r3, #8
 8001620:	b29b      	uxth	r3, r3
 8001622:	73bb      	strb	r3, [r7, #14]
 8001624:	7bfb      	ldrb	r3, [r7, #15]
 8001626:	4619      	mov	r1, r3
 8001628:	f44f 50b0 	mov.w	r0, #5632	@ 0x1600
 800162c:	f7fe fde2 	bl	80001f4 <WIZCHIP_WRITE>
 8001630:	7bbb      	ldrb	r3, [r7, #14]
 8001632:	4619      	mov	r1, r3
 8001634:	f44f 50c0 	mov.w	r0, #6144	@ 0x1800
 8001638:	f7fe fddc 	bl	80001f4 <WIZCHIP_WRITE>
 800163c:	bf00      	nop
 800163e:	3710      	adds	r7, #16
 8001640:	46bd      	mov	sp, r7
 8001642:	bd80      	pop	{r7, pc}

08001644 <wizchip_getinterruptmask>:
 8001644:	b580      	push	{r7, lr}
 8001646:	b082      	sub	sp, #8
 8001648:	af00      	add	r7, sp, #0
 800164a:	2300      	movs	r3, #0
 800164c:	71fb      	strb	r3, [r7, #7]
 800164e:	2300      	movs	r3, #0
 8001650:	71bb      	strb	r3, [r7, #6]
 8001652:	2300      	movs	r3, #0
 8001654:	80bb      	strh	r3, [r7, #4]
 8001656:	f44f 50b0 	mov.w	r0, #5632	@ 0x1600
 800165a:	f7fe fd7f 	bl	800015c <WIZCHIP_READ>
 800165e:	4603      	mov	r3, r0
 8001660:	71fb      	strb	r3, [r7, #7]
 8001662:	f44f 50c0 	mov.w	r0, #6144	@ 0x1800
 8001666:	f7fe fd79 	bl	800015c <WIZCHIP_READ>
 800166a:	4603      	mov	r3, r0
 800166c:	71bb      	strb	r3, [r7, #6]
 800166e:	79bb      	ldrb	r3, [r7, #6]
 8001670:	80bb      	strh	r3, [r7, #4]
 8001672:	88bb      	ldrh	r3, [r7, #4]
 8001674:	021b      	lsls	r3, r3, #8
 8001676:	b29a      	uxth	r2, r3
 8001678:	79fb      	ldrb	r3, [r7, #7]
 800167a:	b29b      	uxth	r3, r3
 800167c:	4413      	add	r3, r2
 800167e:	80bb      	strh	r3, [r7, #4]
 8001680:	88bb      	ldrh	r3, [r7, #4]
 8001682:	4618      	mov	r0, r3
 8001684:	3708      	adds	r7, #8
 8001686:	46bd      	mov	sp, r7
 8001688:	bd80      	pop	{r7, pc}

0800168a <wizphy_getphylink>:
 800168a:	b580      	push	{r7, lr}
 800168c:	b082      	sub	sp, #8
 800168e:	af00      	add	r7, sp, #0
 8001690:	2300      	movs	r3, #0
 8001692:	71fb      	strb	r3, [r7, #7]
 8001694:	f44f 5038 	mov.w	r0, #11776	@ 0x2e00
 8001698:	f7fe fd60 	bl	800015c <WIZCHIP_READ>
 800169c:	4603      	mov	r3, r0
 800169e:	f003 0301 	and.w	r3, r3, #1
 80016a2:	2b00      	cmp	r3, #0
 80016a4:	d001      	beq.n	80016aa <wizphy_getphylink+0x20>
 80016a6:	2301      	movs	r3, #1
 80016a8:	71fb      	strb	r3, [r7, #7]
 80016aa:	f997 3007 	ldrsb.w	r3, [r7, #7]
 80016ae:	4618      	mov	r0, r3
 80016b0:	3708      	adds	r7, #8
 80016b2:	46bd      	mov	sp, r7
 80016b4:	bd80      	pop	{r7, pc}

080016b6 <wizphy_getphypmode>:
 80016b6:	b580      	push	{r7, lr}
 80016b8:	b082      	sub	sp, #8
 80016ba:	af00      	add	r7, sp, #0
 80016bc:	2300      	movs	r3, #0
 80016be:	71fb      	strb	r3, [r7, #7]
 80016c0:	f44f 5038 	mov.w	r0, #11776	@ 0x2e00
 80016c4:	f7fe fd4a 	bl	800015c <WIZCHIP_READ>
 80016c8:	4603      	mov	r3, r0
 80016ca:	f003 0338 	and.w	r3, r3, #56	@ 0x38
 80016ce:	2b30      	cmp	r3, #48	@ 0x30
 80016d0:	d102      	bne.n	80016d8 <wizphy_getphypmode+0x22>
 80016d2:	2301      	movs	r3, #1
 80016d4:	71fb      	strb	r3, [r7, #7]
 80016d6:	e001      	b.n	80016dc <wizphy_getphypmode+0x26>
 80016d8:	2300      	movs	r3, #0
 80016da:	71fb      	strb	r3, [r7, #7]
 80016dc:	f997 3007 	ldrsb.w	r3, [r7, #7]
 80016e0:	4618      	mov	r0, r3
 80016e2:	3708      	adds	r7, #8
 80016e4:	46bd      	mov	sp, r7
 80016e6:	bd80      	pop	{r7, pc}

080016e8 <wizphy_reset>:
 80016e8:	b580      	push	{r7, lr}
 80016ea:	b082      	sub	sp, #8
 80016ec:	af00      	add	r7, sp, #0
 80016ee:	f44f 5038 	mov.w	r0, #11776	@ 0x2e00
 80016f2:	f7fe fd33 	bl	800015c <WIZCHIP_READ>
 80016f6:	4603      	mov	r3, r0
 80016f8:	71fb      	strb	r3, [r7, #7]
 80016fa:	79fb      	ldrb	r3, [r7, #7]
 80016fc:	f003 037f 	and.w	r3, r3, #127	@ 0x7f
 8001700:	71fb      	strb	r3, [r7, #7]
 8001702:	79fb      	ldrb	r3, [r7, #7]
 8001704:	4619      	mov	r1, r3
 8001706:	f44f 5038 	mov.w	r0, #11776	@ 0x2e00
 800170a:	f7fe fd73 	bl	80001f4 <WIZCHIP_WRITE>
 800170e:	f44f 5038 	mov.w	r0, #11776	@ 0x2e00
 8001712:	f7fe fd23 	bl	800015c <WIZCHIP_READ>
 8001716:	4603      	mov	r3, r0
 8001718:	71fb      	strb	r3, [r7, #7]
 800171a:	79fb      	ldrb	r3, [r7, #7]
 800171c:	f063 037f 	orn	r3, r3, #127	@ 0x7f
 8001720:	71fb      	strb	r3, [r7, #7]
 8001722:	79fb      	ldrb	r3, [r7, #7]
 8001724:	4619      	mov	r1, r3
 8001726:	f44f 5038 	mov.w	r0, #11776	@ 0x2e00
 800172a:	f7fe fd63 	bl	80001f4 <WIZCHIP_WRITE>
 800172e:	bf00      	nop
 8001730:	3708      	adds	r7, #8
 8001732:	46bd      	mov	sp, r7
 8001734:	bd80      	pop	{r7, pc}

08001736 <wizphy_setphyconf>:
 8001736:	b580      	push	{r7, lr}
 8001738:	b084      	sub	sp, #16
 800173a:	af00      	add	r7, sp, #0
 800173c:	6078      	str	r0, [r7, #4]
 800173e:	2300      	movs	r3, #0
 8001740:	73fb      	strb	r3, [r7, #15]
 8001742:	687b      	ldr	r3, [r7, #4]
 8001744:	781b      	ldrb	r3, [r3, #0]
 8001746:	2b01      	cmp	r3, #1
 8001748:	d104      	bne.n	8001754 <wizphy_setphyconf+0x1e>
 800174a:	7bfb      	ldrb	r3, [r7, #15]
 800174c:	f043 0340 	orr.w	r3, r3, #64	@ 0x40
 8001750:	73fb      	strb	r3, [r7, #15]
 8001752:	e003      	b.n	800175c <wizphy_setphyconf+0x26>
 8001754:	7bfb      	ldrb	r3, [r7, #15]
 8001756:	f023 0340 	bic.w	r3, r3, #64	@ 0x40
 800175a:	73fb      	strb	r3, [r7, #15]
 800175c:	687b      	ldr	r3, [r7, #4]
 800175e:	785b      	ldrb	r3, [r3, #1]
 8001760:	2b01      	cmp	r3, #1
 8001762:	d104      	bne.n	800176e <wizphy_setphyconf+0x38>
 8001764:	7bfb      	ldrb	r3, [r7, #15]
 8001766:	f043 0338 	orr.w	r3, r3, #56	@ 0x38
 800176a:	73fb      	strb	r3, [r7, #15]
 800176c:	e019      	b.n	80017a2 <wizphy_setphyconf+0x6c>
 800176e:	687b      	ldr	r3, [r7, #4]
 8001770:	78db      	ldrb	r3, [r3, #3]
 8001772:	2b01      	cmp	r3, #1
 8001774:	d10d      	bne.n	8001792 <wizphy_setphyconf+0x5c>
 8001776:	687b      	ldr	r3, [r7, #4]
 8001778:	789b      	ldrb	r3, [r3, #2]
 800177a:	2b01      	cmp	r3, #1
 800177c:	d104      	bne.n	8001788 <wizphy_setphyconf+0x52>
 800177e:	7bfb      	ldrb	r3, [r7, #15]
 8001780:	f043 0318 	orr.w	r3, r3, #24
 8001784:	73fb      	strb	r3, [r7, #15]
 8001786:	e00c      	b.n	80017a2 <wizphy_setphyconf+0x6c>
 8001788:	7bfb      	ldrb	r3, [r7, #15]
 800178a:	f043 0308 	orr.w	r3, r3, #8
 800178e:	73fb      	strb	r3, [r7, #15]
 8001790:	e007      	b.n	80017a2 <wizphy_setphyconf+0x6c>
 8001792:	687b      	ldr	r3, [r7, #4]
 8001794:	789b      	ldrb	r3, [r3, #2]
 8001796:	2b01      	cmp	r3, #1
 8001798:	d103      	bne.n	80017a2 <wizphy_setphyconf+0x6c>
 800179a:	7bfb      	ldrb	r3, [r7, #15]
 800179c:	f043 0310 	orr.w	r3, r3, #16
 80017a0:	73fb      	strb	r3, [r7, #15]
 80017a2:	7bfb      	ldrb	r3, [r7, #15]
 80017a4:	4619      	mov	r1, r3
 80017a6:	f44f 5038 	mov.w	r0, #11776	@ 0x2e00
 80017aa:	f7fe fd23 	bl	80001f4 <WIZCHIP_WRITE>
 80017ae:	f7ff ff9b 	bl	80016e8 <wizphy_reset>
 80017b2:	bf00      	nop
 80017b4:	3710      	adds	r7, #16
 80017b6:	46bd      	mov	sp, r7
 80017b8:	bd80      	pop	{r7, pc}
	...

080017bc <wizphy_getphyconf>:
 80017bc:	b580      	push	{r7, lr}
 80017be:	b084      	sub	sp, #16
 80017c0:	af00      	add	r7, sp, #0
 80017c2:	6078      	str	r0, [r7, #4]
 80017c4:	2300      	movs	r3, #0
 80017c6:	73fb      	strb	r3, [r7, #15]
 80017c8:	f44f 5038 	mov.w	r0, #11776	@ 0x2e00
 80017cc:	f7fe fcc6 	bl	800015c <WIZCHIP_READ>
 80017d0:	4603      	mov	r3, r0
 80017d2:	73fb      	strb	r3, [r7, #15]
 80017d4:	7bfb      	ldrb	r3, [r7, #15]
 80017d6:	119b      	asrs	r3, r3, #6
 80017d8:	b2db      	uxtb	r3, r3
 80017da:	f003 0301 	and.w	r3, r3, #1
 80017de:	b2da      	uxtb	r2, r3
 80017e0:	687b      	ldr	r3, [r7, #4]
 80017e2:	701a      	strb	r2, [r3, #0]
 80017e4:	7bfb      	ldrb	r3, [r7, #15]
 80017e6:	f003 0338 	and.w	r3, r3, #56	@ 0x38
 80017ea:	2b20      	cmp	r3, #32
 80017ec:	d001      	beq.n	80017f2 <wizphy_getphyconf+0x36>
 80017ee:	2b38      	cmp	r3, #56	@ 0x38
 80017f0:	d103      	bne.n	80017fa <wizphy_getphyconf+0x3e>
 80017f2:	687b      	ldr	r3, [r7, #4]
 80017f4:	2201      	movs	r2, #1
 80017f6:	705a      	strb	r2, [r3, #1]
 80017f8:	e003      	b.n	8001802 <wizphy_getphyconf+0x46>
 80017fa:	687b      	ldr	r3, [r7, #4]
 80017fc:	2200      	movs	r2, #0
 80017fe:	705a      	strb	r2, [r3, #1]
 8001800:	bf00      	nop
 8001802:	7bfb      	ldrb	r3, [r7, #15]
 8001804:	f003 0338 	and.w	r3, r3, #56	@ 0x38
 8001808:	3b10      	subs	r3, #16
 800180a:	2b10      	cmp	r3, #16
 800180c:	bf8c      	ite	hi
 800180e:	2201      	movhi	r2, #1
 8001810:	2200      	movls	r2, #0
 8001812:	b2d2      	uxtb	r2, r2
 8001814:	2a00      	cmp	r2, #0
 8001816:	d10f      	bne.n	8001838 <wizphy_getphyconf+0x7c>
 8001818:	4a1b      	ldr	r2, [pc, #108]	@ (8001888 <wizphy_getphyconf+0xcc>)
 800181a:	fa22 f303 	lsr.w	r3, r2, r3
 800181e:	f003 0301 	and.w	r3, r3, #1
 8001822:	2b00      	cmp	r3, #0
 8001824:	bf14      	ite	ne
 8001826:	2301      	movne	r3, #1
 8001828:	2300      	moveq	r3, #0
 800182a:	b2db      	uxtb	r3, r3
 800182c:	2b00      	cmp	r3, #0
 800182e:	d003      	beq.n	8001838 <wizphy_getphyconf+0x7c>
 8001830:	687b      	ldr	r3, [r7, #4]
 8001832:	2201      	movs	r2, #1
 8001834:	709a      	strb	r2, [r3, #2]
 8001836:	e003      	b.n	8001840 <wizphy_getphyconf+0x84>
 8001838:	687b      	ldr	r3, [r7, #4]
 800183a:	2200      	movs	r2, #0
 800183c:	709a      	strb	r2, [r3, #2]
 800183e:	bf00      	nop
 8001840:	7bfb      	ldrb	r3, [r7, #15]
 8001842:	f003 0338 	and.w	r3, r3, #56	@ 0x38
 8001846:	3b08      	subs	r3, #8
 8001848:	2b18      	cmp	r3, #24
 800184a:	bf8c      	ite	hi
 800184c:	2201      	movhi	r2, #1
 800184e:	2200      	movls	r2, #0
 8001850:	b2d2      	uxtb	r2, r2
 8001852:	2a00      	cmp	r2, #0
 8001854:	d10f      	bne.n	8001876 <wizphy_getphyconf+0xba>
 8001856:	4a0d      	ldr	r2, [pc, #52]	@ (800188c <wizphy_getphyconf+0xd0>)
 8001858:	fa22 f303 	lsr.w	r3, r2, r3
 800185c:	f003 0301 	and.w	r3, r3, #1
 8001860:	2b00      	cmp	r3, #0
 8001862:	bf14      	ite	ne
 8001864:	2301      	movne	r3, #1
 8001866:	2300      	moveq	r3, #0
 8001868:	b2db      	uxtb	r3, r3
 800186a:	2b00      	cmp	r3, #0
 800186c:	d003      	beq.n	8001876 <wizphy_getphyconf+0xba>
 800186e:	687b      	ldr	r3, [r7, #4]
 8001870:	2201      	movs	r2, #1
 8001872:	70da      	strb	r2, [r3, #3]
 8001874:	e003      	b.n	800187e <wizphy_getphyconf+0xc2>
 8001876:	687b      	ldr	r3, [r7, #4]
 8001878:	2200      	movs	r2, #0
 800187a:	70da      	strb	r2, [r3, #3]
 800187c:	bf00      	nop
 800187e:	bf00      	nop
 8001880:	3710      	adds	r7, #16
 8001882:	46bd      	mov	sp, r7
 8001884:	bd80      	pop	{r7, pc}
 8001886:	bf00      	nop
 8001888:	00010101 	.word	0x00010101
 800188c:	01010001 	.word	0x01010001

08001890 <wizphy_setphypmode>:
 8001890:	b580      	push	{r7, lr}
 8001892:	b084      	sub	sp, #16
 8001894:	af00      	add	r7, sp, #0
 8001896:	4603      	mov	r3, r0
 8001898:	71fb      	strb	r3, [r7, #7]
 800189a:	2300      	movs	r3, #0
 800189c:	73fb      	strb	r3, [r7, #15]
 800189e:	f44f 5038 	mov.w	r0, #11776	@ 0x2e00
 80018a2:	f7fe fc5b 	bl	800015c <WIZCHIP_READ>
 80018a6:	4603      	mov	r3, r0
 80018a8:	73fb      	strb	r3, [r7, #15]
 80018aa:	7bfb      	ldrb	r3, [r7, #15]
 80018ac:	f003 0340 	and.w	r3, r3, #64	@ 0x40
 80018b0:	2b00      	cmp	r3, #0
 80018b2:	d102      	bne.n	80018ba <wizphy_setphypmode+0x2a>
 80018b4:	f04f 33ff 	mov.w	r3, #4294967295
 80018b8:	e030      	b.n	800191c <wizphy_setphypmode+0x8c>
 80018ba:	7bfb      	ldrb	r3, [r7, #15]
 80018bc:	f023 0338 	bic.w	r3, r3, #56	@ 0x38
 80018c0:	73fb      	strb	r3, [r7, #15]
 80018c2:	79fb      	ldrb	r3, [r7, #7]
 80018c4:	2b01      	cmp	r3, #1
 80018c6:	d104      	bne.n	80018d2 <wizphy_setphypmode+0x42>
 80018c8:	7bfb      	ldrb	r3, [r7, #15]
 80018ca:	f043 0330 	orr.w	r3, r3, #48	@ 0x30
 80018ce:	73fb      	strb	r3, [r7, #15]
 80018d0:	e003      	b.n	80018da <wizphy_setphypmode+0x4a>
 80018d2:	7bfb      	ldrb	r3, [r7, #15]
 80018d4:	f043 0338 	orr.w	r3, r3, #56	@ 0x38
 80018d8:	73fb      	strb	r3, [r7, #15]
 80018da:	7bfb      	ldrb	r3, [r7, #15]
 80018dc:	4619      	mov	r1, r3
 80018de:	f44f 5038 	mov.w	r0, #11776	@ 0x2e00
 80018e2:	f7fe fc87 	bl	80001f4 <WIZCHIP_WRITE>
 80018e6:	f7ff feff 	bl	80016e8 <wizphy_reset>
 80018ea:	f44f 5038 	mov.w	r0, #11776	@ 0x2e00
 80018ee:	f7fe fc35 	bl	800015c <WIZCHIP_READ>
 80018f2:	4603      	mov	r3, r0
 80018f4:	73fb      	strb	r3, [r7, #15]
 80018f6:	79fb      	ldrb	r3, [r7, #7]
 80018f8:	2b01      	cmp	r3, #1
 80018fa:	d106      	bne.n	800190a <wizphy_setphypmode+0x7a>
 80018fc:	7bfb      	ldrb	r3, [r7, #15]
 80018fe:	f003 0330 	and.w	r3, r3, #48	@ 0x30
 8001902:	2b00      	cmp	r3, #0
 8001904:	d008      	beq.n	8001918 <wizphy_setphypmode+0x88>
 8001906:	2300      	movs	r3, #0
 8001908:	e008      	b.n	800191c <wizphy_setphypmode+0x8c>
 800190a:	7bfb      	ldrb	r3, [r7, #15]
 800190c:	f003 0338 	and.w	r3, r3, #56	@ 0x38
 8001910:	2b00      	cmp	r3, #0
 8001912:	d001      	beq.n	8001918 <wizphy_setphypmode+0x88>
 8001914:	2300      	movs	r3, #0
 8001916:	e001      	b.n	800191c <wizphy_setphypmode+0x8c>
 8001918:	f04f 33ff 	mov.w	r3, #4294967295
 800191c:	4618      	mov	r0, r3
 800191e:	3710      	adds	r7, #16
 8001920:	46bd      	mov	sp, r7
 8001922:	bd80      	pop	{r7, pc}

08001924 <wizchip_setnetinfo>:
 8001924:	b580      	push	{r7, lr}
 8001926:	b082      	sub	sp, #8
 8001928:	af00      	add	r7, sp, #0
 800192a:	6078      	str	r0, [r7, #4]
 800192c:	687b      	ldr	r3, [r7, #4]
 800192e:	2206      	movs	r2, #6
 8001930:	4619      	mov	r1, r3
 8001932:	f44f 6010 	mov.w	r0, #2304	@ 0x900
 8001936:	f7fe fd0b 	bl	8000350 <WIZCHIP_WRITE_BUF>
 800193a:	687b      	ldr	r3, [r7, #4]
 800193c:	330e      	adds	r3, #14
 800193e:	2204      	movs	r2, #4
 8001940:	4619      	mov	r1, r3
 8001942:	f44f 7080 	mov.w	r0, #256	@ 0x100
 8001946:	f7fe fd03 	bl	8000350 <WIZCHIP_WRITE_BUF>
 800194a:	687b      	ldr	r3, [r7, #4]
 800194c:	330a      	adds	r3, #10
 800194e:	2204      	movs	r2, #4
 8001950:	4619      	mov	r1, r3
 8001952:	f44f 60a0 	mov.w	r0, #1280	@ 0x500
 8001956:	f7fe fcfb 	bl	8000350 <WIZCHIP_WRITE_BUF>
 800195a:	687b      	ldr	r3, [r7, #4]
 800195c:	3306      	adds	r3, #6
 800195e:	2204      	movs	r2, #4
 8001960:	4619      	mov	r1, r3
 8001962:	f44f 6070 	mov.w	r0, #3840	@ 0xf00
 8001966:	f7fe fcf3 	bl	8000350 <WIZCHIP_WRITE_BUF>
 800196a:	687b      	ldr	r3, [r7, #4]
 800196c:	7c9a      	ldrb	r2, [r3, #18]
 800196e:	4b0b      	ldr	r3, [pc, #44]	@ (800199c <wizchip_setnetinfo+0x78>)
 8001970:	701a      	strb	r2, [r3, #0]
 8001972:	687b      	ldr	r3, [r7, #4]
 8001974:	7cda      	ldrb	r2, [r3, #19]
 8001976:	4b09      	ldr	r3, [pc, #36]	@ (800199c <wizchip_setnetinfo+0x78>)
 8001978:	705a      	strb	r2, [r3, #1]
 800197a:	687b      	ldr	r3, [r7, #4]
 800197c:	7d1a      	ldrb	r2, [r3, #20]
 800197e:	4b07      	ldr	r3, [pc, #28]	@ (800199c <wizchip_setnetinfo+0x78>)
 8001980:	709a      	strb	r2, [r3, #2]
 8001982:	687b      	ldr	r3, [r7, #4]
 8001984:	7d5a      	ldrb	r2, [r3, #21]
 8001986:	4b05      	ldr	r3, [pc, #20]	@ (800199c <wizchip_setnetinfo+0x78>)
 8001988:	70da      	strb	r2, [r3, #3]
 800198a:	687b      	ldr	r3, [r7, #4]
 800198c:	7d9a      	ldrb	r2, [r3, #22]
 800198e:	4b04      	ldr	r3, [pc, #16]	@ (80019a0 <wizchip_setnetinfo+0x7c>)
 8001990:	701a      	strb	r2, [r3, #0]
 8001992:	bf00      	nop
 8001994:	3708      	adds	r7, #8
 8001996:	46bd      	mov	sp, r7
 8001998:	bd80      	pop	{r7, pc}
 800199a:	bf00      	nop
 800199c:	20000084 	.word	0x20000084
 80019a0:	20000088 	.word	0x20000088

080019a4 <csLOW>:
 80019a4:	b580      	push	{r7, lr}
 80019a6:	af00      	add	r7, sp, #0
 80019a8:	2200      	movs	r2, #0
 80019aa:	f44f 5180 	mov.w	r1, #4096	@ 0x1000
 80019ae:	4802      	ldr	r0, [pc, #8]	@ (80019b8 <csLOW+0x14>)
 80019b0:	f005 f8a5 	bl	8006afe <HAL_GPIO_WritePin>
 80019b4:	bf00      	nop
 80019b6:	bd80      	pop	{r7, pc}
 80019b8:	40010c00 	.word	0x40010c00

080019bc <csHIGH>:
 80019bc:	b580      	push	{r7, lr}
 80019be:	af00      	add	r7, sp, #0
 80019c0:	2201      	movs	r2, #1
 80019c2:	f44f 5180 	mov.w	r1, #4096	@ 0x1000
 80019c6:	4802      	ldr	r0, [pc, #8]	@ (80019d0 <csHIGH+0x14>)
 80019c8:	f005 f899 	bl	8006afe <HAL_GPIO_WritePin>
 80019cc:	bf00      	nop
 80019ce:	bd80      	pop	{r7, pc}
 80019d0:	40010c00 	.word	0x40010c00

080019d4 <W25Q_delay>:
 80019d4:	b580      	push	{r7, lr}
 80019d6:	b082      	sub	sp, #8
 80019d8:	af00      	add	r7, sp, #0
 80019da:	6078      	str	r0, [r7, #4]
 80019dc:	6878      	ldr	r0, [r7, #4]
 80019de:	f003 fa2f 	bl	8004e40 <HAL_Delay>
 80019e2:	bf00      	nop
 80019e4:	3708      	adds	r7, #8
 80019e6:	46bd      	mov	sp, r7
 80019e8:	bd80      	pop	{r7, pc}
	...

080019ec <SPI_Write>:
 80019ec:	b580      	push	{r7, lr}
 80019ee:	b082      	sub	sp, #8
 80019f0:	af00      	add	r7, sp, #0
 80019f2:	6078      	str	r0, [r7, #4]
 80019f4:	460b      	mov	r3, r1
 80019f6:	807b      	strh	r3, [r7, #2]
 80019f8:	887a      	ldrh	r2, [r7, #2]
 80019fa:	f44f 63fa 	mov.w	r3, #2000	@ 0x7d0
 80019fe:	6879      	ldr	r1, [r7, #4]
 8001a00:	4803      	ldr	r0, [pc, #12]	@ (8001a10 <SPI_Write+0x24>)
 8001a02:	f005 fdaf 	bl	8007564 <HAL_SPI_Transmit>
 8001a06:	bf00      	nop
 8001a08:	3708      	adds	r7, #8
 8001a0a:	46bd      	mov	sp, r7
 8001a0c:	bd80      	pop	{r7, pc}
 8001a0e:	bf00      	nop
 8001a10:	20000128 	.word	0x20000128

08001a14 <SPI_Read>:
 8001a14:	b580      	push	{r7, lr}
 8001a16:	b082      	sub	sp, #8
 8001a18:	af00      	add	r7, sp, #0
 8001a1a:	6078      	str	r0, [r7, #4]
 8001a1c:	460b      	mov	r3, r1
 8001a1e:	807b      	strh	r3, [r7, #2]
 8001a20:	887a      	ldrh	r2, [r7, #2]
 8001a22:	f241 3388 	movw	r3, #5000	@ 0x1388
 8001a26:	6879      	ldr	r1, [r7, #4]
 8001a28:	4803      	ldr	r0, [pc, #12]	@ (8001a38 <SPI_Read+0x24>)
 8001a2a:	f005 fedf 	bl	80077ec <HAL_SPI_Receive>
 8001a2e:	bf00      	nop
 8001a30:	3708      	adds	r7, #8
 8001a32:	46bd      	mov	sp, r7
 8001a34:	bd80      	pop	{r7, pc}
 8001a36:	bf00      	nop
 8001a38:	20000128 	.word	0x20000128

08001a3c <W25Q_WaitForWriteEnd>:
 8001a3c:	b580      	push	{r7, lr}
 8001a3e:	b082      	sub	sp, #8
 8001a40:	af00      	add	r7, sp, #0
 8001a42:	2305      	movs	r3, #5
 8001a44:	71bb      	strb	r3, [r7, #6]
 8001a46:	2001      	movs	r0, #1
 8001a48:	f7ff ffc4 	bl	80019d4 <W25Q_delay>
 8001a4c:	f7ff ffaa 	bl	80019a4 <csLOW>
 8001a50:	1db9      	adds	r1, r7, #6
 8001a52:	f44f 737a 	mov.w	r3, #1000	@ 0x3e8
 8001a56:	2201      	movs	r2, #1
 8001a58:	480b      	ldr	r0, [pc, #44]	@ (8001a88 <W25Q_WaitForWriteEnd+0x4c>)
 8001a5a:	f005 fd83 	bl	8007564 <HAL_SPI_Transmit>
 8001a5e:	1df9      	adds	r1, r7, #7
 8001a60:	f44f 737a 	mov.w	r3, #1000	@ 0x3e8
 8001a64:	2201      	movs	r2, #1
 8001a66:	4808      	ldr	r0, [pc, #32]	@ (8001a88 <W25Q_WaitForWriteEnd+0x4c>)
 8001a68:	f005 fec0 	bl	80077ec <HAL_SPI_Receive>
 8001a6c:	2001      	movs	r0, #1
 8001a6e:	f7ff ffb1 	bl	80019d4 <W25Q_delay>
 8001a72:	79fb      	ldrb	r3, [r7, #7]
 8001a74:	f003 0301 	and.w	r3, r3, #1
 8001a78:	2b00      	cmp	r3, #0
 8001a7a:	d1f0      	bne.n	8001a5e <W25Q_WaitForWriteEnd+0x22>
 8001a7c:	f7ff ff9e 	bl	80019bc <csHIGH>
 8001a80:	bf00      	nop
 8001a82:	3708      	adds	r7, #8
 8001a84:	46bd      	mov	sp, r7
 8001a86:	bd80      	pop	{r7, pc}
 8001a88:	20000128 	.word	0x20000128

08001a8c <W25Q_Reset>:
 8001a8c:	b580      	push	{r7, lr}
 8001a8e:	b082      	sub	sp, #8
 8001a90:	af00      	add	r7, sp, #0
 8001a92:	2366      	movs	r3, #102	@ 0x66
 8001a94:	713b      	strb	r3, [r7, #4]
 8001a96:	2399      	movs	r3, #153	@ 0x99
 8001a98:	717b      	strb	r3, [r7, #5]
 8001a9a:	f7ff ff83 	bl	80019a4 <csLOW>
 8001a9e:	1d39      	adds	r1, r7, #4
 8001aa0:	f44f 737a 	mov.w	r3, #1000	@ 0x3e8
 8001aa4:	2202      	movs	r2, #2
 8001aa6:	4804      	ldr	r0, [pc, #16]	@ (8001ab8 <W25Q_Reset+0x2c>)
 8001aa8:	f005 fd5c 	bl	8007564 <HAL_SPI_Transmit>
 8001aac:	f7ff ff86 	bl	80019bc <csHIGH>
 8001ab0:	bf00      	nop
 8001ab2:	3708      	adds	r7, #8
 8001ab4:	46bd      	mov	sp, r7
 8001ab6:	bd80      	pop	{r7, pc}
 8001ab8:	20000128 	.word	0x20000128

08001abc <W25Q_FastRead>:
 8001abc:	b580      	push	{r7, lr}
 8001abe:	b088      	sub	sp, #32
 8001ac0:	af00      	add	r7, sp, #0
 8001ac2:	60f8      	str	r0, [r7, #12]
 8001ac4:	607a      	str	r2, [r7, #4]
 8001ac6:	603b      	str	r3, [r7, #0]
 8001ac8:	460b      	mov	r3, r1
 8001aca:	72fb      	strb	r3, [r7, #11]
 8001acc:	68fb      	ldr	r3, [r7, #12]
 8001ace:	021a      	lsls	r2, r3, #8
 8001ad0:	7afb      	ldrb	r3, [r7, #11]
 8001ad2:	4413      	add	r3, r2
 8001ad4:	61fb      	str	r3, [r7, #28]
 8001ad6:	230b      	movs	r3, #11
 8001ad8:	753b      	strb	r3, [r7, #20]
 8001ada:	69fb      	ldr	r3, [r7, #28]
 8001adc:	0c1b      	lsrs	r3, r3, #16
 8001ade:	b2db      	uxtb	r3, r3
 8001ae0:	757b      	strb	r3, [r7, #21]
 8001ae2:	69fb      	ldr	r3, [r7, #28]
 8001ae4:	0a1b      	lsrs	r3, r3, #8
 8001ae6:	b2db      	uxtb	r3, r3
 8001ae8:	75bb      	strb	r3, [r7, #22]
 8001aea:	69fb      	ldr	r3, [r7, #28]
 8001aec:	b2db      	uxtb	r3, r3
 8001aee:	75fb      	strb	r3, [r7, #23]
 8001af0:	2300      	movs	r3, #0
 8001af2:	763b      	strb	r3, [r7, #24]
 8001af4:	f7ff ff56 	bl	80019a4 <csLOW>
 8001af8:	f107 0314 	add.w	r3, r7, #20
 8001afc:	2105      	movs	r1, #5
 8001afe:	4618      	mov	r0, r3
 8001b00:	f7ff ff74 	bl	80019ec <SPI_Write>
 8001b04:	687b      	ldr	r3, [r7, #4]
 8001b06:	b29b      	uxth	r3, r3
 8001b08:	4619      	mov	r1, r3
 8001b0a:	6838      	ldr	r0, [r7, #0]
 8001b0c:	f7ff ff82 	bl	8001a14 <SPI_Read>
 8001b10:	f7ff ff54 	bl	80019bc <csHIGH>
 8001b14:	bf00      	nop
 8001b16:	3720      	adds	r7, #32
 8001b18:	46bd      	mov	sp, r7
 8001b1a:	bd80      	pop	{r7, pc}

08001b1c <W25Q_FastRead_address>:
 8001b1c:	b580      	push	{r7, lr}
 8001b1e:	b086      	sub	sp, #24
 8001b20:	af00      	add	r7, sp, #0
 8001b22:	60f8      	str	r0, [r7, #12]
 8001b24:	60b9      	str	r1, [r7, #8]
 8001b26:	607a      	str	r2, [r7, #4]
 8001b28:	230b      	movs	r3, #11
 8001b2a:	743b      	strb	r3, [r7, #16]
 8001b2c:	68fb      	ldr	r3, [r7, #12]
 8001b2e:	0c1b      	lsrs	r3, r3, #16
 8001b30:	b2db      	uxtb	r3, r3
 8001b32:	747b      	strb	r3, [r7, #17]
 8001b34:	68fb      	ldr	r3, [r7, #12]
 8001b36:	0a1b      	lsrs	r3, r3, #8
 8001b38:	b2db      	uxtb	r3, r3
 8001b3a:	74bb      	strb	r3, [r7, #18]
 8001b3c:	68fb      	ldr	r3, [r7, #12]
 8001b3e:	b2db      	uxtb	r3, r3
 8001b40:	74fb      	strb	r3, [r7, #19]
 8001b42:	2300      	movs	r3, #0
 8001b44:	753b      	strb	r3, [r7, #20]
 8001b46:	f7ff ff2d 	bl	80019a4 <csLOW>
 8001b4a:	f107 0310 	add.w	r3, r7, #16
 8001b4e:	2105      	movs	r1, #5
 8001b50:	4618      	mov	r0, r3
 8001b52:	f7ff ff4b 	bl	80019ec <SPI_Write>
 8001b56:	68bb      	ldr	r3, [r7, #8]
 8001b58:	b29b      	uxth	r3, r3
 8001b5a:	4619      	mov	r1, r3
 8001b5c:	6878      	ldr	r0, [r7, #4]
 8001b5e:	f7ff ff59 	bl	8001a14 <SPI_Read>
 8001b62:	f7ff ff2b 	bl	80019bc <csHIGH>
 8001b66:	bf00      	nop
 8001b68:	3718      	adds	r7, #24
 8001b6a:	46bd      	mov	sp, r7
 8001b6c:	bd80      	pop	{r7, pc}

08001b6e <write_enable>:
 8001b6e:	b580      	push	{r7, lr}
 8001b70:	b082      	sub	sp, #8
 8001b72:	af00      	add	r7, sp, #0
 8001b74:	2306      	movs	r3, #6
 8001b76:	71fb      	strb	r3, [r7, #7]
 8001b78:	f7ff ff14 	bl	80019a4 <csLOW>
 8001b7c:	1dfb      	adds	r3, r7, #7
 8001b7e:	2101      	movs	r1, #1
 8001b80:	4618      	mov	r0, r3
 8001b82:	f7ff ff33 	bl	80019ec <SPI_Write>
 8001b86:	f7ff ff19 	bl	80019bc <csHIGH>
 8001b8a:	2001      	movs	r0, #1
 8001b8c:	f7ff ff22 	bl	80019d4 <W25Q_delay>
 8001b90:	bf00      	nop
 8001b92:	3708      	adds	r7, #8
 8001b94:	46bd      	mov	sp, r7
 8001b96:	bd80      	pop	{r7, pc}

08001b98 <write_disable>:
 8001b98:	b580      	push	{r7, lr}
 8001b9a:	b082      	sub	sp, #8
 8001b9c:	af00      	add	r7, sp, #0
 8001b9e:	2304      	movs	r3, #4
 8001ba0:	71fb      	strb	r3, [r7, #7]
 8001ba2:	f7ff feff 	bl	80019a4 <csLOW>
 8001ba6:	1dfb      	adds	r3, r7, #7
 8001ba8:	2101      	movs	r1, #1
 8001baa:	4618      	mov	r0, r3
 8001bac:	f7ff ff1e 	bl	80019ec <SPI_Write>
 8001bb0:	f7ff ff04 	bl	80019bc <csHIGH>
 8001bb4:	2001      	movs	r0, #1
 8001bb6:	f7ff ff0d 	bl	80019d4 <W25Q_delay>
 8001bba:	bf00      	nop
 8001bbc:	3708      	adds	r7, #8
 8001bbe:	46bd      	mov	sp, r7
 8001bc0:	bd80      	pop	{r7, pc}

08001bc2 <W25Q_EraseChip>:
 8001bc2:	b580      	push	{r7, lr}
 8001bc4:	b082      	sub	sp, #8
 8001bc6:	af00      	add	r7, sp, #0
 8001bc8:	23c7      	movs	r3, #199	@ 0xc7
 8001bca:	71fb      	strb	r3, [r7, #7]
 8001bcc:	f7ff ffcf 	bl	8001b6e <write_enable>
 8001bd0:	f7ff fee8 	bl	80019a4 <csLOW>
 8001bd4:	1dfb      	adds	r3, r7, #7
 8001bd6:	2101      	movs	r1, #1
 8001bd8:	4618      	mov	r0, r3
 8001bda:	f7ff ff07 	bl	80019ec <SPI_Write>
 8001bde:	f7ff feed 	bl	80019bc <csHIGH>
 8001be2:	f7ff ff2b 	bl	8001a3c <W25Q_WaitForWriteEnd>
 8001be6:	2005      	movs	r0, #5
 8001be8:	f7ff fef4 	bl	80019d4 <W25Q_delay>
 8001bec:	bf00      	nop
 8001bee:	3708      	adds	r7, #8
 8001bf0:	46bd      	mov	sp, r7
 8001bf2:	bd80      	pop	{r7, pc}

08001bf4 <W25Q_Erase_Sector>:
 8001bf4:	b580      	push	{r7, lr}
 8001bf6:	b086      	sub	sp, #24
 8001bf8:	af00      	add	r7, sp, #0
 8001bfa:	4603      	mov	r3, r0
 8001bfc:	80fb      	strh	r3, [r7, #6]
 8001bfe:	88fb      	ldrh	r3, [r7, #6]
 8001c00:	031b      	lsls	r3, r3, #12
 8001c02:	617b      	str	r3, [r7, #20]
 8001c04:	f7ff ff1a 	bl	8001a3c <W25Q_WaitForWriteEnd>
 8001c08:	f7ff ffb1 	bl	8001b6e <write_enable>
 8001c0c:	2320      	movs	r3, #32
 8001c0e:	733b      	strb	r3, [r7, #12]
 8001c10:	697b      	ldr	r3, [r7, #20]
 8001c12:	0c1b      	lsrs	r3, r3, #16
 8001c14:	b2db      	uxtb	r3, r3
 8001c16:	737b      	strb	r3, [r7, #13]
 8001c18:	697b      	ldr	r3, [r7, #20]
 8001c1a:	0a1b      	lsrs	r3, r3, #8
 8001c1c:	b2db      	uxtb	r3, r3
 8001c1e:	73bb      	strb	r3, [r7, #14]
 8001c20:	697b      	ldr	r3, [r7, #20]
 8001c22:	b2db      	uxtb	r3, r3
 8001c24:	73fb      	strb	r3, [r7, #15]
 8001c26:	f7ff febd 	bl	80019a4 <csLOW>
 8001c2a:	f107 030c 	add.w	r3, r7, #12
 8001c2e:	2104      	movs	r1, #4
 8001c30:	4618      	mov	r0, r3
 8001c32:	f7ff fedb 	bl	80019ec <SPI_Write>
 8001c36:	f7ff fec1 	bl	80019bc <csHIGH>
 8001c3a:	f7ff feff 	bl	8001a3c <W25Q_WaitForWriteEnd>
 8001c3e:	f7ff ffab 	bl	8001b98 <write_disable>
 8001c42:	bf00      	nop
 8001c44:	3718      	adds	r7, #24
 8001c46:	46bd      	mov	sp, r7
 8001c48:	bd80      	pop	{r7, pc}

08001c4a <W25Q_Read_Byte>:
 8001c4a:	b580      	push	{r7, lr}
 8001c4c:	b086      	sub	sp, #24
 8001c4e:	af00      	add	r7, sp, #0
 8001c50:	6078      	str	r0, [r7, #4]
 8001c52:	2303      	movs	r3, #3
 8001c54:	743b      	strb	r3, [r7, #16]
 8001c56:	687b      	ldr	r3, [r7, #4]
 8001c58:	0c1b      	lsrs	r3, r3, #16
 8001c5a:	b2db      	uxtb	r3, r3
 8001c5c:	747b      	strb	r3, [r7, #17]
 8001c5e:	687b      	ldr	r3, [r7, #4]
 8001c60:	0a1b      	lsrs	r3, r3, #8
 8001c62:	b2db      	uxtb	r3, r3
 8001c64:	74bb      	strb	r3, [r7, #18]
 8001c66:	687b      	ldr	r3, [r7, #4]
 8001c68:	b2db      	uxtb	r3, r3
 8001c6a:	74fb      	strb	r3, [r7, #19]
 8001c6c:	f7ff fe9a 	bl	80019a4 <csLOW>
 8001c70:	f107 0310 	add.w	r3, r7, #16
 8001c74:	2104      	movs	r1, #4
 8001c76:	4618      	mov	r0, r3
 8001c78:	f7ff feb8 	bl	80019ec <SPI_Write>
 8001c7c:	f107 030f 	add.w	r3, r7, #15
 8001c80:	2101      	movs	r1, #1
 8001c82:	4618      	mov	r0, r3
 8001c84:	f7ff fec6 	bl	8001a14 <SPI_Read>
 8001c88:	f7ff fe98 	bl	80019bc <csHIGH>
 8001c8c:	7bfb      	ldrb	r3, [r7, #15]
 8001c8e:	4618      	mov	r0, r3
 8001c90:	3718      	adds	r7, #24
 8001c92:	46bd      	mov	sp, r7
 8001c94:	bd80      	pop	{r7, pc}

08001c96 <W25Q_Write_Nbytes>:
 8001c96:	b580      	push	{r7, lr}
 8001c98:	b0c8      	sub	sp, #288	@ 0x120
 8001c9a:	af00      	add	r7, sp, #0
 8001c9c:	f507 7390 	add.w	r3, r7, #288	@ 0x120
 8001ca0:	f5a3 738a 	sub.w	r3, r3, #276	@ 0x114
 8001ca4:	6018      	str	r0, [r3, #0]
 8001ca6:	f507 7390 	add.w	r3, r7, #288	@ 0x120
 8001caa:	f5a3 738c 	sub.w	r3, r3, #280	@ 0x118
 8001cae:	6019      	str	r1, [r3, #0]
 8001cb0:	f507 7390 	add.w	r3, r7, #288	@ 0x120
 8001cb4:	f5a3 738e 	sub.w	r3, r3, #284	@ 0x11c
 8001cb8:	601a      	str	r2, [r3, #0]
 8001cba:	f507 7390 	add.w	r3, r7, #288	@ 0x120
 8001cbe:	f5a3 7388 	sub.w	r3, r3, #272	@ 0x110
 8001cc2:	2202      	movs	r2, #2
 8001cc4:	701a      	strb	r2, [r3, #0]
 8001cc6:	f507 7390 	add.w	r3, r7, #288	@ 0x120
 8001cca:	f5a3 738a 	sub.w	r3, r3, #276	@ 0x114
 8001cce:	681b      	ldr	r3, [r3, #0]
 8001cd0:	0c1b      	lsrs	r3, r3, #16
 8001cd2:	b2da      	uxtb	r2, r3
 8001cd4:	f507 7390 	add.w	r3, r7, #288	@ 0x120
 8001cd8:	f5a3 7388 	sub.w	r3, r3, #272	@ 0x110
 8001cdc:	705a      	strb	r2, [r3, #1]
 8001cde:	f507 7390 	add.w	r3, r7, #288	@ 0x120
 8001ce2:	f5a3 738a 	sub.w	r3, r3, #276	@ 0x114
 8001ce6:	681b      	ldr	r3, [r3, #0]
 8001ce8:	0a1b      	lsrs	r3, r3, #8
 8001cea:	b2da      	uxtb	r2, r3
 8001cec:	f507 7390 	add.w	r3, r7, #288	@ 0x120
 8001cf0:	f5a3 7388 	sub.w	r3, r3, #272	@ 0x110
 8001cf4:	709a      	strb	r2, [r3, #2]
 8001cf6:	f507 7390 	add.w	r3, r7, #288	@ 0x120
 8001cfa:	f5a3 738a 	sub.w	r3, r3, #276	@ 0x114
 8001cfe:	681b      	ldr	r3, [r3, #0]
 8001d00:	b2da      	uxtb	r2, r3
 8001d02:	f507 7390 	add.w	r3, r7, #288	@ 0x120
 8001d06:	f5a3 7388 	sub.w	r3, r3, #272	@ 0x110
 8001d0a:	70da      	strb	r2, [r3, #3]
 8001d0c:	2304      	movs	r3, #4
 8001d0e:	f887 311f 	strb.w	r3, [r7, #287]	@ 0x11f
 8001d12:	f897 311f 	ldrb.w	r3, [r7, #287]	@ 0x11f
 8001d16:	b29a      	uxth	r2, r3
 8001d18:	f507 7390 	add.w	r3, r7, #288	@ 0x120
 8001d1c:	f5a3 738e 	sub.w	r3, r3, #284	@ 0x11c
 8001d20:	681b      	ldr	r3, [r3, #0]
 8001d22:	b29b      	uxth	r3, r3
 8001d24:	4413      	add	r3, r2
 8001d26:	f8a7 311a 	strh.w	r3, [r7, #282]	@ 0x11a
 8001d2a:	2300      	movs	r3, #0
 8001d2c:	f8a7 311c 	strh.w	r3, [r7, #284]	@ 0x11c
 8001d30:	e018      	b.n	8001d64 <W25Q_Write_Nbytes+0xce>
 8001d32:	f8b7 311c 	ldrh.w	r3, [r7, #284]	@ 0x11c
 8001d36:	f507 7290 	add.w	r2, r7, #288	@ 0x120
 8001d3a:	f5a2 728c 	sub.w	r2, r2, #280	@ 0x118
 8001d3e:	6812      	ldr	r2, [r2, #0]
 8001d40:	441a      	add	r2, r3
 8001d42:	f897 311f 	ldrb.w	r3, [r7, #287]	@ 0x11f
 8001d46:	1c59      	adds	r1, r3, #1
 8001d48:	f887 111f 	strb.w	r1, [r7, #287]	@ 0x11f
 8001d4c:	4619      	mov	r1, r3
 8001d4e:	7812      	ldrb	r2, [r2, #0]
 8001d50:	f507 7390 	add.w	r3, r7, #288	@ 0x120
 8001d54:	f5a3 7388 	sub.w	r3, r3, #272	@ 0x110
 8001d58:	545a      	strb	r2, [r3, r1]
 8001d5a:	f8b7 311c 	ldrh.w	r3, [r7, #284]	@ 0x11c
 8001d5e:	3301      	adds	r3, #1
 8001d60:	f8a7 311c 	strh.w	r3, [r7, #284]	@ 0x11c
 8001d64:	f8b7 311c 	ldrh.w	r3, [r7, #284]	@ 0x11c
 8001d68:	f507 7290 	add.w	r2, r7, #288	@ 0x120
 8001d6c:	f5a2 728e 	sub.w	r2, r2, #284	@ 0x11c
 8001d70:	6812      	ldr	r2, [r2, #0]
 8001d72:	429a      	cmp	r2, r3
 8001d74:	d8dd      	bhi.n	8001d32 <W25Q_Write_Nbytes+0x9c>
 8001d76:	f507 7390 	add.w	r3, r7, #288	@ 0x120
 8001d7a:	f5a3 738a 	sub.w	r3, r3, #276	@ 0x114
 8001d7e:	6818      	ldr	r0, [r3, #0]
 8001d80:	f7ff ff63 	bl	8001c4a <W25Q_Read_Byte>
 8001d84:	4603      	mov	r3, r0
 8001d86:	2bff      	cmp	r3, #255	@ 0xff
 8001d88:	d12b      	bne.n	8001de2 <W25Q_Write_Nbytes+0x14c>
 8001d8a:	f7ff fef0 	bl	8001b6e <write_enable>
 8001d8e:	f8b7 311a 	ldrh.w	r3, [r7, #282]	@ 0x11a
 8001d92:	2bfa      	cmp	r3, #250	@ 0xfa
 8001d94:	d915      	bls.n	8001dc2 <W25Q_Write_Nbytes+0x12c>
 8001d96:	f7ff fe05 	bl	80019a4 <csLOW>
 8001d9a:	f107 0310 	add.w	r3, r7, #16
 8001d9e:	2164      	movs	r1, #100	@ 0x64
 8001da0:	4618      	mov	r0, r3
 8001da2:	f7ff fe23 	bl	80019ec <SPI_Write>
 8001da6:	f107 0310 	add.w	r3, r7, #16
 8001daa:	3364      	adds	r3, #100	@ 0x64
 8001dac:	f8b7 211a 	ldrh.w	r2, [r7, #282]	@ 0x11a
 8001db0:	3a64      	subs	r2, #100	@ 0x64
 8001db2:	b292      	uxth	r2, r2
 8001db4:	4611      	mov	r1, r2
 8001db6:	4618      	mov	r0, r3
 8001db8:	f7ff fe18 	bl	80019ec <SPI_Write>
 8001dbc:	f7ff fdfe 	bl	80019bc <csHIGH>
 8001dc0:	e00b      	b.n	8001dda <W25Q_Write_Nbytes+0x144>
 8001dc2:	f7ff fdef 	bl	80019a4 <csLOW>
 8001dc6:	f8b7 211a 	ldrh.w	r2, [r7, #282]	@ 0x11a
 8001dca:	f107 0310 	add.w	r3, r7, #16
 8001dce:	4611      	mov	r1, r2
 8001dd0:	4618      	mov	r0, r3
 8001dd2:	f7ff fe0b 	bl	80019ec <SPI_Write>
 8001dd6:	f7ff fdf1 	bl	80019bc <csHIGH>
 8001dda:	f7ff fe2f 	bl	8001a3c <W25Q_WaitForWriteEnd>
 8001dde:	f7ff fedb 	bl	8001b98 <write_disable>
 8001de2:	bf00      	nop
 8001de4:	f507 7790 	add.w	r7, r7, #288	@ 0x120
 8001de8:	46bd      	mov	sp, r7
 8001dea:	bd80      	pop	{r7, pc}

08001dec <HAL_UARTEx_RxEventCallback>:
/* USER CODE END PFP */

/* Private user code ---------------------------------------------------------*/
/* USER CODE BEGIN 0 */
void HAL_UARTEx_RxEventCallback(UART_HandleTypeDef *huart, uint16_t Size)
{
 8001dec:	b580      	push	{r7, lr}
 8001dee:	b082      	sub	sp, #8
 8001df0:	af00      	add	r7, sp, #0
 8001df2:	6078      	str	r0, [r7, #4]
 8001df4:	460b      	mov	r3, r1
 8001df6:	807b      	strh	r3, [r7, #2]
	if (huart->Instance == huart1.Instance)
 8001df8:	687b      	ldr	r3, [r7, #4]
 8001dfa:	681a      	ldr	r2, [r3, #0]
 8001dfc:	4b3d      	ldr	r3, [pc, #244]	@ (8001ef4 <HAL_UARTEx_RxEventCallback+0x108>)
 8001dfe:	681b      	ldr	r3, [r3, #0]
 8001e00:	429a      	cmp	r2, r3
 8001e02:	d165      	bne.n	8001ed0 <HAL_UARTEx_RxEventCallback+0xe4>
	{
		heardbit_REB = HAL_GetTick(); // Heard bit from REB
 8001e04:	f003 f812 	bl	8004e2c <HAL_GetTick>
 8001e08:	4603      	mov	r3, r0
 8001e0a:	4a3b      	ldr	r2, [pc, #236]	@ (8001ef8 <HAL_UARTEx_RxEventCallback+0x10c>)
 8001e0c:	6013      	str	r3, [r2, #0]
		switch (uart_data[0])
 8001e0e:	4b3b      	ldr	r3, [pc, #236]	@ (8001efc <HAL_UARTEx_RxEventCallback+0x110>)
 8001e10:	781b      	ldrb	r3, [r3, #0]
 8001e12:	2b43      	cmp	r3, #67	@ 0x43
 8001e14:	d03d      	beq.n	8001e92 <HAL_UARTEx_RxEventCallback+0xa6>
 8001e16:	2b44      	cmp	r3, #68	@ 0x44
 8001e18:	d15a      	bne.n	8001ed0 <HAL_UARTEx_RxEventCallback+0xe4>
		{
		case 0x44: //Data: D
			wcode = uart_data[1]<<24|uart_data[2]<<16|uart_data[3]<<8|uart_data[4];
 8001e1a:	4b38      	ldr	r3, [pc, #224]	@ (8001efc <HAL_UARTEx_RxEventCallback+0x110>)
 8001e1c:	785b      	ldrb	r3, [r3, #1]
 8001e1e:	061a      	lsls	r2, r3, #24
 8001e20:	4b36      	ldr	r3, [pc, #216]	@ (8001efc <HAL_UARTEx_RxEventCallback+0x110>)
 8001e22:	789b      	ldrb	r3, [r3, #2]
 8001e24:	041b      	lsls	r3, r3, #16
 8001e26:	431a      	orrs	r2, r3
 8001e28:	4b34      	ldr	r3, [pc, #208]	@ (8001efc <HAL_UARTEx_RxEventCallback+0x110>)
 8001e2a:	78db      	ldrb	r3, [r3, #3]
 8001e2c:	021b      	lsls	r3, r3, #8
 8001e2e:	4313      	orrs	r3, r2
 8001e30:	4a32      	ldr	r2, [pc, #200]	@ (8001efc <HAL_UARTEx_RxEventCallback+0x110>)
 8001e32:	7912      	ldrb	r2, [r2, #4]
 8001e34:	4313      	orrs	r3, r2
 8001e36:	461a      	mov	r2, r3
 8001e38:	4b31      	ldr	r3, [pc, #196]	@ (8001f00 <HAL_UARTEx_RxEventCallback+0x114>)
 8001e3a:	601a      	str	r2, [r3, #0]
			if (!write_mode && !write_mode_somecard && !write_card_by_hand)
 8001e3c:	4b31      	ldr	r3, [pc, #196]	@ (8001f04 <HAL_UARTEx_RxEventCallback+0x118>)
 8001e3e:	781b      	ldrb	r3, [r3, #0]
 8001e40:	f083 0301 	eor.w	r3, r3, #1
 8001e44:	b2db      	uxtb	r3, r3
 8001e46:	2b00      	cmp	r3, #0
 8001e48:	d01b      	beq.n	8001e82 <HAL_UARTEx_RxEventCallback+0x96>
 8001e4a:	4b2f      	ldr	r3, [pc, #188]	@ (8001f08 <HAL_UARTEx_RxEventCallback+0x11c>)
 8001e4c:	781b      	ldrb	r3, [r3, #0]
 8001e4e:	f083 0301 	eor.w	r3, r3, #1
 8001e52:	b2db      	uxtb	r3, r3
 8001e54:	2b00      	cmp	r3, #0
 8001e56:	d014      	beq.n	8001e82 <HAL_UARTEx_RxEventCallback+0x96>
 8001e58:	4b2c      	ldr	r3, [pc, #176]	@ (8001f0c <HAL_UARTEx_RxEventCallback+0x120>)
 8001e5a:	781b      	ldrb	r3, [r3, #0]
 8001e5c:	f083 0301 	eor.w	r3, r3, #1
 8001e60:	b2db      	uxtb	r3, r3
 8001e62:	2b00      	cmp	r3, #0
 8001e64:	d00d      	beq.n	8001e82 <HAL_UARTEx_RxEventCallback+0x96>
			{
				sendData_eth("D", wcode);
 8001e66:	4b26      	ldr	r3, [pc, #152]	@ (8001f00 <HAL_UARTEx_RxEventCallback+0x114>)
 8001e68:	681b      	ldr	r3, [r3, #0]
 8001e6a:	4619      	mov	r1, r3
 8001e6c:	4828      	ldr	r0, [pc, #160]	@ (8001f10 <HAL_UARTEx_RxEventCallback+0x124>)
 8001e6e:	f001 ff8f 	bl	8003d90 <sendData_eth>
				isSendDataEth = true;
 8001e72:	4b28      	ldr	r3, [pc, #160]	@ (8001f14 <HAL_UARTEx_RxEventCallback+0x128>)
 8001e74:	2201      	movs	r2, #1
 8001e76:	701a      	strb	r2, [r3, #0]
				timeSendDataEth = HAL_GetTick();
 8001e78:	f002 ffd8 	bl	8004e2c <HAL_GetTick>
 8001e7c:	4603      	mov	r3, r0
 8001e7e:	4a26      	ldr	r2, [pc, #152]	@ (8001f18 <HAL_UARTEx_RxEventCallback+0x12c>)
 8001e80:	6013      	str	r3, [r2, #0]
			}
			if (write_card_by_hand)
 8001e82:	4b22      	ldr	r3, [pc, #136]	@ (8001f0c <HAL_UARTEx_RxEventCallback+0x120>)
 8001e84:	781b      	ldrb	r3, [r3, #0]
 8001e86:	2b00      	cmp	r3, #0
 8001e88:	d021      	beq.n	8001ece <HAL_UARTEx_RxEventCallback+0xe2>
			{
				new_wcode = true;
 8001e8a:	4b24      	ldr	r3, [pc, #144]	@ (8001f1c <HAL_UARTEx_RxEventCallback+0x130>)
 8001e8c:	2201      	movs	r2, #1
 8001e8e:	701a      	strb	r2, [r3, #0]
			}
			break;
 8001e90:	e01d      	b.n	8001ece <HAL_UARTEx_RxEventCallback+0xe2>
		case 0x43://Comand: C
//			send_uart_to_REB = true;
			if (send_uart_to_REB)
 8001e92:	4b23      	ldr	r3, [pc, #140]	@ (8001f20 <HAL_UARTEx_RxEventCallback+0x134>)
 8001e94:	781b      	ldrb	r3, [r3, #0]
 8001e96:	2b00      	cmp	r3, #0
 8001e98:	d009      	beq.n	8001eae <HAL_UARTEx_RxEventCallback+0xc2>
			{
				send_uart_to_REB = false;
 8001e9a:	4b21      	ldr	r3, [pc, #132]	@ (8001f20 <HAL_UARTEx_RxEventCallback+0x134>)
 8001e9c:	2200      	movs	r2, #0
 8001e9e:	701a      	strb	r2, [r3, #0]
				sendData_uart("I", send_uart);
 8001ea0:	4b20      	ldr	r3, [pc, #128]	@ (8001f24 <HAL_UARTEx_RxEventCallback+0x138>)
 8001ea2:	781b      	ldrb	r3, [r3, #0]
 8001ea4:	4619      	mov	r1, r3
 8001ea6:	4820      	ldr	r0, [pc, #128]	@ (8001f28 <HAL_UARTEx_RxEventCallback+0x13c>)
 8001ea8:	f002 f8ae 	bl	8004008 <sendData_uart>
 8001eac:	e005      	b.n	8001eba <HAL_UARTEx_RxEventCallback+0xce>
			} else
			{
				sendData_uart("I", uart_bypass);
 8001eae:	4b1f      	ldr	r3, [pc, #124]	@ (8001f2c <HAL_UARTEx_RxEventCallback+0x140>)
 8001eb0:	781b      	ldrb	r3, [r3, #0]
 8001eb2:	4619      	mov	r1, r3
 8001eb4:	481c      	ldr	r0, [pc, #112]	@ (8001f28 <HAL_UARTEx_RxEventCallback+0x13c>)
 8001eb6:	f002 f8a7 	bl	8004008 <sendData_uart>
			}
//			time_send_uart = HAL_GetTick();
			bypass_from_REB = uart_data[4];
 8001eba:	4b10      	ldr	r3, [pc, #64]	@ (8001efc <HAL_UARTEx_RxEventCallback+0x110>)
 8001ebc:	791b      	ldrb	r3, [r3, #4]
 8001ebe:	2b00      	cmp	r3, #0
 8001ec0:	bf14      	ite	ne
 8001ec2:	2301      	movne	r3, #1
 8001ec4:	2300      	moveq	r3, #0
 8001ec6:	b2da      	uxtb	r2, r3
 8001ec8:	4b19      	ldr	r3, [pc, #100]	@ (8001f30 <HAL_UARTEx_RxEventCallback+0x144>)
 8001eca:	701a      	strb	r2, [r3, #0]
			break;
 8001ecc:	e000      	b.n	8001ed0 <HAL_UARTEx_RxEventCallback+0xe4>
			break;
 8001ece:	bf00      	nop
		}
	}
	HAL_UARTEx_ReceiveToIdle_DMA(&huart1, uart_data, 50);
 8001ed0:	2232      	movs	r2, #50	@ 0x32
 8001ed2:	490a      	ldr	r1, [pc, #40]	@ (8001efc <HAL_UARTEx_RxEventCallback+0x110>)
 8001ed4:	4807      	ldr	r0, [pc, #28]	@ (8001ef4 <HAL_UARTEx_RxEventCallback+0x108>)
 8001ed6:	f006 fd22 	bl	800891e <HAL_UARTEx_ReceiveToIdle_DMA>
	__HAL_DMA_DISABLE_IT(&hdma_usart1_rx, DMA_IT_HT);
 8001eda:	4b16      	ldr	r3, [pc, #88]	@ (8001f34 <HAL_UARTEx_RxEventCallback+0x148>)
 8001edc:	681b      	ldr	r3, [r3, #0]
 8001ede:	681a      	ldr	r2, [r3, #0]
 8001ee0:	4b14      	ldr	r3, [pc, #80]	@ (8001f34 <HAL_UARTEx_RxEventCallback+0x148>)
 8001ee2:	681b      	ldr	r3, [r3, #0]
 8001ee4:	f022 0204 	bic.w	r2, r2, #4
 8001ee8:	601a      	str	r2, [r3, #0]
}
 8001eea:	bf00      	nop
 8001eec:	3708      	adds	r7, #8
 8001eee:	46bd      	mov	sp, r7
 8001ef0:	bd80      	pop	{r7, pc}
 8001ef2:	bf00      	nop
 8001ef4:	20000210 	.word	0x20000210
 8001ef8:	200006b4 	.word	0x200006b4
 8001efc:	200002d0 	.word	0x200002d0
 8001f00:	2000058c 	.word	0x2000058c
 8001f04:	20000723 	.word	0x20000723
 8001f08:	20000722 	.word	0x20000722
 8001f0c:	2000072b 	.word	0x2000072b
 8001f10:	08009870 	.word	0x08009870
 8001f14:	20000721 	.word	0x20000721
 8001f18:	200006b8 	.word	0x200006b8
 8001f1c:	20000727 	.word	0x20000727
 8001f20:	2000072f 	.word	0x2000072f
 8001f24:	20000580 	.word	0x20000580
 8001f28:	08009874 	.word	0x08009874
 8001f2c:	20000030 	.word	0x20000030
 8001f30:	200006dc 	.word	0x200006dc
 8001f34:	20000258 	.word	0x20000258

08001f38 <HAL_GPIO_EXTI_Callback>:
void HAL_GPIO_EXTI_Callback(uint16_t GPIO_Pin)
{
 8001f38:	b580      	push	{r7, lr}
 8001f3a:	b082      	sub	sp, #8
 8001f3c:	af00      	add	r7, sp, #0
 8001f3e:	4603      	mov	r3, r0
 8001f40:	80fb      	strh	r3, [r7, #6]
	if (GPIO_Pin == RST_Pin)
 8001f42:	88fb      	ldrh	r3, [r7, #6]
 8001f44:	2b40      	cmp	r3, #64	@ 0x40
 8001f46:	d145      	bne.n	8001fd4 <HAL_GPIO_EXTI_Callback+0x9c>
	{
		HAL_Delay(20);
 8001f48:	2014      	movs	r0, #20
 8001f4a:	f002 ff79 	bl	8004e40 <HAL_Delay>
		if (HAL_GPIO_ReadPin(RST_GPIO_Port, RST_Pin) == 0)
 8001f4e:	2140      	movs	r1, #64	@ 0x40
 8001f50:	4822      	ldr	r0, [pc, #136]	@ (8001fdc <HAL_GPIO_EXTI_Callback+0xa4>)
 8001f52:	f004 fdbd 	bl	8006ad0 <HAL_GPIO_ReadPin>
 8001f56:	4603      	mov	r3, r0
 8001f58:	2b00      	cmp	r3, #0
 8001f5a:	d13b      	bne.n	8001fd4 <HAL_GPIO_EXTI_Callback+0x9c>
		{
			RST_set = true;
 8001f5c:	4b20      	ldr	r3, [pc, #128]	@ (8001fe0 <HAL_GPIO_EXTI_Callback+0xa8>)
 8001f5e:	2201      	movs	r2, #1
 8001f60:	701a      	strb	r2, [r3, #0]
			RST_timer = HAL_GetTick();
 8001f62:	f002 ff63 	bl	8004e2c <HAL_GetTick>
 8001f66:	4603      	mov	r3, r0
 8001f68:	4a1e      	ldr	r2, [pc, #120]	@ (8001fe4 <HAL_GPIO_EXTI_Callback+0xac>)
 8001f6a:	6013      	str	r3, [r2, #0]
			count_RST = 2000;
 8001f6c:	4b1e      	ldr	r3, [pc, #120]	@ (8001fe8 <HAL_GPIO_EXTI_Callback+0xb0>)
 8001f6e:	f44f 62fa 	mov.w	r2, #2000	@ 0x7d0
 8001f72:	601a      	str	r2, [r3, #0]
			while (!HAL_GPIO_ReadPin(RST_GPIO_Port, RST_Pin))
 8001f74:	e027      	b.n	8001fc6 <HAL_GPIO_EXTI_Callback+0x8e>
			{
				RST_timer_last = HAL_GetTick() - RST_timer;
 8001f76:	f002 ff59 	bl	8004e2c <HAL_GetTick>
 8001f7a:	4602      	mov	r2, r0
 8001f7c:	4b19      	ldr	r3, [pc, #100]	@ (8001fe4 <HAL_GPIO_EXTI_Callback+0xac>)
 8001f7e:	681b      	ldr	r3, [r3, #0]
 8001f80:	1ad3      	subs	r3, r2, r3
 8001f82:	4a1a      	ldr	r2, [pc, #104]	@ (8001fec <HAL_GPIO_EXTI_Callback+0xb4>)
 8001f84:	6013      	str	r3, [r2, #0]
//				if ((RST_timer_last > 5000) && (RST_timer_last < 10000))
//				{
//					count_RST = 500;
//				} else
				if (RST_timer_last > 10000)
 8001f86:	4b19      	ldr	r3, [pc, #100]	@ (8001fec <HAL_GPIO_EXTI_Callback+0xb4>)
 8001f88:	681b      	ldr	r3, [r3, #0]
 8001f8a:	f242 7210 	movw	r2, #10000	@ 0x2710
 8001f8e:	4293      	cmp	r3, r2
 8001f90:	d902      	bls.n	8001f98 <HAL_GPIO_EXTI_Callback+0x60>
				{
					count_RST = 100;
 8001f92:	4b15      	ldr	r3, [pc, #84]	@ (8001fe8 <HAL_GPIO_EXTI_Callback+0xb0>)
 8001f94:	2264      	movs	r2, #100	@ 0x64
 8001f96:	601a      	str	r2, [r3, #0]
				}
				if (HAL_GetTick() - RST_timer_now > count_RST)
 8001f98:	f002 ff48 	bl	8004e2c <HAL_GetTick>
 8001f9c:	4602      	mov	r2, r0
 8001f9e:	4b14      	ldr	r3, [pc, #80]	@ (8001ff0 <HAL_GPIO_EXTI_Callback+0xb8>)
 8001fa0:	681b      	ldr	r3, [r3, #0]
 8001fa2:	1ad2      	subs	r2, r2, r3
 8001fa4:	4b10      	ldr	r3, [pc, #64]	@ (8001fe8 <HAL_GPIO_EXTI_Callback+0xb0>)
 8001fa6:	681b      	ldr	r3, [r3, #0]
 8001fa8:	429a      	cmp	r2, r3
 8001faa:	d909      	bls.n	8001fc0 <HAL_GPIO_EXTI_Callback+0x88>
				{
					RST_timer_now = HAL_GetTick();
 8001fac:	f002 ff3e 	bl	8004e2c <HAL_GetTick>
 8001fb0:	4603      	mov	r3, r0
 8001fb2:	4a0f      	ldr	r2, [pc, #60]	@ (8001ff0 <HAL_GPIO_EXTI_Callback+0xb8>)
 8001fb4:	6013      	str	r3, [r2, #0]
					HAL_GPIO_TogglePin(LED_STT_GPIO_Port, LED_STT_Pin);
 8001fb6:	f44f 5100 	mov.w	r1, #8192	@ 0x2000
 8001fba:	480e      	ldr	r0, [pc, #56]	@ (8001ff4 <HAL_GPIO_EXTI_Callback+0xbc>)
 8001fbc:	f004 fdb7 	bl	8006b2e <HAL_GPIO_TogglePin>
				}
				HAL_Delay(10);
 8001fc0:	200a      	movs	r0, #10
 8001fc2:	f002 ff3d 	bl	8004e40 <HAL_Delay>
			while (!HAL_GPIO_ReadPin(RST_GPIO_Port, RST_Pin))
 8001fc6:	2140      	movs	r1, #64	@ 0x40
 8001fc8:	4804      	ldr	r0, [pc, #16]	@ (8001fdc <HAL_GPIO_EXTI_Callback+0xa4>)
 8001fca:	f004 fd81 	bl	8006ad0 <HAL_GPIO_ReadPin>
 8001fce:	4603      	mov	r3, r0
 8001fd0:	2b00      	cmp	r3, #0
 8001fd2:	d0d0      	beq.n	8001f76 <HAL_GPIO_EXTI_Callback+0x3e>
			}
		}
	}
}
 8001fd4:	bf00      	nop
 8001fd6:	3708      	adds	r7, #8
 8001fd8:	46bd      	mov	sp, r7
 8001fda:	bd80      	pop	{r7, pc}
 8001fdc:	40010c00 	.word	0x40010c00
 8001fe0:	2000072d 	.word	0x2000072d
 8001fe4:	200006bc 	.word	0x200006bc
 8001fe8:	200006c8 	.word	0x200006c8
 8001fec:	200006c4 	.word	0x200006c4
 8001ff0:	200006c0 	.word	0x200006c0
 8001ff4:	40011000 	.word	0x40011000

08001ff8 <HAL_TIM_PeriodElapsedCallback>:
void HAL_TIM_PeriodElapsedCallback(TIM_HandleTypeDef *htim)
{
 8001ff8:	b580      	push	{r7, lr}
 8001ffa:	b084      	sub	sp, #16
 8001ffc:	af02      	add	r7, sp, #8
 8001ffe:	6078      	str	r0, [r7, #4]
	if (htim->Instance == htim2.Instance)
 8002000:	687b      	ldr	r3, [r7, #4]
 8002002:	681a      	ldr	r2, [r3, #0]
 8002004:	4b43      	ldr	r3, [pc, #268]	@ (8002114 <HAL_TIM_PeriodElapsedCallback+0x11c>)
 8002006:	681b      	ldr	r3, [r3, #0]
 8002008:	429a      	cmp	r2, r3
 800200a:	d169      	bne.n	80020e0 <HAL_TIM_PeriodElapsedCallback+0xe8>
	{
		// calculator data
		if (counter_start < time_delay)
 800200c:	4b42      	ldr	r3, [pc, #264]	@ (8002118 <HAL_TIM_PeriodElapsedCallback+0x120>)
 800200e:	781a      	ldrb	r2, [r3, #0]
 8002010:	4b42      	ldr	r3, [pc, #264]	@ (800211c <HAL_TIM_PeriodElapsedCallback+0x124>)
 8002012:	781b      	ldrb	r3, [r3, #0]
 8002014:	429a      	cmp	r2, r3
 8002016:	d205      	bcs.n	8002024 <HAL_TIM_PeriodElapsedCallback+0x2c>
		{
			counter_start++;
 8002018:	4b3f      	ldr	r3, [pc, #252]	@ (8002118 <HAL_TIM_PeriodElapsedCallback+0x120>)
 800201a:	781b      	ldrb	r3, [r3, #0]
 800201c:	3301      	adds	r3, #1
 800201e:	b2da      	uxtb	r2, r3
 8002020:	4b3d      	ldr	r3, [pc, #244]	@ (8002118 <HAL_TIM_PeriodElapsedCallback+0x120>)
 8002022:	701a      	strb	r2, [r3, #0]
		}
		if (write_mode || write_mode_somecard || unlock_fire || bypass_from_Eth || bypass_from_REB || !REB_connected || !HAL_GPIO_ReadPin(BYPASS_GPIO_Port, BYPASS_Pin))
 8002024:	4b3e      	ldr	r3, [pc, #248]	@ (8002120 <HAL_TIM_PeriodElapsedCallback+0x128>)
 8002026:	781b      	ldrb	r3, [r3, #0]
 8002028:	2b00      	cmp	r3, #0
 800202a:	d11d      	bne.n	8002068 <HAL_TIM_PeriodElapsedCallback+0x70>
 800202c:	4b3d      	ldr	r3, [pc, #244]	@ (8002124 <HAL_TIM_PeriodElapsedCallback+0x12c>)
 800202e:	781b      	ldrb	r3, [r3, #0]
 8002030:	2b00      	cmp	r3, #0
 8002032:	d119      	bne.n	8002068 <HAL_TIM_PeriodElapsedCallback+0x70>
 8002034:	4b3c      	ldr	r3, [pc, #240]	@ (8002128 <HAL_TIM_PeriodElapsedCallback+0x130>)
 8002036:	781b      	ldrb	r3, [r3, #0]
 8002038:	2b00      	cmp	r3, #0
 800203a:	d115      	bne.n	8002068 <HAL_TIM_PeriodElapsedCallback+0x70>
 800203c:	4b3b      	ldr	r3, [pc, #236]	@ (800212c <HAL_TIM_PeriodElapsedCallback+0x134>)
 800203e:	781b      	ldrb	r3, [r3, #0]
 8002040:	2b00      	cmp	r3, #0
 8002042:	d111      	bne.n	8002068 <HAL_TIM_PeriodElapsedCallback+0x70>
 8002044:	4b3a      	ldr	r3, [pc, #232]	@ (8002130 <HAL_TIM_PeriodElapsedCallback+0x138>)
 8002046:	781b      	ldrb	r3, [r3, #0]
 8002048:	2b00      	cmp	r3, #0
 800204a:	d10d      	bne.n	8002068 <HAL_TIM_PeriodElapsedCallback+0x70>
 800204c:	4b39      	ldr	r3, [pc, #228]	@ (8002134 <HAL_TIM_PeriodElapsedCallback+0x13c>)
 800204e:	781b      	ldrb	r3, [r3, #0]
 8002050:	f083 0301 	eor.w	r3, r3, #1
 8002054:	b2db      	uxtb	r3, r3
 8002056:	2b00      	cmp	r3, #0
 8002058:	d106      	bne.n	8002068 <HAL_TIM_PeriodElapsedCallback+0x70>
 800205a:	2104      	movs	r1, #4
 800205c:	4836      	ldr	r0, [pc, #216]	@ (8002138 <HAL_TIM_PeriodElapsedCallback+0x140>)
 800205e:	f004 fd37 	bl	8006ad0 <HAL_GPIO_ReadPin>
 8002062:	4603      	mov	r3, r0
 8002064:	2b00      	cmp	r3, #0
 8002066:	d121      	bne.n	80020ac <HAL_TIM_PeriodElapsedCallback+0xb4>
		{
			data_MC2B[0] = 1;
 8002068:	4b34      	ldr	r3, [pc, #208]	@ (800213c <HAL_TIM_PeriodElapsedCallback+0x144>)
 800206a:	2201      	movs	r2, #1
 800206c:	701a      	strb	r2, [r3, #0]
			data_MC2B[1] = 0;
 800206e:	4b33      	ldr	r3, [pc, #204]	@ (800213c <HAL_TIM_PeriodElapsedCallback+0x144>)
 8002070:	2200      	movs	r2, #0
 8002072:	705a      	strb	r2, [r3, #1]
			data_MC2B[2] = 0;
 8002074:	4b31      	ldr	r3, [pc, #196]	@ (800213c <HAL_TIM_PeriodElapsedCallback+0x144>)
 8002076:	2200      	movs	r2, #0
 8002078:	709a      	strb	r2, [r3, #2]
			data_MC2B[3] = 0;
 800207a:	4b30      	ldr	r3, [pc, #192]	@ (800213c <HAL_TIM_PeriodElapsedCallback+0x144>)
 800207c:	2200      	movs	r2, #0
 800207e:	70da      	strb	r2, [r3, #3]
			data_MC2B[4] = 0;
 8002080:	4b2e      	ldr	r3, [pc, #184]	@ (800213c <HAL_TIM_PeriodElapsedCallback+0x144>)
 8002082:	2200      	movs	r2, #0
 8002084:	711a      	strb	r2, [r3, #4]
			data_MC2B[5] = 0;
 8002086:	4b2d      	ldr	r3, [pc, #180]	@ (800213c <HAL_TIM_PeriodElapsedCallback+0x144>)
 8002088:	2200      	movs	r2, #0
 800208a:	715a      	strb	r2, [r3, #5]
			data_MC2B[6] = 0;
 800208c:	4b2b      	ldr	r3, [pc, #172]	@ (800213c <HAL_TIM_PeriodElapsedCallback+0x144>)
 800208e:	2200      	movs	r2, #0
 8002090:	719a      	strb	r2, [r3, #6]
			data_MC2B[7] = 0;
 8002092:	4b2a      	ldr	r3, [pc, #168]	@ (800213c <HAL_TIM_PeriodElapsedCallback+0x144>)
 8002094:	2200      	movs	r2, #0
 8002096:	71da      	strb	r2, [r3, #7]
			HAL_GPIO_WritePin(LED_BP_GPIO_Port, LED_BP_Pin, 1);
 8002098:	2201      	movs	r2, #1
 800209a:	f44f 4100 	mov.w	r1, #32768	@ 0x8000
 800209e:	4828      	ldr	r0, [pc, #160]	@ (8002140 <HAL_TIM_PeriodElapsedCallback+0x148>)
 80020a0:	f004 fd2d 	bl	8006afe <HAL_GPIO_WritePin>
//			sendData_uart("I", 2);
			uart_bypass = 2;
 80020a4:	4b27      	ldr	r3, [pc, #156]	@ (8002144 <HAL_TIM_PeriodElapsedCallback+0x14c>)
 80020a6:	2202      	movs	r2, #2
 80020a8:	701a      	strb	r2, [r3, #0]
 80020aa:	e013      	b.n	80020d4 <HAL_TIM_PeriodElapsedCallback+0xdc>
//			send_uart_to_REB = true;
		} else
		{
			calculate_data_can(x, x_timer, data_MC2B, lock_default, time_delay, &counter_start);
 80020ac:	4b1b      	ldr	r3, [pc, #108]	@ (800211c <HAL_TIM_PeriodElapsedCallback+0x124>)
 80020ae:	781b      	ldrb	r3, [r3, #0]
 80020b0:	4a19      	ldr	r2, [pc, #100]	@ (8002118 <HAL_TIM_PeriodElapsedCallback+0x120>)
 80020b2:	9201      	str	r2, [sp, #4]
 80020b4:	9300      	str	r3, [sp, #0]
 80020b6:	4b24      	ldr	r3, [pc, #144]	@ (8002148 <HAL_TIM_PeriodElapsedCallback+0x150>)
 80020b8:	4a20      	ldr	r2, [pc, #128]	@ (800213c <HAL_TIM_PeriodElapsedCallback+0x144>)
 80020ba:	4924      	ldr	r1, [pc, #144]	@ (800214c <HAL_TIM_PeriodElapsedCallback+0x154>)
 80020bc:	4824      	ldr	r0, [pc, #144]	@ (8002150 <HAL_TIM_PeriodElapsedCallback+0x158>)
 80020be:	f002 f97d 	bl	80043bc <calculate_data_can>
			HAL_GPIO_WritePin(LED_BP_GPIO_Port, LED_BP_Pin, 0);
 80020c2:	2200      	movs	r2, #0
 80020c4:	f44f 4100 	mov.w	r1, #32768	@ 0x8000
 80020c8:	481d      	ldr	r0, [pc, #116]	@ (8002140 <HAL_TIM_PeriodElapsedCallback+0x148>)
 80020ca:	f004 fd18 	bl	8006afe <HAL_GPIO_WritePin>
			uart_bypass = 3;
 80020ce:	4b1d      	ldr	r3, [pc, #116]	@ (8002144 <HAL_TIM_PeriodElapsedCallback+0x14c>)
 80020d0:	2203      	movs	r2, #3
 80020d2:	701a      	strb	r2, [r3, #0]
	//		send_uart_to_REB = true;
		}
		HAL_CAN_AddTxMessage(&hcan, &TxHeader_MC2B, data_MC2B, &TxMailbox);
 80020d4:	4b1f      	ldr	r3, [pc, #124]	@ (8002154 <HAL_TIM_PeriodElapsedCallback+0x15c>)
 80020d6:	4a19      	ldr	r2, [pc, #100]	@ (800213c <HAL_TIM_PeriodElapsedCallback+0x144>)
 80020d8:	491f      	ldr	r1, [pc, #124]	@ (8002158 <HAL_TIM_PeriodElapsedCallback+0x160>)
 80020da:	4820      	ldr	r0, [pc, #128]	@ (800215c <HAL_TIM_PeriodElapsedCallback+0x164>)
 80020dc:	f003 f8fa 	bl	80052d4 <HAL_CAN_AddTxMessage>
//		sendData_uart("I", 3);
	}
	if (htim->Instance == htim3.Instance)
 80020e0:	687b      	ldr	r3, [r7, #4]
 80020e2:	681a      	ldr	r2, [r3, #0]
 80020e4:	4b1e      	ldr	r3, [pc, #120]	@ (8002160 <HAL_TIM_PeriodElapsedCallback+0x168>)
 80020e6:	681b      	ldr	r3, [r3, #0]
 80020e8:	429a      	cmp	r2, r3
 80020ea:	d10e      	bne.n	800210a <HAL_TIM_PeriodElapsedCallback+0x112>
	{
		HAL_IWDG_Refresh(&hiwdg);
 80020ec:	481d      	ldr	r0, [pc, #116]	@ (8002164 <HAL_TIM_PeriodElapsedCallback+0x16c>)
 80020ee:	f004 fd93 	bl	8006c18 <HAL_IWDG_Refresh>
		if (!RST_set)
 80020f2:	4b1d      	ldr	r3, [pc, #116]	@ (8002168 <HAL_TIM_PeriodElapsedCallback+0x170>)
 80020f4:	781b      	ldrb	r3, [r3, #0]
 80020f6:	f083 0301 	eor.w	r3, r3, #1
 80020fa:	b2db      	uxtb	r3, r3
 80020fc:	2b00      	cmp	r3, #0
 80020fe:	d004      	beq.n	800210a <HAL_TIM_PeriodElapsedCallback+0x112>
		{
			HAL_GPIO_TogglePin(LED_STT_GPIO_Port, LED_STT_Pin);
 8002100:	f44f 5100 	mov.w	r1, #8192	@ 0x2000
 8002104:	480e      	ldr	r0, [pc, #56]	@ (8002140 <HAL_TIM_PeriodElapsedCallback+0x148>)
 8002106:	f004 fd12 	bl	8006b2e <HAL_GPIO_TogglePin>
		}
	}
}
 800210a:	bf00      	nop
 800210c:	3708      	adds	r7, #8
 800210e:	46bd      	mov	sp, r7
 8002110:	bd80      	pop	{r7, pc}
 8002112:	bf00      	nop
 8002114:	20000180 	.word	0x20000180
 8002118:	20000576 	.word	0x20000576
 800211c:	20000510 	.word	0x20000510
 8002120:	20000723 	.word	0x20000723
 8002124:	20000722 	.word	0x20000722
 8002128:	2000072e 	.word	0x2000072e
 800212c:	200006dd 	.word	0x200006dd
 8002130:	200006dc 	.word	0x200006dc
 8002134:	20000036 	.word	0x20000036
 8002138:	40010800 	.word	0x40010800
 800213c:	20000544 	.word	0x20000544
 8002140:	40011000 	.word	0x40011000
 8002144:	20000030 	.word	0x20000030
 8002148:	20000514 	.word	0x20000514
 800214c:	20000594 	.word	0x20000594
 8002150:	200006e0 	.word	0x200006e0
 8002154:	20000590 	.word	0x20000590
 8002158:	200002b8 	.word	0x200002b8
 800215c:	2000009c 	.word	0x2000009c
 8002160:	200001c8 	.word	0x200001c8
 8002164:	200000c4 	.word	0x200000c4
 8002168:	2000072d 	.word	0x2000072d

0800216c <HAL_CAN_RxFifo0MsgPendingCallback>:
void HAL_CAN_RxFifo0MsgPendingCallback(CAN_HandleTypeDef *hcan)
{
 800216c:	b580      	push	{r7, lr}
 800216e:	b082      	sub	sp, #8
 8002170:	af00      	add	r7, sp, #0
 8002172:	6078      	str	r0, [r7, #4]
	if (HAL_CAN_GetRxMessage(hcan, CAN_RX_FIFO0, &RxHeader, RxData) != HAL_OK)
 8002174:	4b12      	ldr	r3, [pc, #72]	@ (80021c0 <HAL_CAN_RxFifo0MsgPendingCallback+0x54>)
 8002176:	4a13      	ldr	r2, [pc, #76]	@ (80021c4 <HAL_CAN_RxFifo0MsgPendingCallback+0x58>)
 8002178:	2100      	movs	r1, #0
 800217a:	6878      	ldr	r0, [r7, #4]
 800217c:	f003 f9f1 	bl	8005562 <HAL_CAN_GetRxMessage>
 8002180:	4603      	mov	r3, r0
 8002182:	2b00      	cmp	r3, #0
 8002184:	d001      	beq.n	800218a <HAL_CAN_RxFifo0MsgPendingCallback+0x1e>
	{
	    Error_Handler();
 8002186:	f002 fb8f 	bl	80048a8 <Error_Handler>
	}
	if (RxHeader.StdId == 0x740 && RxData[2] == 0x48)
 800218a:	4b0e      	ldr	r3, [pc, #56]	@ (80021c4 <HAL_CAN_RxFifo0MsgPendingCallback+0x58>)
 800218c:	681b      	ldr	r3, [r3, #0]
 800218e:	f5b3 6fe8 	cmp.w	r3, #1856	@ 0x740
 8002192:	d110      	bne.n	80021b6 <HAL_CAN_RxFifo0MsgPendingCallback+0x4a>
 8002194:	4b0a      	ldr	r3, [pc, #40]	@ (80021c0 <HAL_CAN_RxFifo0MsgPendingCallback+0x54>)
 8002196:	789b      	ldrb	r3, [r3, #2]
 8002198:	2b48      	cmp	r3, #72	@ 0x48
 800219a:	d10c      	bne.n	80021b6 <HAL_CAN_RxFifo0MsgPendingCallback+0x4a>
	{
		if ((RxData[4] & 0x40) == 0x40)
 800219c:	4b08      	ldr	r3, [pc, #32]	@ (80021c0 <HAL_CAN_RxFifo0MsgPendingCallback+0x54>)
 800219e:	791b      	ldrb	r3, [r3, #4]
 80021a0:	f003 0340 	and.w	r3, r3, #64	@ 0x40
 80021a4:	2b00      	cmp	r3, #0
 80021a6:	d003      	beq.n	80021b0 <HAL_CAN_RxFifo0MsgPendingCallback+0x44>
		{
			unlock_fire = true;
 80021a8:	4b07      	ldr	r3, [pc, #28]	@ (80021c8 <HAL_CAN_RxFifo0MsgPendingCallback+0x5c>)
 80021aa:	2201      	movs	r2, #1
 80021ac:	701a      	strb	r2, [r3, #0]
		} else
		{
			unlock_fire = false;
		}
	}
}
 80021ae:	e002      	b.n	80021b6 <HAL_CAN_RxFifo0MsgPendingCallback+0x4a>
			unlock_fire = false;
 80021b0:	4b05      	ldr	r3, [pc, #20]	@ (80021c8 <HAL_CAN_RxFifo0MsgPendingCallback+0x5c>)
 80021b2:	2200      	movs	r2, #0
 80021b4:	701a      	strb	r2, [r3, #0]
}
 80021b6:	bf00      	nop
 80021b8:	3708      	adds	r7, #8
 80021ba:	46bd      	mov	sp, r7
 80021bc:	bd80      	pop	{r7, pc}
 80021be:	bf00      	nop
 80021c0:	20000578 	.word	0x20000578
 80021c4:	2000029c 	.word	0x2000029c
 80021c8:	2000072e 	.word	0x2000072e

080021cc <main>:
/**
  * @brief  The application entry point.
  * @retval int
  */
int main(void)
{
 80021cc:	b5f0      	push	{r4, r5, r6, r7, lr}
 80021ce:	b0b5      	sub	sp, #212	@ 0xd4
 80021d0:	af06      	add	r7, sp, #24
  /* USER CODE END 1 */

  /* MCU Configuration--------------------------------------------------------*/

  /* Reset of all peripherals, Initializes the Flash interface and the Systick. */
  HAL_Init();
 80021d2:	f002 fdd3 	bl	8004d7c <HAL_Init>
  /* USER CODE BEGIN Init */

  /* USER CODE END Init */

  /* Configure the system clock */
  SystemClock_Config();
 80021d6:	f001 fb11 	bl	80037fc <SystemClock_Config>

  /* USER CODE BEGIN SysInit */
  __HAL_DBGMCU_FREEZE_IWDG();
 80021da:	4b92      	ldr	r3, [pc, #584]	@ (8002424 <main+0x258>)
 80021dc:	685b      	ldr	r3, [r3, #4]
 80021de:	4a91      	ldr	r2, [pc, #580]	@ (8002424 <main+0x258>)
 80021e0:	f443 7380 	orr.w	r3, r3, #256	@ 0x100
 80021e4:	6053      	str	r3, [r2, #4]
  /* USER CODE END SysInit */

  /* Initialize all configured peripherals */
  MX_GPIO_Init();
 80021e6:	f001 fcf1 	bl	8003bcc <MX_GPIO_Init>
  MX_DMA_Init();
 80021ea:	f001 fcd1 	bl	8003b90 <MX_DMA_Init>
  MX_CAN_Init();
 80021ee:	f001 fb4d 	bl	800388c <MX_CAN_Init>
  MX_SPI1_Init();
 80021f2:	f001 fb9b 	bl	800392c <MX_SPI1_Init>
  MX_SPI2_Init();
 80021f6:	f001 fbcf 	bl	8003998 <MX_SPI2_Init>
  MX_USART1_UART_Init();
 80021fa:	f001 fc9f 	bl	8003b3c <MX_USART1_UART_Init>
  MX_TIM3_Init();
 80021fe:	f001 fc4f 	bl	8003aa0 <MX_TIM3_Init>
  MX_IWDG_Init();
 8002202:	f001 fb79 	bl	80038f8 <MX_IWDG_Init>
  MX_TIM2_Init();
 8002206:	f001 fbfd 	bl	8003a04 <MX_TIM2_Init>
  /* USER CODE BEGIN 2 */
  HAL_TIM_Base_Start_IT(&htim3);
 800220a:	4887      	ldr	r0, [pc, #540]	@ (8002428 <main+0x25c>)
 800220c:	f005 ff0a 	bl	8008024 <HAL_TIM_Base_Start_IT>
  HAL_UARTEx_ReceiveToIdle_DMA(&huart1, uart_data, 50);
 8002210:	2232      	movs	r2, #50	@ 0x32
 8002212:	4986      	ldr	r1, [pc, #536]	@ (800242c <main+0x260>)
 8002214:	4886      	ldr	r0, [pc, #536]	@ (8002430 <main+0x264>)
 8002216:	f006 fb82 	bl	800891e <HAL_UARTEx_ReceiveToIdle_DMA>
  __HAL_DMA_DISABLE_IT(&hdma_usart1_rx, DMA_IT_HT);
 800221a:	4b86      	ldr	r3, [pc, #536]	@ (8002434 <main+0x268>)
 800221c:	681b      	ldr	r3, [r3, #0]
 800221e:	681a      	ldr	r2, [r3, #0]
 8002220:	4b84      	ldr	r3, [pc, #528]	@ (8002434 <main+0x268>)
 8002222:	681b      	ldr	r3, [r3, #0]
 8002224:	f022 0204 	bic.w	r2, r2, #4
 8002228:	601a      	str	r2, [r3, #0]
  TxHeader_MC2B.DLC = 8;
 800222a:	4b83      	ldr	r3, [pc, #524]	@ (8002438 <main+0x26c>)
 800222c:	2208      	movs	r2, #8
 800222e:	611a      	str	r2, [r3, #16]
  TxHeader_MC2B.ExtId = 0x47FF;
 8002230:	4b81      	ldr	r3, [pc, #516]	@ (8002438 <main+0x26c>)
 8002232:	f244 72ff 	movw	r2, #18431	@ 0x47ff
 8002236:	605a      	str	r2, [r3, #4]
  TxHeader_MC2B.IDE = CAN_ID_EXT;
 8002238:	4b7f      	ldr	r3, [pc, #508]	@ (8002438 <main+0x26c>)
 800223a:	2204      	movs	r2, #4
 800223c:	609a      	str	r2, [r3, #8]
  TxHeader_MC2B.RTR = CAN_RTR_DATA;
 800223e:	4b7e      	ldr	r3, [pc, #504]	@ (8002438 <main+0x26c>)
 8002240:	2200      	movs	r2, #0
 8002242:	60da      	str	r2, [r3, #12]
  TxHeader_MC2B.StdId = 0;
 8002244:	4b7c      	ldr	r3, [pc, #496]	@ (8002438 <main+0x26c>)
 8002246:	2200      	movs	r2, #0
 8002248:	601a      	str	r2, [r3, #0]
  TxHeader_MC2B.TransmitGlobalTime = DISABLE;
 800224a:	4b7b      	ldr	r3, [pc, #492]	@ (8002438 <main+0x26c>)
 800224c:	2200      	movs	r2, #0
 800224e:	751a      	strb	r2, [r3, #20]

  EraseInit.TypeErase = FLASH_TYPEERASE_PAGES;
 8002250:	4b7a      	ldr	r3, [pc, #488]	@ (800243c <main+0x270>)
 8002252:	2200      	movs	r2, #0
 8002254:	601a      	str	r2, [r3, #0]
  EraseInit.Banks = FLASH_BANK_1;
 8002256:	4b79      	ldr	r3, [pc, #484]	@ (800243c <main+0x270>)
 8002258:	2201      	movs	r2, #1
 800225a:	605a      	str	r2, [r3, #4]
  EraseInit.PageAddress =  0x0800FC00;
 800225c:	4b77      	ldr	r3, [pc, #476]	@ (800243c <main+0x270>)
 800225e:	4a78      	ldr	r2, [pc, #480]	@ (8002440 <main+0x274>)
 8002260:	609a      	str	r2, [r3, #8]
  EraseInit.NbPages = 1;
 8002262:	4b76      	ldr	r3, [pc, #472]	@ (800243c <main+0x270>)
 8002264:	2201      	movs	r2, #1
 8002266:	60da      	str	r2, [r3, #12]
  ip1 = *(uint32_t *)(0x0800FC00);
 8002268:	4b75      	ldr	r3, [pc, #468]	@ (8002440 <main+0x274>)
 800226a:	681b      	ldr	r3, [r3, #0]
 800226c:	b2da      	uxtb	r2, r3
 800226e:	4b75      	ldr	r3, [pc, #468]	@ (8002444 <main+0x278>)
 8002270:	701a      	strb	r2, [r3, #0]
  ip2 = *(uint32_t *)(0x0800FC04);
 8002272:	4b75      	ldr	r3, [pc, #468]	@ (8002448 <main+0x27c>)
 8002274:	681b      	ldr	r3, [r3, #0]
 8002276:	b2da      	uxtb	r2, r3
 8002278:	4b74      	ldr	r3, [pc, #464]	@ (800244c <main+0x280>)
 800227a:	701a      	strb	r2, [r3, #0]
  ip3 = *(uint32_t *)(0x0800FC08);
 800227c:	4b74      	ldr	r3, [pc, #464]	@ (8002450 <main+0x284>)
 800227e:	681b      	ldr	r3, [r3, #0]
 8002280:	b2da      	uxtb	r2, r3
 8002282:	4b74      	ldr	r3, [pc, #464]	@ (8002454 <main+0x288>)
 8002284:	701a      	strb	r2, [r3, #0]
  ip4 = *(uint32_t *)(0x0800FC0C);
 8002286:	4b74      	ldr	r3, [pc, #464]	@ (8002458 <main+0x28c>)
 8002288:	681b      	ldr	r3, [r3, #0]
 800228a:	b2da      	uxtb	r2, r3
 800228c:	4b73      	ldr	r3, [pc, #460]	@ (800245c <main+0x290>)
 800228e:	701a      	strb	r2, [r3, #0]
  port_client = *(uint32_t *)(0x0800FC10);
 8002290:	4b73      	ldr	r3, [pc, #460]	@ (8002460 <main+0x294>)
 8002292:	681b      	ldr	r3, [r3, #0]
 8002294:	b29a      	uxth	r2, r3
 8002296:	4b73      	ldr	r3, [pc, #460]	@ (8002464 <main+0x298>)
 8002298:	801a      	strh	r2, [r3, #0]
  ip_server1 = *(uint32_t *)(0x0800FC14);
 800229a:	4b73      	ldr	r3, [pc, #460]	@ (8002468 <main+0x29c>)
 800229c:	681b      	ldr	r3, [r3, #0]
 800229e:	b2da      	uxtb	r2, r3
 80022a0:	4b72      	ldr	r3, [pc, #456]	@ (800246c <main+0x2a0>)
 80022a2:	701a      	strb	r2, [r3, #0]
  ip_server2 = *(uint32_t *)(0x0800FC18);
 80022a4:	4b72      	ldr	r3, [pc, #456]	@ (8002470 <main+0x2a4>)
 80022a6:	681b      	ldr	r3, [r3, #0]
 80022a8:	b2da      	uxtb	r2, r3
 80022aa:	4b72      	ldr	r3, [pc, #456]	@ (8002474 <main+0x2a8>)
 80022ac:	701a      	strb	r2, [r3, #0]
  ip_server3 = *(uint32_t *)(0x0800FC1C);
 80022ae:	4b72      	ldr	r3, [pc, #456]	@ (8002478 <main+0x2ac>)
 80022b0:	681b      	ldr	r3, [r3, #0]
 80022b2:	b2da      	uxtb	r2, r3
 80022b4:	4b71      	ldr	r3, [pc, #452]	@ (800247c <main+0x2b0>)
 80022b6:	701a      	strb	r2, [r3, #0]
  ip_server4 = *(uint32_t *)(0x0800FC20);
 80022b8:	4b71      	ldr	r3, [pc, #452]	@ (8002480 <main+0x2b4>)
 80022ba:	681b      	ldr	r3, [r3, #0]
 80022bc:	b2da      	uxtb	r2, r3
 80022be:	4b71      	ldr	r3, [pc, #452]	@ (8002484 <main+0x2b8>)
 80022c0:	701a      	strb	r2, [r3, #0]
  port_server = *(uint32_t *)(0x0800FC24);
 80022c2:	4b71      	ldr	r3, [pc, #452]	@ (8002488 <main+0x2bc>)
 80022c4:	681b      	ldr	r3, [r3, #0]
 80022c6:	b29a      	uxth	r2, r3
 80022c8:	4b70      	ldr	r3, [pc, #448]	@ (800248c <main+0x2c0>)
 80022ca:	801a      	strh	r2, [r3, #0]
  time_delay = *(uint32_t *)(0x0800FC28);
 80022cc:	4b70      	ldr	r3, [pc, #448]	@ (8002490 <main+0x2c4>)
 80022ce:	681b      	ldr	r3, [r3, #0]
 80022d0:	b2da      	uxtb	r2, r3
 80022d2:	4b70      	ldr	r3, [pc, #448]	@ (8002494 <main+0x2c8>)
 80022d4:	701a      	strb	r2, [r3, #0]
  elevator_mode = *(uint32_t *)(0x0800FC2C);
 80022d6:	4b70      	ldr	r3, [pc, #448]	@ (8002498 <main+0x2cc>)
 80022d8:	681b      	ldr	r3, [r3, #0]
 80022da:	b2da      	uxtb	r2, r3
 80022dc:	4b6f      	ldr	r3, [pc, #444]	@ (800249c <main+0x2d0>)
 80022de:	701a      	strb	r2, [r3, #0]
  lock_default_1 = *(uint32_t *)(0x0800FC30);
 80022e0:	4b6f      	ldr	r3, [pc, #444]	@ (80024a0 <main+0x2d4>)
 80022e2:	681b      	ldr	r3, [r3, #0]
 80022e4:	4a6f      	ldr	r2, [pc, #444]	@ (80024a4 <main+0x2d8>)
 80022e6:	6013      	str	r3, [r2, #0]
  lock_default_2 = *(uint32_t *)(0x0800FC34);
 80022e8:	4b6f      	ldr	r3, [pc, #444]	@ (80024a8 <main+0x2dc>)
 80022ea:	681b      	ldr	r3, [r3, #0]
 80022ec:	4a6f      	ldr	r2, [pc, #444]	@ (80024ac <main+0x2e0>)
 80022ee:	6013      	str	r3, [r2, #0]
  if (ip1 == 0xFF) ip1 = 192;
 80022f0:	4b54      	ldr	r3, [pc, #336]	@ (8002444 <main+0x278>)
 80022f2:	781b      	ldrb	r3, [r3, #0]
 80022f4:	2bff      	cmp	r3, #255	@ 0xff
 80022f6:	d102      	bne.n	80022fe <main+0x132>
 80022f8:	4b52      	ldr	r3, [pc, #328]	@ (8002444 <main+0x278>)
 80022fa:	22c0      	movs	r2, #192	@ 0xc0
 80022fc:	701a      	strb	r2, [r3, #0]
  if (ip2 == 0xFF) ip2 = 168;
 80022fe:	4b53      	ldr	r3, [pc, #332]	@ (800244c <main+0x280>)
 8002300:	781b      	ldrb	r3, [r3, #0]
 8002302:	2bff      	cmp	r3, #255	@ 0xff
 8002304:	d102      	bne.n	800230c <main+0x140>
 8002306:	4b51      	ldr	r3, [pc, #324]	@ (800244c <main+0x280>)
 8002308:	22a8      	movs	r2, #168	@ 0xa8
 800230a:	701a      	strb	r2, [r3, #0]
  if (ip3 == 0xFF) ip3 = 0;
 800230c:	4b51      	ldr	r3, [pc, #324]	@ (8002454 <main+0x288>)
 800230e:	781b      	ldrb	r3, [r3, #0]
 8002310:	2bff      	cmp	r3, #255	@ 0xff
 8002312:	d102      	bne.n	800231a <main+0x14e>
 8002314:	4b4f      	ldr	r3, [pc, #316]	@ (8002454 <main+0x288>)
 8002316:	2200      	movs	r2, #0
 8002318:	701a      	strb	r2, [r3, #0]
  if (ip4 == 0xFF) ip4 = 72;
 800231a:	4b50      	ldr	r3, [pc, #320]	@ (800245c <main+0x290>)
 800231c:	781b      	ldrb	r3, [r3, #0]
 800231e:	2bff      	cmp	r3, #255	@ 0xff
 8002320:	d102      	bne.n	8002328 <main+0x15c>
 8002322:	4b4e      	ldr	r3, [pc, #312]	@ (800245c <main+0x290>)
 8002324:	2248      	movs	r2, #72	@ 0x48
 8002326:	701a      	strb	r2, [r3, #0]
  if (port_client == 0xFFFF) port_client = 0;
 8002328:	4b4e      	ldr	r3, [pc, #312]	@ (8002464 <main+0x298>)
 800232a:	881b      	ldrh	r3, [r3, #0]
 800232c:	f64f 72ff 	movw	r2, #65535	@ 0xffff
 8002330:	4293      	cmp	r3, r2
 8002332:	d102      	bne.n	800233a <main+0x16e>
 8002334:	4b4b      	ldr	r3, [pc, #300]	@ (8002464 <main+0x298>)
 8002336:	2200      	movs	r2, #0
 8002338:	801a      	strh	r2, [r3, #0]
  if (ip_server1 == 0xFF) ip_server1 = 192;
 800233a:	4b4c      	ldr	r3, [pc, #304]	@ (800246c <main+0x2a0>)
 800233c:	781b      	ldrb	r3, [r3, #0]
 800233e:	2bff      	cmp	r3, #255	@ 0xff
 8002340:	d102      	bne.n	8002348 <main+0x17c>
 8002342:	4b4a      	ldr	r3, [pc, #296]	@ (800246c <main+0x2a0>)
 8002344:	22c0      	movs	r2, #192	@ 0xc0
 8002346:	701a      	strb	r2, [r3, #0]
  if (ip_server2 == 0xFF) ip_server2 = 168;
 8002348:	4b4a      	ldr	r3, [pc, #296]	@ (8002474 <main+0x2a8>)
 800234a:	781b      	ldrb	r3, [r3, #0]
 800234c:	2bff      	cmp	r3, #255	@ 0xff
 800234e:	d102      	bne.n	8002356 <main+0x18a>
 8002350:	4b48      	ldr	r3, [pc, #288]	@ (8002474 <main+0x2a8>)
 8002352:	22a8      	movs	r2, #168	@ 0xa8
 8002354:	701a      	strb	r2, [r3, #0]
  if (ip_server3 == 0xFF) ip_server3 = 0;
 8002356:	4b49      	ldr	r3, [pc, #292]	@ (800247c <main+0x2b0>)
 8002358:	781b      	ldrb	r3, [r3, #0]
 800235a:	2bff      	cmp	r3, #255	@ 0xff
 800235c:	d102      	bne.n	8002364 <main+0x198>
 800235e:	4b47      	ldr	r3, [pc, #284]	@ (800247c <main+0x2b0>)
 8002360:	2200      	movs	r2, #0
 8002362:	701a      	strb	r2, [r3, #0]
  if (ip_server4 == 0xFF) ip_server4 = 2;
 8002364:	4b47      	ldr	r3, [pc, #284]	@ (8002484 <main+0x2b8>)
 8002366:	781b      	ldrb	r3, [r3, #0]
 8002368:	2bff      	cmp	r3, #255	@ 0xff
 800236a:	d102      	bne.n	8002372 <main+0x1a6>
 800236c:	4b45      	ldr	r3, [pc, #276]	@ (8002484 <main+0x2b8>)
 800236e:	2202      	movs	r2, #2
 8002370:	701a      	strb	r2, [r3, #0]
  if (port_server == 0xFFFF) port_server = 6000;
 8002372:	4b46      	ldr	r3, [pc, #280]	@ (800248c <main+0x2c0>)
 8002374:	881b      	ldrh	r3, [r3, #0]
 8002376:	f64f 72ff 	movw	r2, #65535	@ 0xffff
 800237a:	4293      	cmp	r3, r2
 800237c:	d103      	bne.n	8002386 <main+0x1ba>
 800237e:	4b43      	ldr	r3, [pc, #268]	@ (800248c <main+0x2c0>)
 8002380:	f241 7270 	movw	r2, #6000	@ 0x1770
 8002384:	801a      	strh	r2, [r3, #0]
  if (time_delay == 0xFF) time_delay = 1;
 8002386:	4b43      	ldr	r3, [pc, #268]	@ (8002494 <main+0x2c8>)
 8002388:	781b      	ldrb	r3, [r3, #0]
 800238a:	2bff      	cmp	r3, #255	@ 0xff
 800238c:	d102      	bne.n	8002394 <main+0x1c8>
 800238e:	4b41      	ldr	r3, [pc, #260]	@ (8002494 <main+0x2c8>)
 8002390:	2201      	movs	r2, #1
 8002392:	701a      	strb	r2, [r3, #0]
  if (elevator_mode == 0xFF) elevator_mode = 0;
 8002394:	4b41      	ldr	r3, [pc, #260]	@ (800249c <main+0x2d0>)
 8002396:	781b      	ldrb	r3, [r3, #0]
 8002398:	2bff      	cmp	r3, #255	@ 0xff
 800239a:	d102      	bne.n	80023a2 <main+0x1d6>
 800239c:	4b3f      	ldr	r3, [pc, #252]	@ (800249c <main+0x2d0>)
 800239e:	2200      	movs	r2, #0
 80023a0:	701a      	strb	r2, [r3, #0]
//  if (lock_default_1 == 0xFFFFFFFF) lock_default_1 = 0;
//  if (lock_default_2 == 0xFFFFFFFF) lock_default_2 = 0;
  lock_default[0] = lock_default_1 & 0xFF;
 80023a2:	4b40      	ldr	r3, [pc, #256]	@ (80024a4 <main+0x2d8>)
 80023a4:	681b      	ldr	r3, [r3, #0]
 80023a6:	b2da      	uxtb	r2, r3
 80023a8:	4b41      	ldr	r3, [pc, #260]	@ (80024b0 <main+0x2e4>)
 80023aa:	701a      	strb	r2, [r3, #0]
  lock_default[1] = (lock_default_1>>8) & 0xFF;
 80023ac:	4b3d      	ldr	r3, [pc, #244]	@ (80024a4 <main+0x2d8>)
 80023ae:	681b      	ldr	r3, [r3, #0]
 80023b0:	0a1b      	lsrs	r3, r3, #8
 80023b2:	b2da      	uxtb	r2, r3
 80023b4:	4b3e      	ldr	r3, [pc, #248]	@ (80024b0 <main+0x2e4>)
 80023b6:	705a      	strb	r2, [r3, #1]
  lock_default[2] = (lock_default_1>>16) & 0xFF;
 80023b8:	4b3a      	ldr	r3, [pc, #232]	@ (80024a4 <main+0x2d8>)
 80023ba:	681b      	ldr	r3, [r3, #0]
 80023bc:	0c1b      	lsrs	r3, r3, #16
 80023be:	b2da      	uxtb	r2, r3
 80023c0:	4b3b      	ldr	r3, [pc, #236]	@ (80024b0 <main+0x2e4>)
 80023c2:	709a      	strb	r2, [r3, #2]
  lock_default[3] = (lock_default_1>>24) & 0xFF;
 80023c4:	4b37      	ldr	r3, [pc, #220]	@ (80024a4 <main+0x2d8>)
 80023c6:	681b      	ldr	r3, [r3, #0]
 80023c8:	0e1b      	lsrs	r3, r3, #24
 80023ca:	b2da      	uxtb	r2, r3
 80023cc:	4b38      	ldr	r3, [pc, #224]	@ (80024b0 <main+0x2e4>)
 80023ce:	70da      	strb	r2, [r3, #3]
  lock_default[4] = lock_default_2 & 0xFF;
 80023d0:	4b36      	ldr	r3, [pc, #216]	@ (80024ac <main+0x2e0>)
 80023d2:	681b      	ldr	r3, [r3, #0]
 80023d4:	b2da      	uxtb	r2, r3
 80023d6:	4b36      	ldr	r3, [pc, #216]	@ (80024b0 <main+0x2e4>)
 80023d8:	711a      	strb	r2, [r3, #4]
  lock_default[5] = (lock_default_2>>8) & 0xFF;
 80023da:	4b34      	ldr	r3, [pc, #208]	@ (80024ac <main+0x2e0>)
 80023dc:	681b      	ldr	r3, [r3, #0]
 80023de:	0a1b      	lsrs	r3, r3, #8
 80023e0:	b2da      	uxtb	r2, r3
 80023e2:	4b33      	ldr	r3, [pc, #204]	@ (80024b0 <main+0x2e4>)
 80023e4:	715a      	strb	r2, [r3, #5]
  lock_default[6] = (lock_default_2>>16) & 0xFF;
 80023e6:	4b31      	ldr	r3, [pc, #196]	@ (80024ac <main+0x2e0>)
 80023e8:	681b      	ldr	r3, [r3, #0]
 80023ea:	0c1b      	lsrs	r3, r3, #16
 80023ec:	b2da      	uxtb	r2, r3
 80023ee:	4b30      	ldr	r3, [pc, #192]	@ (80024b0 <main+0x2e4>)
 80023f0:	719a      	strb	r2, [r3, #6]
  lock_default[7] = (lock_default_2>>24) & 0xFF;
 80023f2:	4b2e      	ldr	r3, [pc, #184]	@ (80024ac <main+0x2e0>)
 80023f4:	681b      	ldr	r3, [r3, #0]
 80023f6:	0e1b      	lsrs	r3, r3, #24
 80023f8:	b2da      	uxtb	r2, r3
 80023fa:	4b2d      	ldr	r3, [pc, #180]	@ (80024b0 <main+0x2e4>)
 80023fc:	71da      	strb	r2, [r3, #7]
  server_ip[0] = ip_server1;
 80023fe:	4b1b      	ldr	r3, [pc, #108]	@ (800246c <main+0x2a0>)
 8002400:	781a      	ldrb	r2, [r3, #0]
 8002402:	4b2c      	ldr	r3, [pc, #176]	@ (80024b4 <main+0x2e8>)
 8002404:	701a      	strb	r2, [r3, #0]
  server_ip[1] = ip_server2;
 8002406:	4b1b      	ldr	r3, [pc, #108]	@ (8002474 <main+0x2a8>)
 8002408:	781a      	ldrb	r2, [r3, #0]
 800240a:	4b2a      	ldr	r3, [pc, #168]	@ (80024b4 <main+0x2e8>)
 800240c:	705a      	strb	r2, [r3, #1]
  server_ip[2] = ip_server3;
 800240e:	4b1b      	ldr	r3, [pc, #108]	@ (800247c <main+0x2b0>)
 8002410:	781a      	ldrb	r2, [r3, #0]
 8002412:	4b28      	ldr	r3, [pc, #160]	@ (80024b4 <main+0x2e8>)
 8002414:	709a      	strb	r2, [r3, #2]
  server_ip[3] = ip_server4;
 8002416:	4b1b      	ldr	r3, [pc, #108]	@ (8002484 <main+0x2b8>)
 8002418:	781a      	ldrb	r2, [r3, #0]
 800241a:	4b26      	ldr	r3, [pc, #152]	@ (80024b4 <main+0x2e8>)
 800241c:	70da      	strb	r2, [r3, #3]

  W25Q_Reset();
 800241e:	f7ff fb35 	bl	8001a8c <W25Q_Reset>
//  W25Q_EraseChip();
  while(user.STT!=0xFFFFFFFF)
 8002422:	e05c      	b.n	80024de <main+0x312>
 8002424:	e0042000 	.word	0xe0042000
 8002428:	200001c8 	.word	0x200001c8
 800242c:	200002d0 	.word	0x200002d0
 8002430:	20000210 	.word	0x20000210
 8002434:	20000258 	.word	0x20000258
 8002438:	200002b8 	.word	0x200002b8
 800243c:	2000008c 	.word	0x2000008c
 8002440:	0800fc00 	.word	0x0800fc00
 8002444:	2000051c 	.word	0x2000051c
 8002448:	0800fc04 	.word	0x0800fc04
 800244c:	2000051d 	.word	0x2000051d
 8002450:	0800fc08 	.word	0x0800fc08
 8002454:	2000051e 	.word	0x2000051e
 8002458:	0800fc0c 	.word	0x0800fc0c
 800245c:	2000051f 	.word	0x2000051f
 8002460:	0800fc10 	.word	0x0800fc10
 8002464:	20000584 	.word	0x20000584
 8002468:	0800fc14 	.word	0x0800fc14
 800246c:	20000520 	.word	0x20000520
 8002470:	0800fc18 	.word	0x0800fc18
 8002474:	20000521 	.word	0x20000521
 8002478:	0800fc1c 	.word	0x0800fc1c
 800247c:	20000522 	.word	0x20000522
 8002480:	0800fc20 	.word	0x0800fc20
 8002484:	20000523 	.word	0x20000523
 8002488:	0800fc24 	.word	0x0800fc24
 800248c:	20000582 	.word	0x20000582
 8002490:	0800fc28 	.word	0x0800fc28
 8002494:	20000510 	.word	0x20000510
 8002498:	0800fc2c 	.word	0x0800fc2c
 800249c:	20000542 	.word	0x20000542
 80024a0:	0800fc30 	.word	0x0800fc30
 80024a4:	200006a8 	.word	0x200006a8
 80024a8:	0800fc34 	.word	0x0800fc34
 80024ac:	200006ac 	.word	0x200006ac
 80024b0:	20000514 	.word	0x20000514
 80024b4:	2000050c 	.word	0x2000050c
  {
	  W25Q_FastRead_address(number_card*sizeof(user_info_t), sizeof(user_info_t), (uint8_t *)&user);
 80024b8:	4bad      	ldr	r3, [pc, #692]	@ (8002770 <main+0x5a4>)
 80024ba:	681b      	ldr	r3, [r3, #0]
 80024bc:	015b      	lsls	r3, r3, #5
 80024be:	4aad      	ldr	r2, [pc, #692]	@ (8002774 <main+0x5a8>)
 80024c0:	2120      	movs	r1, #32
 80024c2:	4618      	mov	r0, r3
 80024c4:	f7ff fb2a 	bl	8001b1c <W25Q_FastRead_address>
	  if (user.STT -1 == number_card)
 80024c8:	4baa      	ldr	r3, [pc, #680]	@ (8002774 <main+0x5a8>)
 80024ca:	681b      	ldr	r3, [r3, #0]
 80024cc:	1e5a      	subs	r2, r3, #1
 80024ce:	4ba8      	ldr	r3, [pc, #672]	@ (8002770 <main+0x5a4>)
 80024d0:	681b      	ldr	r3, [r3, #0]
 80024d2:	429a      	cmp	r2, r3
 80024d4:	d103      	bne.n	80024de <main+0x312>
	  {
		  number_card = user.STT;
 80024d6:	4ba7      	ldr	r3, [pc, #668]	@ (8002774 <main+0x5a8>)
 80024d8:	681b      	ldr	r3, [r3, #0]
 80024da:	4aa5      	ldr	r2, [pc, #660]	@ (8002770 <main+0x5a4>)
 80024dc:	6013      	str	r3, [r2, #0]
  while(user.STT!=0xFFFFFFFF)
 80024de:	4ba5      	ldr	r3, [pc, #660]	@ (8002774 <main+0x5a8>)
 80024e0:	681b      	ldr	r3, [r3, #0]
 80024e2:	f1b3 3fff 	cmp.w	r3, #4294967295
 80024e6:	d1e7      	bne.n	80024b8 <main+0x2ec>
	  }
  }
  while(user_before.STT!=0xFFFFFFFF)
 80024e8:	e014      	b.n	8002514 <main+0x348>
  {
	  W25Q_FastRead_address(number_card_old*sizeof(user_info_t) + Block32, sizeof(user_info_t), (uint8_t *)&user_before);
 80024ea:	4ba3      	ldr	r3, [pc, #652]	@ (8002778 <main+0x5ac>)
 80024ec:	681b      	ldr	r3, [r3, #0]
 80024ee:	f503 3380 	add.w	r3, r3, #65536	@ 0x10000
 80024f2:	015b      	lsls	r3, r3, #5
 80024f4:	4aa1      	ldr	r2, [pc, #644]	@ (800277c <main+0x5b0>)
 80024f6:	2120      	movs	r1, #32
 80024f8:	4618      	mov	r0, r3
 80024fa:	f7ff fb0f 	bl	8001b1c <W25Q_FastRead_address>
	  if (user_before.STT -1 == number_card_old)
 80024fe:	4b9f      	ldr	r3, [pc, #636]	@ (800277c <main+0x5b0>)
 8002500:	681b      	ldr	r3, [r3, #0]
 8002502:	1e5a      	subs	r2, r3, #1
 8002504:	4b9c      	ldr	r3, [pc, #624]	@ (8002778 <main+0x5ac>)
 8002506:	681b      	ldr	r3, [r3, #0]
 8002508:	429a      	cmp	r2, r3
 800250a:	d103      	bne.n	8002514 <main+0x348>
	  {
		  number_card_old = user_before.STT;
 800250c:	4b9b      	ldr	r3, [pc, #620]	@ (800277c <main+0x5b0>)
 800250e:	681b      	ldr	r3, [r3, #0]
 8002510:	4a99      	ldr	r2, [pc, #612]	@ (8002778 <main+0x5ac>)
 8002512:	6013      	str	r3, [r2, #0]
  while(user_before.STT!=0xFFFFFFFF)
 8002514:	4b99      	ldr	r3, [pc, #612]	@ (800277c <main+0x5b0>)
 8002516:	681b      	ldr	r3, [r3, #0]
 8002518:	f1b3 3fff 	cmp.w	r3, #4294967295
 800251c:	d1e5      	bne.n	80024ea <main+0x31e>
	  }
  }
  if (number_card_old > 0)
 800251e:	4b96      	ldr	r3, [pc, #600]	@ (8002778 <main+0x5ac>)
 8002520:	681b      	ldr	r3, [r3, #0]
 8002522:	2b00      	cmp	r3, #0
 8002524:	d01a      	beq.n	800255c <main+0x390>
  {
	  for (uint32_t i=0; i<(number_card_old*sizeof(user_info_t)/Sector +2); i++)
 8002526:	2300      	movs	r3, #0
 8002528:	f8c7 30b4 	str.w	r3, [r7, #180]	@ 0xb4
 800252c:	e00d      	b.n	800254a <main+0x37e>
	  {
		  W25Q_Erase_Sector(i + Block32/0x1000);
 800252e:	f8d7 30b4 	ldr.w	r3, [r7, #180]	@ 0xb4
 8002532:	b29b      	uxth	r3, r3
 8002534:	f503 7300 	add.w	r3, r3, #512	@ 0x200
 8002538:	b29b      	uxth	r3, r3
 800253a:	4618      	mov	r0, r3
 800253c:	f7ff fb5a 	bl	8001bf4 <W25Q_Erase_Sector>
	  for (uint32_t i=0; i<(number_card_old*sizeof(user_info_t)/Sector +2); i++)
 8002540:	f8d7 30b4 	ldr.w	r3, [r7, #180]	@ 0xb4
 8002544:	3301      	adds	r3, #1
 8002546:	f8c7 30b4 	str.w	r3, [r7, #180]	@ 0xb4
 800254a:	4b8b      	ldr	r3, [pc, #556]	@ (8002778 <main+0x5ac>)
 800254c:	681b      	ldr	r3, [r3, #0]
 800254e:	015b      	lsls	r3, r3, #5
 8002550:	0b1b      	lsrs	r3, r3, #12
 8002552:	3302      	adds	r3, #2
 8002554:	f8d7 20b4 	ldr.w	r2, [r7, #180]	@ 0xb4
 8002558:	429a      	cmp	r2, r3
 800255a:	d3e8      	bcc.n	800252e <main+0x362>
	  }
  }
  wiz_NetInfo gWIZNETINFO = {
 800255c:	2300      	movs	r3, #0
 800255e:	f887 3064 	strb.w	r3, [r7, #100]	@ 0x64
 8002562:	231c      	movs	r3, #28
 8002564:	f887 3065 	strb.w	r3, [r7, #101]	@ 0x65
 8002568:	2316      	movs	r3, #22
 800256a:	f887 3066 	strb.w	r3, [r7, #102]	@ 0x66
  		  .mac = {0x00, 0x1c, 0x16, (HAL_GetUIDw0()^ip4)&0xFF, (HAL_GetUIDw1()^ip4)&0xFF, (HAL_GetUIDw2()^ip4)&0xFF},
 800256e:	f002 fc8b 	bl	8004e88 <HAL_GetUIDw0>
 8002572:	4603      	mov	r3, r0
 8002574:	b2da      	uxtb	r2, r3
 8002576:	4b82      	ldr	r3, [pc, #520]	@ (8002780 <main+0x5b4>)
 8002578:	781b      	ldrb	r3, [r3, #0]
 800257a:	4053      	eors	r3, r2
 800257c:	b2db      	uxtb	r3, r3
  wiz_NetInfo gWIZNETINFO = {
 800257e:	f887 3067 	strb.w	r3, [r7, #103]	@ 0x67
  		  .mac = {0x00, 0x1c, 0x16, (HAL_GetUIDw0()^ip4)&0xFF, (HAL_GetUIDw1()^ip4)&0xFF, (HAL_GetUIDw2()^ip4)&0xFF},
 8002582:	f002 fc8b 	bl	8004e9c <HAL_GetUIDw1>
 8002586:	4603      	mov	r3, r0
 8002588:	b2da      	uxtb	r2, r3
 800258a:	4b7d      	ldr	r3, [pc, #500]	@ (8002780 <main+0x5b4>)
 800258c:	781b      	ldrb	r3, [r3, #0]
 800258e:	4053      	eors	r3, r2
 8002590:	b2db      	uxtb	r3, r3
  wiz_NetInfo gWIZNETINFO = {
 8002592:	f887 3068 	strb.w	r3, [r7, #104]	@ 0x68
  		  .mac = {0x00, 0x1c, 0x16, (HAL_GetUIDw0()^ip4)&0xFF, (HAL_GetUIDw1()^ip4)&0xFF, (HAL_GetUIDw2()^ip4)&0xFF},
 8002596:	f002 fc8b 	bl	8004eb0 <HAL_GetUIDw2>
 800259a:	4603      	mov	r3, r0
 800259c:	b2da      	uxtb	r2, r3
 800259e:	4b78      	ldr	r3, [pc, #480]	@ (8002780 <main+0x5b4>)
 80025a0:	781b      	ldrb	r3, [r3, #0]
 80025a2:	4053      	eors	r3, r2
 80025a4:	b2db      	uxtb	r3, r3
  wiz_NetInfo gWIZNETINFO = {
 80025a6:	f887 3069 	strb.w	r3, [r7, #105]	@ 0x69
 80025aa:	4b76      	ldr	r3, [pc, #472]	@ (8002784 <main+0x5b8>)
 80025ac:	781b      	ldrb	r3, [r3, #0]
 80025ae:	f887 306a 	strb.w	r3, [r7, #106]	@ 0x6a
 80025b2:	4b75      	ldr	r3, [pc, #468]	@ (8002788 <main+0x5bc>)
 80025b4:	781b      	ldrb	r3, [r3, #0]
 80025b6:	f887 306b 	strb.w	r3, [r7, #107]	@ 0x6b
 80025ba:	4b74      	ldr	r3, [pc, #464]	@ (800278c <main+0x5c0>)
 80025bc:	781b      	ldrb	r3, [r3, #0]
 80025be:	f887 306c 	strb.w	r3, [r7, #108]	@ 0x6c
 80025c2:	4b6f      	ldr	r3, [pc, #444]	@ (8002780 <main+0x5b4>)
 80025c4:	781b      	ldrb	r3, [r3, #0]
 80025c6:	f887 306d 	strb.w	r3, [r7, #109]	@ 0x6d
 80025ca:	4a71      	ldr	r2, [pc, #452]	@ (8002790 <main+0x5c4>)
 80025cc:	f107 036e 	add.w	r3, r7, #110	@ 0x6e
 80025d0:	6810      	ldr	r0, [r2, #0]
 80025d2:	6018      	str	r0, [r3, #0]
 80025d4:	4a6f      	ldr	r2, [pc, #444]	@ (8002794 <main+0x5c8>)
 80025d6:	f107 0372 	add.w	r3, r7, #114	@ 0x72
 80025da:	6810      	ldr	r0, [r2, #0]
 80025dc:	6018      	str	r0, [r3, #0]
 80025de:	4a6e      	ldr	r2, [pc, #440]	@ (8002798 <main+0x5cc>)
 80025e0:	f107 0376 	add.w	r3, r7, #118	@ 0x76
 80025e4:	6810      	ldr	r0, [r2, #0]
 80025e6:	6018      	str	r0, [r3, #0]
 80025e8:	2301      	movs	r3, #1
 80025ea:	f887 307a 	strb.w	r3, [r7, #122]	@ 0x7a
  		  .ip = {ip1,ip2,ip3,ip4},
  		  .sn = {255, 255, 255, 0},
  		  .gw = {192, 168, 0, 1},
  		  .dns = {168, 126, 63, 1},
  		  .dhcp = NETINFO_STATIC};
  W5500Init();
 80025ee:	f7fe f8b9 	bl	8000764 <W5500Init>
  HAL_Delay(2000);
 80025f2:	f44f 60fa 	mov.w	r0, #2000	@ 0x7d0
 80025f6:	f002 fc23 	bl	8004e40 <HAL_Delay>
  wizchip_setnetinfo(&gWIZNETINFO);
 80025fa:	f107 0364 	add.w	r3, r7, #100	@ 0x64
 80025fe:	4618      	mov	r0, r3
 8002600:	f7ff f990 	bl	8001924 <wizchip_setnetinfo>
  socket(SOCK_NUM, Sn_MR_TCP, port_client, SF_TCP_NODELAY);
 8002604:	4b65      	ldr	r3, [pc, #404]	@ (800279c <main+0x5d0>)
 8002606:	881a      	ldrh	r2, [r3, #0]
 8002608:	2320      	movs	r3, #32
 800260a:	2101      	movs	r1, #1
 800260c:	2000      	movs	r0, #0
 800260e:	f7fe f8f5 	bl	80007fc <socket>
  connect(SOCK_NUM, server_ip, port_server);
 8002612:	4b63      	ldr	r3, [pc, #396]	@ (80027a0 <main+0x5d4>)
 8002614:	881b      	ldrh	r3, [r3, #0]
 8002616:	461a      	mov	r2, r3
 8002618:	4962      	ldr	r1, [pc, #392]	@ (80027a4 <main+0x5d8>)
 800261a:	2000      	movs	r0, #0
 800261c:	f7fe fa7c 	bl	8000b18 <connect>
  Set_speed_can(elevator_mode);
 8002620:	4b61      	ldr	r3, [pc, #388]	@ (80027a8 <main+0x5dc>)
 8002622:	781b      	ldrb	r3, [r3, #0]
 8002624:	4618      	mov	r0, r3
 8002626:	f002 f831 	bl	800468c <Set_speed_can>
  HAL_TIM_Base_Start_IT(&htim2);
 800262a:	4860      	ldr	r0, [pc, #384]	@ (80027ac <main+0x5e0>)
 800262c:	f005 fcfa 	bl	8008024 <HAL_TIM_Base_Start_IT>
  while (1)
  {
    /* USER CODE END WHILE */

    /* USER CODE BEGIN 3 */
	  lenData = getSn_RX_RSR(SOCK_NUM);
 8002630:	2000      	movs	r0, #0
 8002632:	f7fd ff36 	bl	80004a2 <getSn_RX_RSR>
 8002636:	4603      	mov	r3, r0
 8002638:	461a      	mov	r2, r3
 800263a:	4b5d      	ldr	r3, [pc, #372]	@ (80027b0 <main+0x5e4>)
 800263c:	601a      	str	r2, [r3, #0]
	  if (getSn_RX_RSR(SOCK_NUM) == lenData)
 800263e:	2000      	movs	r0, #0
 8002640:	f7fd ff2f 	bl	80004a2 <getSn_RX_RSR>
 8002644:	4603      	mov	r3, r0
 8002646:	461a      	mov	r2, r3
 8002648:	4b59      	ldr	r3, [pc, #356]	@ (80027b0 <main+0x5e4>)
 800264a:	681b      	ldr	r3, [r3, #0]
 800264c:	429a      	cmp	r2, r3
 800264e:	f041 80a0 	bne.w	8003792 <main+0x15c6>
	  {
		  if (lenData > 512)
 8002652:	4b57      	ldr	r3, [pc, #348]	@ (80027b0 <main+0x5e4>)
 8002654:	681b      	ldr	r3, [r3, #0]
 8002656:	f5b3 7f00 	cmp.w	r3, #512	@ 0x200
 800265a:	d901      	bls.n	8002660 <main+0x494>
		  {
			  HAL_NVIC_SystemReset();
 800265c:	f003 fc01 	bl	8005e62 <HAL_NVIC_SystemReset>
		  }
		  if (lenData > 0)
 8002660:	4b53      	ldr	r3, [pc, #332]	@ (80027b0 <main+0x5e4>)
 8002662:	681b      	ldr	r3, [r3, #0]
 8002664:	2b00      	cmp	r3, #0
 8002666:	f000 810f 	beq.w	8002888 <main+0x6bc>
		  {
			  recv(SOCK_NUM, buf, lenData);
 800266a:	4b51      	ldr	r3, [pc, #324]	@ (80027b0 <main+0x5e4>)
 800266c:	681b      	ldr	r3, [r3, #0]
 800266e:	b29b      	uxth	r3, r3
 8002670:	461a      	mov	r2, r3
 8002672:	4950      	ldr	r1, [pc, #320]	@ (80027b4 <main+0x5e8>)
 8002674:	2000      	movs	r0, #0
 8002676:	f7fe fc2f 	bl	8000ed8 <recv>
			  switch (buf[0])
 800267a:	4b4e      	ldr	r3, [pc, #312]	@ (80027b4 <main+0x5e8>)
 800267c:	781b      	ldrb	r3, [r3, #0]
 800267e:	3b44      	subs	r3, #68	@ 0x44
 8002680:	2b13      	cmp	r3, #19
 8002682:	f200 8101 	bhi.w	8002888 <main+0x6bc>
 8002686:	a201      	add	r2, pc, #4	@ (adr r2, 800268c <main+0x4c0>)
 8002688:	f852 f023 	ldr.w	pc, [r2, r3, lsl #2]
 800268c:	0800272f 	.word	0x0800272f
 8002690:	08002889 	.word	0x08002889
 8002694:	08002889 	.word	0x08002889
 8002698:	08002889 	.word	0x08002889
 800269c:	080026dd 	.word	0x080026dd
 80026a0:	08002889 	.word	0x08002889
 80026a4:	08002889 	.word	0x08002889
 80026a8:	08002889 	.word	0x08002889
 80026ac:	08002889 	.word	0x08002889
 80026b0:	08002889 	.word	0x08002889
 80026b4:	08002889 	.word	0x08002889
 80026b8:	08002889 	.word	0x08002889
 80026bc:	08002889 	.word	0x08002889
 80026c0:	08002889 	.word	0x08002889
 80026c4:	080027f3 	.word	0x080027f3
 80026c8:	08002763 	.word	0x08002763
 80026cc:	08002889 	.word	0x08002889
 80026d0:	08002889 	.word	0x08002889
 80026d4:	08002889 	.word	0x08002889
 80026d8:	08002837 	.word	0x08002837
			  {
			  case 0x48:
				  connected = HAL_GetTick();
 80026dc:	f002 fba6 	bl	8004e2c <HAL_GetTick>
 80026e0:	4603      	mov	r3, r0
 80026e2:	4a35      	ldr	r2, [pc, #212]	@ (80027b8 <main+0x5ec>)
 80026e4:	6013      	str	r3, [r2, #0]
				  if (buf[4] |= 0)
 80026e6:	4b33      	ldr	r3, [pc, #204]	@ (80027b4 <main+0x5e8>)
 80026e8:	791a      	ldrb	r2, [r3, #4]
 80026ea:	4b32      	ldr	r3, [pc, #200]	@ (80027b4 <main+0x5e8>)
 80026ec:	711a      	strb	r2, [r3, #4]
 80026ee:	4b31      	ldr	r3, [pc, #196]	@ (80027b4 <main+0x5e8>)
 80026f0:	791b      	ldrb	r3, [r3, #4]
 80026f2:	2b00      	cmp	r3, #0
 80026f4:	f000 80c5 	beq.w	8002882 <main+0x6b6>
				  {
					  timeNow = mktime((buf[3]<<8) & buf[4], buf[2], buf[1], buf[5], buf[6]);
 80026f8:	4b2e      	ldr	r3, [pc, #184]	@ (80027b4 <main+0x5e8>)
 80026fa:	78db      	ldrb	r3, [r3, #3]
 80026fc:	b21b      	sxth	r3, r3
 80026fe:	021b      	lsls	r3, r3, #8
 8002700:	b21a      	sxth	r2, r3
 8002702:	4b2c      	ldr	r3, [pc, #176]	@ (80027b4 <main+0x5e8>)
 8002704:	791b      	ldrb	r3, [r3, #4]
 8002706:	b21b      	sxth	r3, r3
 8002708:	4013      	ands	r3, r2
 800270a:	b21b      	sxth	r3, r3
 800270c:	b298      	uxth	r0, r3
 800270e:	4b29      	ldr	r3, [pc, #164]	@ (80027b4 <main+0x5e8>)
 8002710:	7899      	ldrb	r1, [r3, #2]
 8002712:	4b28      	ldr	r3, [pc, #160]	@ (80027b4 <main+0x5e8>)
 8002714:	785a      	ldrb	r2, [r3, #1]
 8002716:	4b27      	ldr	r3, [pc, #156]	@ (80027b4 <main+0x5e8>)
 8002718:	795c      	ldrb	r4, [r3, #5]
 800271a:	4b26      	ldr	r3, [pc, #152]	@ (80027b4 <main+0x5e8>)
 800271c:	799b      	ldrb	r3, [r3, #6]
 800271e:	9300      	str	r3, [sp, #0]
 8002720:	4623      	mov	r3, r4
 8002722:	f002 f84b 	bl	80047bc <mktime>
 8002726:	4603      	mov	r3, r0
 8002728:	4a24      	ldr	r2, [pc, #144]	@ (80027bc <main+0x5f0>)
 800272a:	6013      	str	r3, [r2, #0]
				  }
				  break;
 800272c:	e0a9      	b.n	8002882 <main+0x6b6>
			  case 0x44://data: D
				  Ethernet_received = true;
 800272e:	4b24      	ldr	r3, [pc, #144]	@ (80027c0 <main+0x5f4>)
 8002730:	2201      	movs	r2, #1
 8002732:	701a      	strb	r2, [r3, #0]
				  for (uint8_t i =0; i<9; i++)
 8002734:	2300      	movs	r3, #0
 8002736:	f887 30b3 	strb.w	r3, [r7, #179]	@ 0xb3
 800273a:	e00d      	b.n	8002758 <main+0x58c>
				  {
					  Ethernet_received_data[i] = buf[i+1];
 800273c:	f897 30b3 	ldrb.w	r3, [r7, #179]	@ 0xb3
 8002740:	1c5a      	adds	r2, r3, #1
 8002742:	f897 30b3 	ldrb.w	r3, [r7, #179]	@ 0xb3
 8002746:	491b      	ldr	r1, [pc, #108]	@ (80027b4 <main+0x5e8>)
 8002748:	5c89      	ldrb	r1, [r1, r2]
 800274a:	4a1e      	ldr	r2, [pc, #120]	@ (80027c4 <main+0x5f8>)
 800274c:	54d1      	strb	r1, [r2, r3]
				  for (uint8_t i =0; i<9; i++)
 800274e:	f897 30b3 	ldrb.w	r3, [r7, #179]	@ 0xb3
 8002752:	3301      	adds	r3, #1
 8002754:	f887 30b3 	strb.w	r3, [r7, #179]	@ 0xb3
 8002758:	f897 30b3 	ldrb.w	r3, [r7, #179]	@ 0xb3
 800275c:	2b08      	cmp	r3, #8
 800275e:	d9ed      	bls.n	800273c <main+0x570>
				  }
				  break;
 8002760:	e092      	b.n	8002888 <main+0x6bc>
			  case 0x53://setting: S
				  Ethernet_setting = true;
 8002762:	4b19      	ldr	r3, [pc, #100]	@ (80027c8 <main+0x5fc>)
 8002764:	2201      	movs	r2, #1
 8002766:	701a      	strb	r2, [r3, #0]
				  for (uint8_t i =0; i<23; i++)
 8002768:	2300      	movs	r3, #0
 800276a:	f887 30b2 	strb.w	r3, [r7, #178]	@ 0xb2
 800276e:	e03b      	b.n	80027e8 <main+0x61c>
 8002770:	20000694 	.word	0x20000694
 8002774:	20000730 	.word	0x20000730
 8002778:	200006a4 	.word	0x200006a4
 800277c:	20000750 	.word	0x20000750
 8002780:	2000051f 	.word	0x2000051f
 8002784:	2000051c 	.word	0x2000051c
 8002788:	2000051d 	.word	0x2000051d
 800278c:	2000051e 	.word	0x2000051e
 8002790:	080098a4 	.word	0x080098a4
 8002794:	080098a8 	.word	0x080098a8
 8002798:	080098ac 	.word	0x080098ac
 800279c:	20000584 	.word	0x20000584
 80027a0:	20000582 	.word	0x20000582
 80027a4:	2000050c 	.word	0x2000050c
 80027a8:	20000542 	.word	0x20000542
 80027ac:	20000180 	.word	0x20000180
 80027b0:	200006a0 	.word	0x200006a0
 80027b4:	20000304 	.word	0x20000304
 80027b8:	20000698 	.word	0x20000698
 80027bc:	200006d0 	.word	0x200006d0
 80027c0:	20000728 	.word	0x20000728
 80027c4:	20000550 	.word	0x20000550
 80027c8:	20000729 	.word	0x20000729
				  {
					  Ethernet_setting_data[i] = buf[i+1];
 80027cc:	f897 30b2 	ldrb.w	r3, [r7, #178]	@ 0xb2
 80027d0:	1c5a      	adds	r2, r3, #1
 80027d2:	f897 30b2 	ldrb.w	r3, [r7, #178]	@ 0xb2
 80027d6:	499c      	ldr	r1, [pc, #624]	@ (8002a48 <main+0x87c>)
 80027d8:	5c89      	ldrb	r1, [r1, r2]
 80027da:	4a9c      	ldr	r2, [pc, #624]	@ (8002a4c <main+0x880>)
 80027dc:	54d1      	strb	r1, [r2, r3]
				  for (uint8_t i =0; i<23; i++)
 80027de:	f897 30b2 	ldrb.w	r3, [r7, #178]	@ 0xb2
 80027e2:	3301      	adds	r3, #1
 80027e4:	f887 30b2 	strb.w	r3, [r7, #178]	@ 0xb2
 80027e8:	f897 30b2 	ldrb.w	r3, [r7, #178]	@ 0xb2
 80027ec:	2b16      	cmp	r3, #22
 80027ee:	d9ed      	bls.n	80027cc <main+0x600>
				  }
				  break;
 80027f0:	e04a      	b.n	8002888 <main+0x6bc>
			  case 0x52:// reset board R: 0; read data: 1
				  if (buf[1] == 2)
 80027f2:	4b95      	ldr	r3, [pc, #596]	@ (8002a48 <main+0x87c>)
 80027f4:	785b      	ldrb	r3, [r3, #1]
 80027f6:	2b02      	cmp	r3, #2
 80027f8:	d108      	bne.n	800280c <main+0x640>
				  {
					  send_card_to_pc = true;
 80027fa:	4b95      	ldr	r3, [pc, #596]	@ (8002a50 <main+0x884>)
 80027fc:	2201      	movs	r2, #1
 80027fe:	701a      	strb	r2, [r3, #0]
					  time_break = HAL_GetTick();
 8002800:	f002 fb14 	bl	8004e2c <HAL_GetTick>
 8002804:	4603      	mov	r3, r0
 8002806:	4a93      	ldr	r2, [pc, #588]	@ (8002a54 <main+0x888>)
 8002808:	6013      	str	r3, [r2, #0]
				  } else
				  {
					  Ethernet_read_and_reset = true;
					  Ethernet_read_and_reset_data = buf[1];
				  }
				  break;
 800280a:	e03d      	b.n	8002888 <main+0x6bc>
				  } else if (buf[1] == 3)
 800280c:	4b8e      	ldr	r3, [pc, #568]	@ (8002a48 <main+0x87c>)
 800280e:	785b      	ldrb	r3, [r3, #1]
 8002810:	2b03      	cmp	r3, #3
 8002812:	d108      	bne.n	8002826 <main+0x65a>
					  send_card_done = true;
 8002814:	4b90      	ldr	r3, [pc, #576]	@ (8002a58 <main+0x88c>)
 8002816:	2201      	movs	r2, #1
 8002818:	701a      	strb	r2, [r3, #0]
					  time_break = HAL_GetTick();
 800281a:	f002 fb07 	bl	8004e2c <HAL_GetTick>
 800281e:	4603      	mov	r3, r0
 8002820:	4a8c      	ldr	r2, [pc, #560]	@ (8002a54 <main+0x888>)
 8002822:	6013      	str	r3, [r2, #0]
				  break;
 8002824:	e030      	b.n	8002888 <main+0x6bc>
					  Ethernet_read_and_reset = true;
 8002826:	4b8d      	ldr	r3, [pc, #564]	@ (8002a5c <main+0x890>)
 8002828:	2201      	movs	r2, #1
 800282a:	701a      	strb	r2, [r3, #0]
					  Ethernet_read_and_reset_data = buf[1];
 800282c:	4b86      	ldr	r3, [pc, #536]	@ (8002a48 <main+0x87c>)
 800282e:	785a      	ldrb	r2, [r3, #1]
 8002830:	4b8b      	ldr	r3, [pc, #556]	@ (8002a60 <main+0x894>)
 8002832:	701a      	strb	r2, [r3, #0]
				  break;
 8002834:	e028      	b.n	8002888 <main+0x6bc>
			  case 0x57: // W
				  switch (buf[1])
 8002836:	4b84      	ldr	r3, [pc, #528]	@ (8002a48 <main+0x87c>)
 8002838:	785b      	ldrb	r3, [r3, #1]
 800283a:	2b48      	cmp	r3, #72	@ 0x48
 800283c:	d017      	beq.n	800286e <main+0x6a2>
 800283e:	2b48      	cmp	r3, #72	@ 0x48
 8002840:	dc21      	bgt.n	8002886 <main+0x6ba>
 8002842:	2b41      	cmp	r3, #65	@ 0x41
 8002844:	d00a      	beq.n	800285c <main+0x690>
 8002846:	2b45      	cmp	r3, #69	@ 0x45
 8002848:	d11d      	bne.n	8002886 <main+0x6ba>
				  {
				  case 0x45:// E: errase
					  write_mode = true;
 800284a:	4b86      	ldr	r3, [pc, #536]	@ (8002a64 <main+0x898>)
 800284c:	2201      	movs	r2, #1
 800284e:	701a      	strb	r2, [r3, #0]
					  time_break = HAL_GetTick();
 8002850:	f002 faec 	bl	8004e2c <HAL_GetTick>
 8002854:	4603      	mov	r3, r0
 8002856:	4a7f      	ldr	r2, [pc, #508]	@ (8002a54 <main+0x888>)
 8002858:	6013      	str	r3, [r2, #0]
					  break;
 800285a:	e011      	b.n	8002880 <main+0x6b4>
				  case 0x41:// A: add card
					  write_mode_somecard = true;
 800285c:	4b82      	ldr	r3, [pc, #520]	@ (8002a68 <main+0x89c>)
 800285e:	2201      	movs	r2, #1
 8002860:	701a      	strb	r2, [r3, #0]
					  time_break = HAL_GetTick();
 8002862:	f002 fae3 	bl	8004e2c <HAL_GetTick>
 8002866:	4603      	mov	r3, r0
 8002868:	4a7a      	ldr	r2, [pc, #488]	@ (8002a54 <main+0x888>)
 800286a:	6013      	str	r3, [r2, #0]
					  break;
 800286c:	e008      	b.n	8002880 <main+0x6b4>
				  case 0x48:// H: add card by hand
					  write_card_by_hand = true;
 800286e:	4b7f      	ldr	r3, [pc, #508]	@ (8002a6c <main+0x8a0>)
 8002870:	2201      	movs	r2, #1
 8002872:	701a      	strb	r2, [r3, #0]
					  time_break = HAL_GetTick();
 8002874:	f002 fada 	bl	8004e2c <HAL_GetTick>
 8002878:	4603      	mov	r3, r0
 800287a:	4a76      	ldr	r2, [pc, #472]	@ (8002a54 <main+0x888>)
 800287c:	6013      	str	r3, [r2, #0]
					  break;
 800287e:	bf00      	nop
				  }
				  break;
 8002880:	e001      	b.n	8002886 <main+0x6ba>
				  break;
 8002882:	bf00      	nop
 8002884:	e000      	b.n	8002888 <main+0x6bc>
				  break;
 8002886:	bf00      	nop
	  } else
	  {
		  continue;
	  }

	  if (HAL_CAN_GetTxMailboxesFreeLevel(&hcan) == 0)
 8002888:	4879      	ldr	r0, [pc, #484]	@ (8002a70 <main+0x8a4>)
 800288a:	f002 fe36 	bl	80054fa <HAL_CAN_GetTxMailboxesFreeLevel>
 800288e:	4603      	mov	r3, r0
 8002890:	2b00      	cmp	r3, #0
 8002892:	d10a      	bne.n	80028aa <main+0x6de>
	  {
		  if (HAL_CAN_AbortTxRequest(&hcan, TxMailbox) != HAL_OK)
 8002894:	4b77      	ldr	r3, [pc, #476]	@ (8002a74 <main+0x8a8>)
 8002896:	681b      	ldr	r3, [r3, #0]
 8002898:	4619      	mov	r1, r3
 800289a:	4875      	ldr	r0, [pc, #468]	@ (8002a70 <main+0x8a4>)
 800289c:	f002 fde9 	bl	8005472 <HAL_CAN_AbortTxRequest>
 80028a0:	4603      	mov	r3, r0
 80028a2:	2b00      	cmp	r3, #0
 80028a4:	d001      	beq.n	80028aa <main+0x6de>
		  {
			HAL_NVIC_SystemReset();
 80028a6:	f003 fadc 	bl	8005e62 <HAL_NVIC_SystemReset>
		  }
	  }

	  // check connection Ethernet
	  if (keepalive == SOCK_ESTABLISHED && (abs(HAL_GetTick() - connected) < Timeout_heartbit))
 80028aa:	4b73      	ldr	r3, [pc, #460]	@ (8002a78 <main+0x8ac>)
 80028ac:	781b      	ldrb	r3, [r3, #0]
 80028ae:	2b17      	cmp	r3, #23
 80028b0:	d110      	bne.n	80028d4 <main+0x708>
 80028b2:	f002 fabb 	bl	8004e2c <HAL_GetTick>
 80028b6:	4602      	mov	r2, r0
 80028b8:	4b70      	ldr	r3, [pc, #448]	@ (8002a7c <main+0x8b0>)
 80028ba:	681b      	ldr	r3, [r3, #0]
 80028bc:	1ad3      	subs	r3, r2, r3
 80028be:	2b00      	cmp	r3, #0
 80028c0:	bfb8      	it	lt
 80028c2:	425b      	neglt	r3, r3
 80028c4:	f242 720f 	movw	r2, #9999	@ 0x270f
 80028c8:	4293      	cmp	r3, r2
 80028ca:	dc03      	bgt.n	80028d4 <main+0x708>
	  {
		  Ethernet_connected = true;
 80028cc:	4b6c      	ldr	r3, [pc, #432]	@ (8002a80 <main+0x8b4>)
 80028ce:	2201      	movs	r2, #1
 80028d0:	701a      	strb	r2, [r3, #0]
 80028d2:	e002      	b.n	80028da <main+0x70e>
	  } else
	  {
		  Ethernet_connected = false;// false
 80028d4:	4b6a      	ldr	r3, [pc, #424]	@ (8002a80 <main+0x8b4>)
 80028d6:	2200      	movs	r2, #0
 80028d8:	701a      	strb	r2, [r3, #0]
	  }
	  // check connection REB
	  if (abs(HAL_GetTick() - heardbit_REB) > Timeout_heartbit)
 80028da:	f002 faa7 	bl	8004e2c <HAL_GetTick>
 80028de:	4602      	mov	r2, r0
 80028e0:	4b68      	ldr	r3, [pc, #416]	@ (8002a84 <main+0x8b8>)
 80028e2:	681b      	ldr	r3, [r3, #0]
 80028e4:	1ad3      	subs	r3, r2, r3
 80028e6:	2b00      	cmp	r3, #0
 80028e8:	bfb8      	it	lt
 80028ea:	425b      	neglt	r3, r3
 80028ec:	f242 7210 	movw	r2, #10000	@ 0x2710
 80028f0:	4293      	cmp	r3, r2
 80028f2:	dd03      	ble.n	80028fc <main+0x730>
	  {
		  REB_connected = false;// false
 80028f4:	4b64      	ldr	r3, [pc, #400]	@ (8002a88 <main+0x8bc>)
 80028f6:	2200      	movs	r2, #0
 80028f8:	701a      	strb	r2, [r3, #0]
 80028fa:	e002      	b.n	8002902 <main+0x736>
	  } else
	  {
		  REB_connected = true;
 80028fc:	4b62      	ldr	r3, [pc, #392]	@ (8002a88 <main+0x8bc>)
 80028fe:	2201      	movs	r2, #1
 8002900:	701a      	strb	r2, [r3, #0]
	  }
	  //// received data from Ethernet
	  if (Ethernet_received)// 0x44
 8002902:	4b62      	ldr	r3, [pc, #392]	@ (8002a8c <main+0x8c0>)
 8002904:	781b      	ldrb	r3, [r3, #0]
 8002906:	2b00      	cmp	r3, #0
 8002908:	d022      	beq.n	8002950 <main+0x784>
	  {
		  Ethernet_received = false;
 800290a:	4b60      	ldr	r3, [pc, #384]	@ (8002a8c <main+0x8c0>)
 800290c:	2200      	movs	r2, #0
 800290e:	701a      	strb	r2, [r3, #0]
		  switch (Ethernet_received_data[0])
 8002910:	4b5f      	ldr	r3, [pc, #380]	@ (8002a90 <main+0x8c4>)
 8002912:	781b      	ldrb	r3, [r3, #0]
 8002914:	2b00      	cmp	r3, #0
 8002916:	d002      	beq.n	800291e <main+0x752>
 8002918:	2b01      	cmp	r3, #1
 800291a:	d00a      	beq.n	8002932 <main+0x766>
 800291c:	e018      	b.n	8002950 <main+0x784>
		  {
		  case 0:
			  send_uart = 0;
 800291e:	4b5d      	ldr	r3, [pc, #372]	@ (8002a94 <main+0x8c8>)
 8002920:	2200      	movs	r2, #0
 8002922:	701a      	strb	r2, [r3, #0]
			  send_uart_to_REB = true;
 8002924:	4b5c      	ldr	r3, [pc, #368]	@ (8002a98 <main+0x8cc>)
 8002926:	2201      	movs	r2, #1
 8002928:	701a      	strb	r2, [r3, #0]
			  isSendDataEth = false;
 800292a:	4b5c      	ldr	r3, [pc, #368]	@ (8002a9c <main+0x8d0>)
 800292c:	2200      	movs	r2, #0
 800292e:	701a      	strb	r2, [r3, #0]
			  break;
 8002930:	e00e      	b.n	8002950 <main+0x784>
		  case 1: // data ok
			  new_card_update(&Ethernet_received_data[1], x, x_timer);
 8002932:	4a5b      	ldr	r2, [pc, #364]	@ (8002aa0 <main+0x8d4>)
 8002934:	495b      	ldr	r1, [pc, #364]	@ (8002aa4 <main+0x8d8>)
 8002936:	485c      	ldr	r0, [pc, #368]	@ (8002aa8 <main+0x8dc>)
 8002938:	f001 fcd5 	bl	80042e6 <new_card_update>
			  send_uart = 1;
 800293c:	4b55      	ldr	r3, [pc, #340]	@ (8002a94 <main+0x8c8>)
 800293e:	2201      	movs	r2, #1
 8002940:	701a      	strb	r2, [r3, #0]
			  send_uart_to_REB = true;
 8002942:	4b55      	ldr	r3, [pc, #340]	@ (8002a98 <main+0x8cc>)
 8002944:	2201      	movs	r2, #1
 8002946:	701a      	strb	r2, [r3, #0]
			  isSendDataEth = false;
 8002948:	4b54      	ldr	r3, [pc, #336]	@ (8002a9c <main+0x8d0>)
 800294a:	2200      	movs	r2, #0
 800294c:	701a      	strb	r2, [r3, #0]
			  break;
 800294e:	bf00      	nop
		  }
	  }

	  // Nu khng nhn c Data t server sau khi gi m th, th x l offline

	  if ((isSendDataEth == true) && (!Ethernet_connected || ((HAL_GetTick() - timeSendDataEth) > 500)))
 8002950:	4b52      	ldr	r3, [pc, #328]	@ (8002a9c <main+0x8d0>)
 8002952:	781b      	ldrb	r3, [r3, #0]
 8002954:	2b00      	cmp	r3, #0
 8002956:	d067      	beq.n	8002a28 <main+0x85c>
 8002958:	4b49      	ldr	r3, [pc, #292]	@ (8002a80 <main+0x8b4>)
 800295a:	781b      	ldrb	r3, [r3, #0]
 800295c:	f083 0301 	eor.w	r3, r3, #1
 8002960:	b2db      	uxtb	r3, r3
 8002962:	2b00      	cmp	r3, #0
 8002964:	d108      	bne.n	8002978 <main+0x7ac>
 8002966:	f002 fa61 	bl	8004e2c <HAL_GetTick>
 800296a:	4602      	mov	r2, r0
 800296c:	4b4f      	ldr	r3, [pc, #316]	@ (8002aac <main+0x8e0>)
 800296e:	681b      	ldr	r3, [r3, #0]
 8002970:	1ad3      	subs	r3, r2, r3
 8002972:	f5b3 7ffa 	cmp.w	r3, #500	@ 0x1f4
 8002976:	d957      	bls.n	8002a28 <main+0x85c>
	  {
		  isSendDataEth = false;
 8002978:	4b48      	ldr	r3, [pc, #288]	@ (8002a9c <main+0x8d0>)
 800297a:	2200      	movs	r2, #0
 800297c:	701a      	strb	r2, [r3, #0]
		  compare_user = binary_search(number_card, wcode);
 800297e:	4b4c      	ldr	r3, [pc, #304]	@ (8002ab0 <main+0x8e4>)
 8002980:	6819      	ldr	r1, [r3, #0]
 8002982:	4b4c      	ldr	r3, [pc, #304]	@ (8002ab4 <main+0x8e8>)
 8002984:	681a      	ldr	r2, [r3, #0]
 8002986:	4c4c      	ldr	r4, [pc, #304]	@ (8002ab8 <main+0x8ec>)
 8002988:	463b      	mov	r3, r7
 800298a:	4618      	mov	r0, r3
 800298c:	f001 fc58 	bl	8004240 <binary_search>
 8002990:	4625      	mov	r5, r4
 8002992:	463c      	mov	r4, r7
 8002994:	cc0f      	ldmia	r4!, {r0, r1, r2, r3}
 8002996:	c50f      	stmia	r5!, {r0, r1, r2, r3}
 8002998:	e894 000f 	ldmia.w	r4, {r0, r1, r2, r3}
 800299c:	e885 000f 	stmia.w	r5, {r0, r1, r2, r3}
		  if (compare_user.STT)
 80029a0:	4b45      	ldr	r3, [pc, #276]	@ (8002ab8 <main+0x8ec>)
 80029a2:	681b      	ldr	r3, [r3, #0]
 80029a4:	2b00      	cmp	r3, #0
 80029a6:	d039      	beq.n	8002a1c <main+0x850>
		  {
			  timeBegin = mktime(compare_user.beginYear, compare_user.beginMonth, compare_user.beginDate, compare_user.beginHour, compare_user.beginMinute);
 80029a8:	4b43      	ldr	r3, [pc, #268]	@ (8002ab8 <main+0x8ec>)
 80029aa:	8a18      	ldrh	r0, [r3, #16]
 80029ac:	4b42      	ldr	r3, [pc, #264]	@ (8002ab8 <main+0x8ec>)
 80029ae:	7c99      	ldrb	r1, [r3, #18]
 80029b0:	4b41      	ldr	r3, [pc, #260]	@ (8002ab8 <main+0x8ec>)
 80029b2:	7cda      	ldrb	r2, [r3, #19]
 80029b4:	4b40      	ldr	r3, [pc, #256]	@ (8002ab8 <main+0x8ec>)
 80029b6:	7d1c      	ldrb	r4, [r3, #20]
 80029b8:	4b3f      	ldr	r3, [pc, #252]	@ (8002ab8 <main+0x8ec>)
 80029ba:	7d5b      	ldrb	r3, [r3, #21]
 80029bc:	9300      	str	r3, [sp, #0]
 80029be:	4623      	mov	r3, r4
 80029c0:	f001 fefc 	bl	80047bc <mktime>
 80029c4:	4603      	mov	r3, r0
 80029c6:	4a3d      	ldr	r2, [pc, #244]	@ (8002abc <main+0x8f0>)
 80029c8:	6013      	str	r3, [r2, #0]
			  timeEnd = mktime(compare_user.endYear, compare_user.endMonth, compare_user.endDate, compare_user.endHour, compare_user.endMinute);
 80029ca:	4b3b      	ldr	r3, [pc, #236]	@ (8002ab8 <main+0x8ec>)
 80029cc:	8ad8      	ldrh	r0, [r3, #22]
 80029ce:	4b3a      	ldr	r3, [pc, #232]	@ (8002ab8 <main+0x8ec>)
 80029d0:	7e19      	ldrb	r1, [r3, #24]
 80029d2:	4b39      	ldr	r3, [pc, #228]	@ (8002ab8 <main+0x8ec>)
 80029d4:	7e5a      	ldrb	r2, [r3, #25]
 80029d6:	4b38      	ldr	r3, [pc, #224]	@ (8002ab8 <main+0x8ec>)
 80029d8:	7e9c      	ldrb	r4, [r3, #26]
 80029da:	4b37      	ldr	r3, [pc, #220]	@ (8002ab8 <main+0x8ec>)
 80029dc:	7edb      	ldrb	r3, [r3, #27]
 80029de:	9300      	str	r3, [sp, #0]
 80029e0:	4623      	mov	r3, r4
 80029e2:	f001 feeb 	bl	80047bc <mktime>
 80029e6:	4603      	mov	r3, r0
 80029e8:	4a35      	ldr	r2, [pc, #212]	@ (8002ac0 <main+0x8f4>)
 80029ea:	6013      	str	r3, [r2, #0]
			  if ((timeBegin < timeNow) && (timeEnd > timeNow))
 80029ec:	4b33      	ldr	r3, [pc, #204]	@ (8002abc <main+0x8f0>)
 80029ee:	681a      	ldr	r2, [r3, #0]
 80029f0:	4b34      	ldr	r3, [pc, #208]	@ (8002ac4 <main+0x8f8>)
 80029f2:	681b      	ldr	r3, [r3, #0]
 80029f4:	429a      	cmp	r2, r3
 80029f6:	d217      	bcs.n	8002a28 <main+0x85c>
 80029f8:	4b31      	ldr	r3, [pc, #196]	@ (8002ac0 <main+0x8f4>)
 80029fa:	681a      	ldr	r2, [r3, #0]
 80029fc:	4b31      	ldr	r3, [pc, #196]	@ (8002ac4 <main+0x8f8>)
 80029fe:	681b      	ldr	r3, [r3, #0]
 8002a00:	429a      	cmp	r2, r3
 8002a02:	d911      	bls.n	8002a28 <main+0x85c>
			  {
				  new_card_update(compare_user.permis, x, x_timer);
 8002a04:	4a26      	ldr	r2, [pc, #152]	@ (8002aa0 <main+0x8d4>)
 8002a06:	4927      	ldr	r1, [pc, #156]	@ (8002aa4 <main+0x8d8>)
 8002a08:	482f      	ldr	r0, [pc, #188]	@ (8002ac8 <main+0x8fc>)
 8002a0a:	f001 fc6c 	bl	80042e6 <new_card_update>
				  send_uart = 1;
 8002a0e:	4b21      	ldr	r3, [pc, #132]	@ (8002a94 <main+0x8c8>)
 8002a10:	2201      	movs	r2, #1
 8002a12:	701a      	strb	r2, [r3, #0]
				  send_uart_to_REB = true;
 8002a14:	4b20      	ldr	r3, [pc, #128]	@ (8002a98 <main+0x8cc>)
 8002a16:	2201      	movs	r2, #1
 8002a18:	701a      	strb	r2, [r3, #0]
 8002a1a:	e005      	b.n	8002a28 <main+0x85c>
			  }
		  } else
		  {
			  send_uart = 0;
 8002a1c:	4b1d      	ldr	r3, [pc, #116]	@ (8002a94 <main+0x8c8>)
 8002a1e:	2200      	movs	r2, #0
 8002a20:	701a      	strb	r2, [r3, #0]
			  send_uart_to_REB = true;
 8002a22:	4b1d      	ldr	r3, [pc, #116]	@ (8002a98 <main+0x8cc>)
 8002a24:	2201      	movs	r2, #1
 8002a26:	701a      	strb	r2, [r3, #0]
		  }
	  }
	  //// setting from PC Ethernet
	  if (Ethernet_setting) // 0x53
 8002a28:	4b28      	ldr	r3, [pc, #160]	@ (8002acc <main+0x900>)
 8002a2a:	781b      	ldrb	r3, [r3, #0]
 8002a2c:	2b00      	cmp	r3, #0
 8002a2e:	f000 80c8 	beq.w	8002bc2 <main+0x9f6>
	  {
		  Ethernet_setting = false;
 8002a32:	4b26      	ldr	r3, [pc, #152]	@ (8002acc <main+0x900>)
 8002a34:	2200      	movs	r2, #0
 8002a36:	701a      	strb	r2, [r3, #0]
		  switch (Ethernet_setting_data[0])
 8002a38:	4b04      	ldr	r3, [pc, #16]	@ (8002a4c <main+0x880>)
 8002a3a:	781b      	ldrb	r3, [r3, #0]
 8002a3c:	2b00      	cmp	r3, #0
 8002a3e:	d047      	beq.n	8002ad0 <main+0x904>
 8002a40:	2b01      	cmp	r3, #1
 8002a42:	f000 80b4 	beq.w	8002bae <main+0x9e2>
 8002a46:	e0bc      	b.n	8002bc2 <main+0x9f6>
 8002a48:	20000304 	.word	0x20000304
 8002a4c:	2000055c 	.word	0x2000055c
 8002a50:	20000725 	.word	0x20000725
 8002a54:	2000069c 	.word	0x2000069c
 8002a58:	20000726 	.word	0x20000726
 8002a5c:	2000072c 	.word	0x2000072c
 8002a60:	20000575 	.word	0x20000575
 8002a64:	20000723 	.word	0x20000723
 8002a68:	20000722 	.word	0x20000722
 8002a6c:	2000072b 	.word	0x2000072b
 8002a70:	2000009c 	.word	0x2000009c
 8002a74:	20000590 	.word	0x20000590
 8002a78:	2000054c 	.word	0x2000054c
 8002a7c:	20000698 	.word	0x20000698
 8002a80:	20000720 	.word	0x20000720
 8002a84:	200006b4 	.word	0x200006b4
 8002a88:	20000036 	.word	0x20000036
 8002a8c:	20000728 	.word	0x20000728
 8002a90:	20000550 	.word	0x20000550
 8002a94:	20000580 	.word	0x20000580
 8002a98:	2000072f 	.word	0x2000072f
 8002a9c:	20000721 	.word	0x20000721
 8002aa0:	20000594 	.word	0x20000594
 8002aa4:	200006e0 	.word	0x200006e0
 8002aa8:	20000551 	.word	0x20000551
 8002aac:	200006b8 	.word	0x200006b8
 8002ab0:	20000694 	.word	0x20000694
 8002ab4:	2000058c 	.word	0x2000058c
 8002ab8:	20000770 	.word	0x20000770
 8002abc:	200006d4 	.word	0x200006d4
 8002ac0:	200006d8 	.word	0x200006d8
 8002ac4:	200006d0 	.word	0x200006d0
 8002ac8:	20000778 	.word	0x20000778
 8002acc:	20000729 	.word	0x20000729
		  {
		  case 0:// setting board
			  ip1 = Ethernet_setting_data[1];
 8002ad0:	4b98      	ldr	r3, [pc, #608]	@ (8002d34 <main+0xb68>)
 8002ad2:	785a      	ldrb	r2, [r3, #1]
 8002ad4:	4b98      	ldr	r3, [pc, #608]	@ (8002d38 <main+0xb6c>)
 8002ad6:	701a      	strb	r2, [r3, #0]
			  ip2 = Ethernet_setting_data[2];
 8002ad8:	4b96      	ldr	r3, [pc, #600]	@ (8002d34 <main+0xb68>)
 8002ada:	789a      	ldrb	r2, [r3, #2]
 8002adc:	4b97      	ldr	r3, [pc, #604]	@ (8002d3c <main+0xb70>)
 8002ade:	701a      	strb	r2, [r3, #0]
			  ip3 = Ethernet_setting_data[3];
 8002ae0:	4b94      	ldr	r3, [pc, #592]	@ (8002d34 <main+0xb68>)
 8002ae2:	78da      	ldrb	r2, [r3, #3]
 8002ae4:	4b96      	ldr	r3, [pc, #600]	@ (8002d40 <main+0xb74>)
 8002ae6:	701a      	strb	r2, [r3, #0]
			  ip4 = Ethernet_setting_data[4];
 8002ae8:	4b92      	ldr	r3, [pc, #584]	@ (8002d34 <main+0xb68>)
 8002aea:	791a      	ldrb	r2, [r3, #4]
 8002aec:	4b95      	ldr	r3, [pc, #596]	@ (8002d44 <main+0xb78>)
 8002aee:	701a      	strb	r2, [r3, #0]
			  port_client = Ethernet_setting_data[5]<<8|Ethernet_setting_data[6];
 8002af0:	4b90      	ldr	r3, [pc, #576]	@ (8002d34 <main+0xb68>)
 8002af2:	795b      	ldrb	r3, [r3, #5]
 8002af4:	b21b      	sxth	r3, r3
 8002af6:	021b      	lsls	r3, r3, #8
 8002af8:	b21a      	sxth	r2, r3
 8002afa:	4b8e      	ldr	r3, [pc, #568]	@ (8002d34 <main+0xb68>)
 8002afc:	799b      	ldrb	r3, [r3, #6]
 8002afe:	b21b      	sxth	r3, r3
 8002b00:	4313      	orrs	r3, r2
 8002b02:	b21b      	sxth	r3, r3
 8002b04:	b29a      	uxth	r2, r3
 8002b06:	4b90      	ldr	r3, [pc, #576]	@ (8002d48 <main+0xb7c>)
 8002b08:	801a      	strh	r2, [r3, #0]
			  ip_server1 = Ethernet_setting_data[7];
 8002b0a:	4b8a      	ldr	r3, [pc, #552]	@ (8002d34 <main+0xb68>)
 8002b0c:	79da      	ldrb	r2, [r3, #7]
 8002b0e:	4b8f      	ldr	r3, [pc, #572]	@ (8002d4c <main+0xb80>)
 8002b10:	701a      	strb	r2, [r3, #0]
			  ip_server2 = Ethernet_setting_data[8];
 8002b12:	4b88      	ldr	r3, [pc, #544]	@ (8002d34 <main+0xb68>)
 8002b14:	7a1a      	ldrb	r2, [r3, #8]
 8002b16:	4b8e      	ldr	r3, [pc, #568]	@ (8002d50 <main+0xb84>)
 8002b18:	701a      	strb	r2, [r3, #0]
			  ip_server3 = Ethernet_setting_data[9];
 8002b1a:	4b86      	ldr	r3, [pc, #536]	@ (8002d34 <main+0xb68>)
 8002b1c:	7a5a      	ldrb	r2, [r3, #9]
 8002b1e:	4b8d      	ldr	r3, [pc, #564]	@ (8002d54 <main+0xb88>)
 8002b20:	701a      	strb	r2, [r3, #0]
			  ip_server4 = Ethernet_setting_data[10];
 8002b22:	4b84      	ldr	r3, [pc, #528]	@ (8002d34 <main+0xb68>)
 8002b24:	7a9a      	ldrb	r2, [r3, #10]
 8002b26:	4b8c      	ldr	r3, [pc, #560]	@ (8002d58 <main+0xb8c>)
 8002b28:	701a      	strb	r2, [r3, #0]
			  port_server = Ethernet_setting_data[11]<<8|Ethernet_setting_data[12];
 8002b2a:	4b82      	ldr	r3, [pc, #520]	@ (8002d34 <main+0xb68>)
 8002b2c:	7adb      	ldrb	r3, [r3, #11]
 8002b2e:	b21b      	sxth	r3, r3
 8002b30:	021b      	lsls	r3, r3, #8
 8002b32:	b21a      	sxth	r2, r3
 8002b34:	4b7f      	ldr	r3, [pc, #508]	@ (8002d34 <main+0xb68>)
 8002b36:	7b1b      	ldrb	r3, [r3, #12]
 8002b38:	b21b      	sxth	r3, r3
 8002b3a:	4313      	orrs	r3, r2
 8002b3c:	b21b      	sxth	r3, r3
 8002b3e:	b29a      	uxth	r2, r3
 8002b40:	4b86      	ldr	r3, [pc, #536]	@ (8002d5c <main+0xb90>)
 8002b42:	801a      	strh	r2, [r3, #0]
			  time_delay = Ethernet_setting_data[13];
 8002b44:	4b7b      	ldr	r3, [pc, #492]	@ (8002d34 <main+0xb68>)
 8002b46:	7b5a      	ldrb	r2, [r3, #13]
 8002b48:	4b85      	ldr	r3, [pc, #532]	@ (8002d60 <main+0xb94>)
 8002b4a:	701a      	strb	r2, [r3, #0]
			  elevator_mode = Ethernet_setting_data[14];
 8002b4c:	4b79      	ldr	r3, [pc, #484]	@ (8002d34 <main+0xb68>)
 8002b4e:	7b9a      	ldrb	r2, [r3, #14]
 8002b50:	4b84      	ldr	r3, [pc, #528]	@ (8002d64 <main+0xb98>)
 8002b52:	701a      	strb	r2, [r3, #0]
			  lock_default_1 = Ethernet_setting_data[15]|(Ethernet_setting_data[16]<<8)|(Ethernet_setting_data[17]<<16)|(Ethernet_setting_data[18]<<24);
 8002b54:	4b77      	ldr	r3, [pc, #476]	@ (8002d34 <main+0xb68>)
 8002b56:	7bdb      	ldrb	r3, [r3, #15]
 8002b58:	461a      	mov	r2, r3
 8002b5a:	4b76      	ldr	r3, [pc, #472]	@ (8002d34 <main+0xb68>)
 8002b5c:	7c1b      	ldrb	r3, [r3, #16]
 8002b5e:	021b      	lsls	r3, r3, #8
 8002b60:	431a      	orrs	r2, r3
 8002b62:	4b74      	ldr	r3, [pc, #464]	@ (8002d34 <main+0xb68>)
 8002b64:	7c5b      	ldrb	r3, [r3, #17]
 8002b66:	041b      	lsls	r3, r3, #16
 8002b68:	431a      	orrs	r2, r3
 8002b6a:	4b72      	ldr	r3, [pc, #456]	@ (8002d34 <main+0xb68>)
 8002b6c:	7c9b      	ldrb	r3, [r3, #18]
 8002b6e:	061b      	lsls	r3, r3, #24
 8002b70:	4313      	orrs	r3, r2
 8002b72:	461a      	mov	r2, r3
 8002b74:	4b7c      	ldr	r3, [pc, #496]	@ (8002d68 <main+0xb9c>)
 8002b76:	601a      	str	r2, [r3, #0]
			  lock_default_2 = Ethernet_setting_data[19]|(Ethernet_setting_data[20]<<8)|(Ethernet_setting_data[21]<<16)|(Ethernet_setting_data[22]<<24);
 8002b78:	4b6e      	ldr	r3, [pc, #440]	@ (8002d34 <main+0xb68>)
 8002b7a:	7cdb      	ldrb	r3, [r3, #19]
 8002b7c:	461a      	mov	r2, r3
 8002b7e:	4b6d      	ldr	r3, [pc, #436]	@ (8002d34 <main+0xb68>)
 8002b80:	7d1b      	ldrb	r3, [r3, #20]
 8002b82:	021b      	lsls	r3, r3, #8
 8002b84:	431a      	orrs	r2, r3
 8002b86:	4b6b      	ldr	r3, [pc, #428]	@ (8002d34 <main+0xb68>)
 8002b88:	7d5b      	ldrb	r3, [r3, #21]
 8002b8a:	041b      	lsls	r3, r3, #16
 8002b8c:	431a      	orrs	r2, r3
 8002b8e:	4b69      	ldr	r3, [pc, #420]	@ (8002d34 <main+0xb68>)
 8002b90:	7d9b      	ldrb	r3, [r3, #22]
 8002b92:	061b      	lsls	r3, r3, #24
 8002b94:	4313      	orrs	r3, r2
 8002b96:	461a      	mov	r2, r3
 8002b98:	4b74      	ldr	r3, [pc, #464]	@ (8002d6c <main+0xba0>)
 8002b9a:	601a      	str	r2, [r3, #0]
			  save_data();
 8002b9c:	f001 fa5c 	bl	8004058 <save_data>
			  sendString("S", "OK");
 8002ba0:	4973      	ldr	r1, [pc, #460]	@ (8002d70 <main+0xba4>)
 8002ba2:	4874      	ldr	r0, [pc, #464]	@ (8002d74 <main+0xba8>)
 8002ba4:	f001 f92c 	bl	8003e00 <sendString>
			  HAL_NVIC_SystemReset();
 8002ba8:	f003 f95b 	bl	8005e62 <HAL_NVIC_SystemReset>
			  break;
 8002bac:	e009      	b.n	8002bc2 <main+0x9f6>
		  case 1:// bypass mode
			  bypass_from_Eth = Ethernet_setting_data[1];
 8002bae:	4b61      	ldr	r3, [pc, #388]	@ (8002d34 <main+0xb68>)
 8002bb0:	785b      	ldrb	r3, [r3, #1]
 8002bb2:	2b00      	cmp	r3, #0
 8002bb4:	bf14      	ite	ne
 8002bb6:	2301      	movne	r3, #1
 8002bb8:	2300      	moveq	r3, #0
 8002bba:	b2da      	uxtb	r2, r3
 8002bbc:	4b6e      	ldr	r3, [pc, #440]	@ (8002d78 <main+0xbac>)
 8002bbe:	701a      	strb	r2, [r3, #0]
			  break;
 8002bc0:	bf00      	nop
		  }
	  }
	  /// reset or conmand read data from PC
	  if (Ethernet_read_and_reset)// 0x52
 8002bc2:	4b6e      	ldr	r3, [pc, #440]	@ (8002d7c <main+0xbb0>)
 8002bc4:	781b      	ldrb	r3, [r3, #0]
 8002bc6:	2b00      	cmp	r3, #0
 8002bc8:	f000 8089 	beq.w	8002cde <main+0xb12>
	  {
		  Ethernet_read_and_reset = false;
 8002bcc:	4b6b      	ldr	r3, [pc, #428]	@ (8002d7c <main+0xbb0>)
 8002bce:	2200      	movs	r2, #0
 8002bd0:	701a      	strb	r2, [r3, #0]
		  switch (Ethernet_read_and_reset_data)
 8002bd2:	4b6b      	ldr	r3, [pc, #428]	@ (8002d80 <main+0xbb4>)
 8002bd4:	781b      	ldrb	r3, [r3, #0]
 8002bd6:	2b00      	cmp	r3, #0
 8002bd8:	d002      	beq.n	8002be0 <main+0xa14>
 8002bda:	2b01      	cmp	r3, #1
 8002bdc:	d003      	beq.n	8002be6 <main+0xa1a>
 8002bde:	e07e      	b.n	8002cde <main+0xb12>
		  {
		  case 0:
			  HAL_NVIC_SystemReset();
 8002be0:	f003 f93f 	bl	8005e62 <HAL_NVIC_SystemReset>
			  break;
 8002be4:	e07b      	b.n	8002cde <main+0xb12>
		  case 1:
			  data_info[0] = ip1;
 8002be6:	4b54      	ldr	r3, [pc, #336]	@ (8002d38 <main+0xb6c>)
 8002be8:	781a      	ldrb	r2, [r3, #0]
 8002bea:	4b66      	ldr	r3, [pc, #408]	@ (8002d84 <main+0xbb8>)
 8002bec:	701a      	strb	r2, [r3, #0]
			  data_info[1] = ip2;
 8002bee:	4b53      	ldr	r3, [pc, #332]	@ (8002d3c <main+0xb70>)
 8002bf0:	781a      	ldrb	r2, [r3, #0]
 8002bf2:	4b64      	ldr	r3, [pc, #400]	@ (8002d84 <main+0xbb8>)
 8002bf4:	705a      	strb	r2, [r3, #1]
			  data_info[2] = ip3;
 8002bf6:	4b52      	ldr	r3, [pc, #328]	@ (8002d40 <main+0xb74>)
 8002bf8:	781a      	ldrb	r2, [r3, #0]
 8002bfa:	4b62      	ldr	r3, [pc, #392]	@ (8002d84 <main+0xbb8>)
 8002bfc:	709a      	strb	r2, [r3, #2]
			  data_info[3] = ip4;
 8002bfe:	4b51      	ldr	r3, [pc, #324]	@ (8002d44 <main+0xb78>)
 8002c00:	781a      	ldrb	r2, [r3, #0]
 8002c02:	4b60      	ldr	r3, [pc, #384]	@ (8002d84 <main+0xbb8>)
 8002c04:	70da      	strb	r2, [r3, #3]
			  data_info[4] = port_client>>8;
 8002c06:	4b50      	ldr	r3, [pc, #320]	@ (8002d48 <main+0xb7c>)
 8002c08:	881b      	ldrh	r3, [r3, #0]
 8002c0a:	0a1b      	lsrs	r3, r3, #8
 8002c0c:	b29b      	uxth	r3, r3
 8002c0e:	b2da      	uxtb	r2, r3
 8002c10:	4b5c      	ldr	r3, [pc, #368]	@ (8002d84 <main+0xbb8>)
 8002c12:	711a      	strb	r2, [r3, #4]
			  data_info[5] = port_client & 0xFF;
 8002c14:	4b4c      	ldr	r3, [pc, #304]	@ (8002d48 <main+0xb7c>)
 8002c16:	881b      	ldrh	r3, [r3, #0]
 8002c18:	b2da      	uxtb	r2, r3
 8002c1a:	4b5a      	ldr	r3, [pc, #360]	@ (8002d84 <main+0xbb8>)
 8002c1c:	715a      	strb	r2, [r3, #5]
			  data_info[6] = ip_server1;
 8002c1e:	4b4b      	ldr	r3, [pc, #300]	@ (8002d4c <main+0xb80>)
 8002c20:	781a      	ldrb	r2, [r3, #0]
 8002c22:	4b58      	ldr	r3, [pc, #352]	@ (8002d84 <main+0xbb8>)
 8002c24:	719a      	strb	r2, [r3, #6]
			  data_info[7] = ip_server2;
 8002c26:	4b4a      	ldr	r3, [pc, #296]	@ (8002d50 <main+0xb84>)
 8002c28:	781a      	ldrb	r2, [r3, #0]
 8002c2a:	4b56      	ldr	r3, [pc, #344]	@ (8002d84 <main+0xbb8>)
 8002c2c:	71da      	strb	r2, [r3, #7]
			  data_info[8] = ip_server3;
 8002c2e:	4b49      	ldr	r3, [pc, #292]	@ (8002d54 <main+0xb88>)
 8002c30:	781a      	ldrb	r2, [r3, #0]
 8002c32:	4b54      	ldr	r3, [pc, #336]	@ (8002d84 <main+0xbb8>)
 8002c34:	721a      	strb	r2, [r3, #8]
			  data_info[9] = ip_server4;
 8002c36:	4b48      	ldr	r3, [pc, #288]	@ (8002d58 <main+0xb8c>)
 8002c38:	781a      	ldrb	r2, [r3, #0]
 8002c3a:	4b52      	ldr	r3, [pc, #328]	@ (8002d84 <main+0xbb8>)
 8002c3c:	725a      	strb	r2, [r3, #9]
			  data_info[10] = port_server>>8;
 8002c3e:	4b47      	ldr	r3, [pc, #284]	@ (8002d5c <main+0xb90>)
 8002c40:	881b      	ldrh	r3, [r3, #0]
 8002c42:	0a1b      	lsrs	r3, r3, #8
 8002c44:	b29b      	uxth	r3, r3
 8002c46:	b2da      	uxtb	r2, r3
 8002c48:	4b4e      	ldr	r3, [pc, #312]	@ (8002d84 <main+0xbb8>)
 8002c4a:	729a      	strb	r2, [r3, #10]
			  data_info[11] = port_server & 0xFF;
 8002c4c:	4b43      	ldr	r3, [pc, #268]	@ (8002d5c <main+0xb90>)
 8002c4e:	881b      	ldrh	r3, [r3, #0]
 8002c50:	b2da      	uxtb	r2, r3
 8002c52:	4b4c      	ldr	r3, [pc, #304]	@ (8002d84 <main+0xbb8>)
 8002c54:	72da      	strb	r2, [r3, #11]
			  data_info[12] = time_delay;
 8002c56:	4b42      	ldr	r3, [pc, #264]	@ (8002d60 <main+0xb94>)
 8002c58:	781a      	ldrb	r2, [r3, #0]
 8002c5a:	4b4a      	ldr	r3, [pc, #296]	@ (8002d84 <main+0xbb8>)
 8002c5c:	731a      	strb	r2, [r3, #12]
			  data_info[13] = elevator_mode;
 8002c5e:	4b41      	ldr	r3, [pc, #260]	@ (8002d64 <main+0xb98>)
 8002c60:	781a      	ldrb	r2, [r3, #0]
 8002c62:	4b48      	ldr	r3, [pc, #288]	@ (8002d84 <main+0xbb8>)
 8002c64:	735a      	strb	r2, [r3, #13]
			  data_info[14] = number_card>>24&0xFF;
 8002c66:	4b48      	ldr	r3, [pc, #288]	@ (8002d88 <main+0xbbc>)
 8002c68:	681b      	ldr	r3, [r3, #0]
 8002c6a:	0e1b      	lsrs	r3, r3, #24
 8002c6c:	b2da      	uxtb	r2, r3
 8002c6e:	4b45      	ldr	r3, [pc, #276]	@ (8002d84 <main+0xbb8>)
 8002c70:	739a      	strb	r2, [r3, #14]
			  data_info[15] = number_card>>16&0xFF;
 8002c72:	4b45      	ldr	r3, [pc, #276]	@ (8002d88 <main+0xbbc>)
 8002c74:	681b      	ldr	r3, [r3, #0]
 8002c76:	0c1b      	lsrs	r3, r3, #16
 8002c78:	b2da      	uxtb	r2, r3
 8002c7a:	4b42      	ldr	r3, [pc, #264]	@ (8002d84 <main+0xbb8>)
 8002c7c:	73da      	strb	r2, [r3, #15]
			  data_info[16] = number_card>>8&0xFF;
 8002c7e:	4b42      	ldr	r3, [pc, #264]	@ (8002d88 <main+0xbbc>)
 8002c80:	681b      	ldr	r3, [r3, #0]
 8002c82:	0a1b      	lsrs	r3, r3, #8
 8002c84:	b2da      	uxtb	r2, r3
 8002c86:	4b3f      	ldr	r3, [pc, #252]	@ (8002d84 <main+0xbb8>)
 8002c88:	741a      	strb	r2, [r3, #16]
			  data_info[17] = number_card&0xFF;
 8002c8a:	4b3f      	ldr	r3, [pc, #252]	@ (8002d88 <main+0xbbc>)
 8002c8c:	681b      	ldr	r3, [r3, #0]
 8002c8e:	b2da      	uxtb	r2, r3
 8002c90:	4b3c      	ldr	r3, [pc, #240]	@ (8002d84 <main+0xbb8>)
 8002c92:	745a      	strb	r2, [r3, #17]
			  data_info[18] = lock_default[0];
 8002c94:	4b3d      	ldr	r3, [pc, #244]	@ (8002d8c <main+0xbc0>)
 8002c96:	781a      	ldrb	r2, [r3, #0]
 8002c98:	4b3a      	ldr	r3, [pc, #232]	@ (8002d84 <main+0xbb8>)
 8002c9a:	749a      	strb	r2, [r3, #18]
			  data_info[19] = lock_default[1];
 8002c9c:	4b3b      	ldr	r3, [pc, #236]	@ (8002d8c <main+0xbc0>)
 8002c9e:	785a      	ldrb	r2, [r3, #1]
 8002ca0:	4b38      	ldr	r3, [pc, #224]	@ (8002d84 <main+0xbb8>)
 8002ca2:	74da      	strb	r2, [r3, #19]
			  data_info[20] = lock_default[2];
 8002ca4:	4b39      	ldr	r3, [pc, #228]	@ (8002d8c <main+0xbc0>)
 8002ca6:	789a      	ldrb	r2, [r3, #2]
 8002ca8:	4b36      	ldr	r3, [pc, #216]	@ (8002d84 <main+0xbb8>)
 8002caa:	751a      	strb	r2, [r3, #20]
			  data_info[21] = lock_default[3];
 8002cac:	4b37      	ldr	r3, [pc, #220]	@ (8002d8c <main+0xbc0>)
 8002cae:	78da      	ldrb	r2, [r3, #3]
 8002cb0:	4b34      	ldr	r3, [pc, #208]	@ (8002d84 <main+0xbb8>)
 8002cb2:	755a      	strb	r2, [r3, #21]
			  data_info[22] = lock_default[4];
 8002cb4:	4b35      	ldr	r3, [pc, #212]	@ (8002d8c <main+0xbc0>)
 8002cb6:	791a      	ldrb	r2, [r3, #4]
 8002cb8:	4b32      	ldr	r3, [pc, #200]	@ (8002d84 <main+0xbb8>)
 8002cba:	759a      	strb	r2, [r3, #22]
			  data_info[23] = lock_default[5];
 8002cbc:	4b33      	ldr	r3, [pc, #204]	@ (8002d8c <main+0xbc0>)
 8002cbe:	795a      	ldrb	r2, [r3, #5]
 8002cc0:	4b30      	ldr	r3, [pc, #192]	@ (8002d84 <main+0xbb8>)
 8002cc2:	75da      	strb	r2, [r3, #23]
			  data_info[24] = lock_default[6];
 8002cc4:	4b31      	ldr	r3, [pc, #196]	@ (8002d8c <main+0xbc0>)
 8002cc6:	799a      	ldrb	r2, [r3, #6]
 8002cc8:	4b2e      	ldr	r3, [pc, #184]	@ (8002d84 <main+0xbb8>)
 8002cca:	761a      	strb	r2, [r3, #24]
			  data_info[25] = lock_default[7];
 8002ccc:	4b2f      	ldr	r3, [pc, #188]	@ (8002d8c <main+0xbc0>)
 8002cce:	79da      	ldrb	r2, [r3, #7]
 8002cd0:	4b2c      	ldr	r3, [pc, #176]	@ (8002d84 <main+0xbb8>)
 8002cd2:	765a      	strb	r2, [r3, #25]
			  sendData_eth_info("R", data_info);
 8002cd4:	492b      	ldr	r1, [pc, #172]	@ (8002d84 <main+0xbb8>)
 8002cd6:	482e      	ldr	r0, [pc, #184]	@ (8002d90 <main+0xbc4>)
 8002cd8:	f001 f8b4 	bl	8003e44 <sendData_eth_info>
			  break;
 8002cdc:	bf00      	nop
		  }
	  }
	  //// send data to PC, to keep alive connection
	  if (!add_card_uart && (abs(HAL_GetTick() - time_check) > 5000))
 8002cde:	4b2d      	ldr	r3, [pc, #180]	@ (8002d94 <main+0xbc8>)
 8002ce0:	781b      	ldrb	r3, [r3, #0]
 8002ce2:	f083 0301 	eor.w	r3, r3, #1
 8002ce6:	b2db      	uxtb	r3, r3
 8002ce8:	2b00      	cmp	r3, #0
 8002cea:	f000 80c9 	beq.w	8002e80 <main+0xcb4>
 8002cee:	f002 f89d 	bl	8004e2c <HAL_GetTick>
 8002cf2:	4602      	mov	r2, r0
 8002cf4:	4b28      	ldr	r3, [pc, #160]	@ (8002d98 <main+0xbcc>)
 8002cf6:	681b      	ldr	r3, [r3, #0]
 8002cf8:	1ad3      	subs	r3, r2, r3
 8002cfa:	2b00      	cmp	r3, #0
 8002cfc:	bfb8      	it	lt
 8002cfe:	425b      	neglt	r3, r3
 8002d00:	f241 3288 	movw	r2, #5000	@ 0x1388
 8002d04:	4293      	cmp	r3, r2
 8002d06:	f340 80bb 	ble.w	8002e80 <main+0xcb4>
	  {
		  keepalive = reconect_eth(SOCK_NUM);
 8002d0a:	2000      	movs	r0, #0
 8002d0c:	f001 fc38 	bl	8004580 <reconect_eth>
 8002d10:	4603      	mov	r3, r0
 8002d12:	461a      	mov	r2, r3
 8002d14:	4b21      	ldr	r3, [pc, #132]	@ (8002d9c <main+0xbd0>)
 8002d16:	701a      	strb	r2, [r3, #0]
		  if (keepalive == SOCK_ESTABLISHED)
 8002d18:	4b20      	ldr	r3, [pc, #128]	@ (8002d9c <main+0xbd0>)
 8002d1a:	781b      	ldrb	r3, [r3, #0]
 8002d1c:	2b17      	cmp	r3, #23
 8002d1e:	f040 80af 	bne.w	8002e80 <main+0xcb4>
		  {
			  if (unlock_fire)
 8002d22:	4b1f      	ldr	r3, [pc, #124]	@ (8002da0 <main+0xbd4>)
 8002d24:	781b      	ldrb	r3, [r3, #0]
 8002d26:	2b00      	cmp	r3, #0
 8002d28:	d03e      	beq.n	8002da8 <main+0xbdc>
			  {
				  c[1] = 0x46;//F
 8002d2a:	4b1e      	ldr	r3, [pc, #120]	@ (8002da4 <main+0xbd8>)
 8002d2c:	2246      	movs	r2, #70	@ 0x46
 8002d2e:	705a      	strb	r2, [r3, #1]
 8002d30:	e06e      	b.n	8002e10 <main+0xc44>
 8002d32:	bf00      	nop
 8002d34:	2000055c 	.word	0x2000055c
 8002d38:	2000051c 	.word	0x2000051c
 8002d3c:	2000051d 	.word	0x2000051d
 8002d40:	2000051e 	.word	0x2000051e
 8002d44:	2000051f 	.word	0x2000051f
 8002d48:	20000584 	.word	0x20000584
 8002d4c:	20000520 	.word	0x20000520
 8002d50:	20000521 	.word	0x20000521
 8002d54:	20000522 	.word	0x20000522
 8002d58:	20000523 	.word	0x20000523
 8002d5c:	20000582 	.word	0x20000582
 8002d60:	20000510 	.word	0x20000510
 8002d64:	20000542 	.word	0x20000542
 8002d68:	200006a8 	.word	0x200006a8
 8002d6c:	200006ac 	.word	0x200006ac
 8002d70:	08009878 	.word	0x08009878
 8002d74:	0800987c 	.word	0x0800987c
 8002d78:	200006dd 	.word	0x200006dd
 8002d7c:	2000072c 	.word	0x2000072c
 8002d80:	20000575 	.word	0x20000575
 8002d84:	20000524 	.word	0x20000524
 8002d88:	20000694 	.word	0x20000694
 8002d8c:	20000514 	.word	0x20000514
 8002d90:	08009880 	.word	0x08009880
 8002d94:	2000072a 	.word	0x2000072a
 8002d98:	200006b0 	.word	0x200006b0
 8002d9c:	2000054c 	.word	0x2000054c
 8002da0:	2000072e 	.word	0x2000072e
 8002da4:	20000034 	.word	0x20000034
			  } else if (bypass_from_Eth)
 8002da8:	4ba1      	ldr	r3, [pc, #644]	@ (8003030 <main+0xe64>)
 8002daa:	781b      	ldrb	r3, [r3, #0]
 8002dac:	2b00      	cmp	r3, #0
 8002dae:	d003      	beq.n	8002db8 <main+0xbec>
			  {
				  c[1] = 0x50;//P
 8002db0:	4ba0      	ldr	r3, [pc, #640]	@ (8003034 <main+0xe68>)
 8002db2:	2250      	movs	r2, #80	@ 0x50
 8002db4:	705a      	strb	r2, [r3, #1]
 8002db6:	e02b      	b.n	8002e10 <main+0xc44>
			  } else if (bypass_from_REB)
 8002db8:	4b9f      	ldr	r3, [pc, #636]	@ (8003038 <main+0xe6c>)
 8002dba:	781b      	ldrb	r3, [r3, #0]
 8002dbc:	2b00      	cmp	r3, #0
 8002dbe:	d003      	beq.n	8002dc8 <main+0xbfc>
			  {
				  c[1] = 0x45;//E
 8002dc0:	4b9c      	ldr	r3, [pc, #624]	@ (8003034 <main+0xe68>)
 8002dc2:	2245      	movs	r2, #69	@ 0x45
 8002dc4:	705a      	strb	r2, [r3, #1]
 8002dc6:	e023      	b.n	8002e10 <main+0xc44>
			  } else if (!REB_connected)
 8002dc8:	4b9c      	ldr	r3, [pc, #624]	@ (800303c <main+0xe70>)
 8002dca:	781b      	ldrb	r3, [r3, #0]
 8002dcc:	f083 0301 	eor.w	r3, r3, #1
 8002dd0:	b2db      	uxtb	r3, r3
 8002dd2:	2b00      	cmp	r3, #0
 8002dd4:	d003      	beq.n	8002dde <main+0xc12>
			  {
				  c[1] = 0x44;//D
 8002dd6:	4b97      	ldr	r3, [pc, #604]	@ (8003034 <main+0xe68>)
 8002dd8:	2244      	movs	r2, #68	@ 0x44
 8002dda:	705a      	strb	r2, [r3, #1]
 8002ddc:	e018      	b.n	8002e10 <main+0xc44>
			  } else if (!HAL_GPIO_ReadPin(BYPASS_GPIO_Port, BYPASS_Pin))
 8002dde:	2104      	movs	r1, #4
 8002de0:	4897      	ldr	r0, [pc, #604]	@ (8003040 <main+0xe74>)
 8002de2:	f003 fe75 	bl	8006ad0 <HAL_GPIO_ReadPin>
 8002de6:	4603      	mov	r3, r0
 8002de8:	2b00      	cmp	r3, #0
 8002dea:	d103      	bne.n	8002df4 <main+0xc28>
			  {
				  c[1] = 0x43;//C
 8002dec:	4b91      	ldr	r3, [pc, #580]	@ (8003034 <main+0xe68>)
 8002dee:	2243      	movs	r2, #67	@ 0x43
 8002df0:	705a      	strb	r2, [r3, #1]
 8002df2:	e00d      	b.n	8002e10 <main+0xc44>
			  } else if (!Ethernet_connected)
 8002df4:	4b93      	ldr	r3, [pc, #588]	@ (8003044 <main+0xe78>)
 8002df6:	781b      	ldrb	r3, [r3, #0]
 8002df8:	f083 0301 	eor.w	r3, r3, #1
 8002dfc:	b2db      	uxtb	r3, r3
 8002dfe:	2b00      	cmp	r3, #0
 8002e00:	d003      	beq.n	8002e0a <main+0xc3e>
			  {
				  c[1] = 0x4F;//o
 8002e02:	4b8c      	ldr	r3, [pc, #560]	@ (8003034 <main+0xe68>)
 8002e04:	224f      	movs	r2, #79	@ 0x4f
 8002e06:	705a      	strb	r2, [r3, #1]
 8002e08:	e002      	b.n	8002e10 <main+0xc44>
			  } else
			  {
				  c[1] = 0x52;//r
 8002e0a:	4b8a      	ldr	r3, [pc, #552]	@ (8003034 <main+0xe68>)
 8002e0c:	2252      	movs	r2, #82	@ 0x52
 8002e0e:	705a      	strb	r2, [r3, #1]
			  }
			  send(SOCK_NUM, c, 2);
 8002e10:	2202      	movs	r2, #2
 8002e12:	4988      	ldr	r1, [pc, #544]	@ (8003034 <main+0xe68>)
 8002e14:	2000      	movs	r0, #0
 8002e16:	f7fd ff67 	bl	8000ce8 <send>
		  }
	  }

	  while (send_card_to_pc)
 8002e1a:	e031      	b.n	8002e80 <main+0xcb4>
	  {
		  HAL_Delay(1000);
 8002e1c:	f44f 707a 	mov.w	r0, #1000	@ 0x3e8
 8002e20:	f002 f80e 	bl	8004e40 <HAL_Delay>
		  for (uint32_t i=0; i< number_card; i++)
 8002e24:	2300      	movs	r3, #0
 8002e26:	f8c7 30ac 	str.w	r3, [r7, #172]	@ 0xac
 8002e2a:	e01c      	b.n	8002e66 <main+0xc9a>
		  {
			  W25Q_FastRead_address(i*sizeof(user_info_t), sizeof(user_info_t), (uint8_t *)&send_user);
 8002e2c:	f8d7 30ac 	ldr.w	r3, [r7, #172]	@ 0xac
 8002e30:	015b      	lsls	r3, r3, #5
 8002e32:	4a85      	ldr	r2, [pc, #532]	@ (8003048 <main+0xe7c>)
 8002e34:	2120      	movs	r1, #32
 8002e36:	4618      	mov	r0, r3
 8002e38:	f7fe fe70 	bl	8001b1c <W25Q_FastRead_address>
			  sendData_eth_CardID ("X", send_user);
 8002e3c:	4e82      	ldr	r6, [pc, #520]	@ (8003048 <main+0xe7c>)
 8002e3e:	466d      	mov	r5, sp
 8002e40:	f106 040c 	add.w	r4, r6, #12
 8002e44:	cc0f      	ldmia	r4!, {r0, r1, r2, r3}
 8002e46:	c50f      	stmia	r5!, {r0, r1, r2, r3}
 8002e48:	6823      	ldr	r3, [r4, #0]
 8002e4a:	602b      	str	r3, [r5, #0]
 8002e4c:	e896 000e 	ldmia.w	r6, {r1, r2, r3}
 8002e50:	487e      	ldr	r0, [pc, #504]	@ (800304c <main+0xe80>)
 8002e52:	f001 f823 	bl	8003e9c <sendData_eth_CardID>
			  HAL_Delay(100);
 8002e56:	2064      	movs	r0, #100	@ 0x64
 8002e58:	f001 fff2 	bl	8004e40 <HAL_Delay>
		  for (uint32_t i=0; i< number_card; i++)
 8002e5c:	f8d7 30ac 	ldr.w	r3, [r7, #172]	@ 0xac
 8002e60:	3301      	adds	r3, #1
 8002e62:	f8c7 30ac 	str.w	r3, [r7, #172]	@ 0xac
 8002e66:	4b7a      	ldr	r3, [pc, #488]	@ (8003050 <main+0xe84>)
 8002e68:	681b      	ldr	r3, [r3, #0]
 8002e6a:	f8d7 20ac 	ldr.w	r2, [r7, #172]	@ 0xac
 8002e6e:	429a      	cmp	r2, r3
 8002e70:	d3dc      	bcc.n	8002e2c <main+0xc60>
		  }
		  send_u8_eth("X", 1);
 8002e72:	2101      	movs	r1, #1
 8002e74:	4875      	ldr	r0, [pc, #468]	@ (800304c <main+0xe80>)
 8002e76:	f000 ffad 	bl	8003dd4 <send_u8_eth>
		  send_card_to_pc = false;
 8002e7a:	4b76      	ldr	r3, [pc, #472]	@ (8003054 <main+0xe88>)
 8002e7c:	2200      	movs	r2, #0
 8002e7e:	701a      	strb	r2, [r3, #0]
	  while (send_card_to_pc)
 8002e80:	4b74      	ldr	r3, [pc, #464]	@ (8003054 <main+0xe88>)
 8002e82:	781b      	ldrb	r3, [r3, #0]
 8002e84:	2b00      	cmp	r3, #0
 8002e86:	d1c9      	bne.n	8002e1c <main+0xc50>
	  }
	  while (write_mode)
 8002e88:	e16f      	b.n	800316a <main+0xf9e>
	  {
		  HAL_Delay(1000);
 8002e8a:	f44f 707a 	mov.w	r0, #1000	@ 0x3e8
 8002e8e:	f001 ffd7 	bl	8004e40 <HAL_Delay>
		  uint32_t totalCard = 0;
 8002e92:	2300      	movs	r3, #0
 8002e94:	f8c7 30a8 	str.w	r3, [r7, #168]	@ 0xa8
		  sendString("W", "EOK");
 8002e98:	496f      	ldr	r1, [pc, #444]	@ (8003058 <main+0xe8c>)
 8002e9a:	4870      	ldr	r0, [pc, #448]	@ (800305c <main+0xe90>)
 8002e9c:	f000 ffb0 	bl	8003e00 <sendString>
		  time_break = HAL_GetTick();
 8002ea0:	f001 ffc4 	bl	8004e2c <HAL_GetTick>
 8002ea4:	4603      	mov	r3, r0
 8002ea6:	4a6e      	ldr	r2, [pc, #440]	@ (8003060 <main+0xe94>)
 8002ea8:	6013      	str	r3, [r2, #0]
		  bypass_from_Eth = true;
 8002eaa:	4b61      	ldr	r3, [pc, #388]	@ (8003030 <main+0xe64>)
 8002eac:	2201      	movs	r2, #1
 8002eae:	701a      	strb	r2, [r3, #0]
		  while (1)
		  {
			  lenData = getSn_RX_RSR(SOCK_NUM);
 8002eb0:	2000      	movs	r0, #0
 8002eb2:	f7fd faf6 	bl	80004a2 <getSn_RX_RSR>
 8002eb6:	4603      	mov	r3, r0
 8002eb8:	461a      	mov	r2, r3
 8002eba:	4b6a      	ldr	r3, [pc, #424]	@ (8003064 <main+0xe98>)
 8002ebc:	601a      	str	r2, [r3, #0]
			  if (getSn_RX_RSR(SOCK_NUM) == lenData)
 8002ebe:	2000      	movs	r0, #0
 8002ec0:	f7fd faef 	bl	80004a2 <getSn_RX_RSR>
 8002ec4:	4603      	mov	r3, r0
 8002ec6:	461a      	mov	r2, r3
 8002ec8:	4b66      	ldr	r3, [pc, #408]	@ (8003064 <main+0xe98>)
 8002eca:	681b      	ldr	r3, [r3, #0]
 8002ecc:	429a      	cmp	r2, r3
 8002ece:	f040 814a 	bne.w	8003166 <main+0xf9a>
			  {
				  if (lenData > 500)
 8002ed2:	4b64      	ldr	r3, [pc, #400]	@ (8003064 <main+0xe98>)
 8002ed4:	681b      	ldr	r3, [r3, #0]
 8002ed6:	f5b3 7ffa 	cmp.w	r3, #500	@ 0x1f4
 8002eda:	d901      	bls.n	8002ee0 <main+0xd14>
				  {
					  HAL_NVIC_SystemReset();
 8002edc:	f002 ffc1 	bl	8005e62 <HAL_NVIC_SystemReset>
				  }
				  if (!add_card_uart && (lenData > 0))
 8002ee0:	4b61      	ldr	r3, [pc, #388]	@ (8003068 <main+0xe9c>)
 8002ee2:	781b      	ldrb	r3, [r3, #0]
 8002ee4:	f083 0301 	eor.w	r3, r3, #1
 8002ee8:	b2db      	uxtb	r3, r3
 8002eea:	2b00      	cmp	r3, #0
 8002eec:	f000 8126 	beq.w	800313c <main+0xf70>
 8002ef0:	4b5c      	ldr	r3, [pc, #368]	@ (8003064 <main+0xe98>)
 8002ef2:	681b      	ldr	r3, [r3, #0]
 8002ef4:	2b00      	cmp	r3, #0
 8002ef6:	f000 8121 	beq.w	800313c <main+0xf70>
				  {
					  recv(SOCK_NUM, buf, lenData);
 8002efa:	4b5a      	ldr	r3, [pc, #360]	@ (8003064 <main+0xe98>)
 8002efc:	681b      	ldr	r3, [r3, #0]
 8002efe:	b29b      	uxth	r3, r3
 8002f00:	461a      	mov	r2, r3
 8002f02:	495a      	ldr	r1, [pc, #360]	@ (800306c <main+0xea0>)
 8002f04:	2000      	movs	r0, #0
 8002f06:	f7fd ffe7 	bl	8000ed8 <recv>
					  if (buf[0] == 0x57)
 8002f0a:	4b58      	ldr	r3, [pc, #352]	@ (800306c <main+0xea0>)
 8002f0c:	781b      	ldrb	r3, [r3, #0]
 8002f0e:	2b57      	cmp	r3, #87	@ 0x57
 8002f10:	f040 8114 	bne.w	800313c <main+0xf70>
					  {
						  if (buf[1] == 0x44)
 8002f14:	4b55      	ldr	r3, [pc, #340]	@ (800306c <main+0xea0>)
 8002f16:	785b      	ldrb	r3, [r3, #1]
 8002f18:	2b44      	cmp	r3, #68	@ 0x44
 8002f1a:	f040 80ad 	bne.w	8003078 <main+0xeac>
						  {
							  totalCard++;
 8002f1e:	f8d7 30a8 	ldr.w	r3, [r7, #168]	@ 0xa8
 8002f22:	3301      	adds	r3, #1
 8002f24:	f8c7 30a8 	str.w	r3, [r7, #168]	@ 0xa8
							  write_user.STT = totalCard;
 8002f28:	4a51      	ldr	r2, [pc, #324]	@ (8003070 <main+0xea4>)
 8002f2a:	f8d7 30a8 	ldr.w	r3, [r7, #168]	@ 0xa8
 8002f2e:	6013      	str	r3, [r2, #0]
							  write_user.cardID =  buf[2]<<24|buf[3]<<16|buf[4]<<8|buf[5];
 8002f30:	4b4e      	ldr	r3, [pc, #312]	@ (800306c <main+0xea0>)
 8002f32:	789b      	ldrb	r3, [r3, #2]
 8002f34:	061a      	lsls	r2, r3, #24
 8002f36:	4b4d      	ldr	r3, [pc, #308]	@ (800306c <main+0xea0>)
 8002f38:	78db      	ldrb	r3, [r3, #3]
 8002f3a:	041b      	lsls	r3, r3, #16
 8002f3c:	431a      	orrs	r2, r3
 8002f3e:	4b4b      	ldr	r3, [pc, #300]	@ (800306c <main+0xea0>)
 8002f40:	791b      	ldrb	r3, [r3, #4]
 8002f42:	021b      	lsls	r3, r3, #8
 8002f44:	4313      	orrs	r3, r2
 8002f46:	4a49      	ldr	r2, [pc, #292]	@ (800306c <main+0xea0>)
 8002f48:	7952      	ldrb	r2, [r2, #5]
 8002f4a:	4313      	orrs	r3, r2
 8002f4c:	461a      	mov	r2, r3
 8002f4e:	4b48      	ldr	r3, [pc, #288]	@ (8003070 <main+0xea4>)
 8002f50:	605a      	str	r2, [r3, #4]
							  write_user.permis[0] = buf[6];
 8002f52:	4b46      	ldr	r3, [pc, #280]	@ (800306c <main+0xea0>)
 8002f54:	799a      	ldrb	r2, [r3, #6]
 8002f56:	4b46      	ldr	r3, [pc, #280]	@ (8003070 <main+0xea4>)
 8002f58:	721a      	strb	r2, [r3, #8]
							  write_user.permis[1] = buf[7];
 8002f5a:	4b44      	ldr	r3, [pc, #272]	@ (800306c <main+0xea0>)
 8002f5c:	79da      	ldrb	r2, [r3, #7]
 8002f5e:	4b44      	ldr	r3, [pc, #272]	@ (8003070 <main+0xea4>)
 8002f60:	725a      	strb	r2, [r3, #9]
							  write_user.permis[2] = buf[8];
 8002f62:	4b42      	ldr	r3, [pc, #264]	@ (800306c <main+0xea0>)
 8002f64:	7a1a      	ldrb	r2, [r3, #8]
 8002f66:	4b42      	ldr	r3, [pc, #264]	@ (8003070 <main+0xea4>)
 8002f68:	729a      	strb	r2, [r3, #10]
							  write_user.permis[3] = buf[9];
 8002f6a:	4b40      	ldr	r3, [pc, #256]	@ (800306c <main+0xea0>)
 8002f6c:	7a5a      	ldrb	r2, [r3, #9]
 8002f6e:	4b40      	ldr	r3, [pc, #256]	@ (8003070 <main+0xea4>)
 8002f70:	72da      	strb	r2, [r3, #11]
							  write_user.permis[4] = buf[10];
 8002f72:	4b3e      	ldr	r3, [pc, #248]	@ (800306c <main+0xea0>)
 8002f74:	7a9a      	ldrb	r2, [r3, #10]
 8002f76:	4b3e      	ldr	r3, [pc, #248]	@ (8003070 <main+0xea4>)
 8002f78:	731a      	strb	r2, [r3, #12]
							  write_user.permis[5] = buf[11];
 8002f7a:	4b3c      	ldr	r3, [pc, #240]	@ (800306c <main+0xea0>)
 8002f7c:	7ada      	ldrb	r2, [r3, #11]
 8002f7e:	4b3c      	ldr	r3, [pc, #240]	@ (8003070 <main+0xea4>)
 8002f80:	735a      	strb	r2, [r3, #13]
							  write_user.permis[6] = buf[12];
 8002f82:	4b3a      	ldr	r3, [pc, #232]	@ (800306c <main+0xea0>)
 8002f84:	7b1a      	ldrb	r2, [r3, #12]
 8002f86:	4b3a      	ldr	r3, [pc, #232]	@ (8003070 <main+0xea4>)
 8002f88:	739a      	strb	r2, [r3, #14]
							  write_user.permis[7] = buf[13];
 8002f8a:	4b38      	ldr	r3, [pc, #224]	@ (800306c <main+0xea0>)
 8002f8c:	7b5a      	ldrb	r2, [r3, #13]
 8002f8e:	4b38      	ldr	r3, [pc, #224]	@ (8003070 <main+0xea4>)
 8002f90:	73da      	strb	r2, [r3, #15]
							  write_user.beginDate = buf[14];
 8002f92:	4b36      	ldr	r3, [pc, #216]	@ (800306c <main+0xea0>)
 8002f94:	7b9a      	ldrb	r2, [r3, #14]
 8002f96:	4b36      	ldr	r3, [pc, #216]	@ (8003070 <main+0xea4>)
 8002f98:	74da      	strb	r2, [r3, #19]
							  write_user.beginMonth = buf[15];
 8002f9a:	4b34      	ldr	r3, [pc, #208]	@ (800306c <main+0xea0>)
 8002f9c:	7bda      	ldrb	r2, [r3, #15]
 8002f9e:	4b34      	ldr	r3, [pc, #208]	@ (8003070 <main+0xea4>)
 8002fa0:	749a      	strb	r2, [r3, #18]
							  write_user.beginYear = buf[16]<<8 | buf[17];
 8002fa2:	4b32      	ldr	r3, [pc, #200]	@ (800306c <main+0xea0>)
 8002fa4:	7c1b      	ldrb	r3, [r3, #16]
 8002fa6:	b21b      	sxth	r3, r3
 8002fa8:	021b      	lsls	r3, r3, #8
 8002faa:	b21a      	sxth	r2, r3
 8002fac:	4b2f      	ldr	r3, [pc, #188]	@ (800306c <main+0xea0>)
 8002fae:	7c5b      	ldrb	r3, [r3, #17]
 8002fb0:	b21b      	sxth	r3, r3
 8002fb2:	4313      	orrs	r3, r2
 8002fb4:	b21b      	sxth	r3, r3
 8002fb6:	b29a      	uxth	r2, r3
 8002fb8:	4b2d      	ldr	r3, [pc, #180]	@ (8003070 <main+0xea4>)
 8002fba:	821a      	strh	r2, [r3, #16]
							  write_user.beginHour = buf[18];
 8002fbc:	4b2b      	ldr	r3, [pc, #172]	@ (800306c <main+0xea0>)
 8002fbe:	7c9a      	ldrb	r2, [r3, #18]
 8002fc0:	4b2b      	ldr	r3, [pc, #172]	@ (8003070 <main+0xea4>)
 8002fc2:	751a      	strb	r2, [r3, #20]
							  write_user.beginMinute = buf[19];
 8002fc4:	4b29      	ldr	r3, [pc, #164]	@ (800306c <main+0xea0>)
 8002fc6:	7cda      	ldrb	r2, [r3, #19]
 8002fc8:	4b29      	ldr	r3, [pc, #164]	@ (8003070 <main+0xea4>)
 8002fca:	755a      	strb	r2, [r3, #21]
							  write_user.endDate = buf[20];
 8002fcc:	4b27      	ldr	r3, [pc, #156]	@ (800306c <main+0xea0>)
 8002fce:	7d1a      	ldrb	r2, [r3, #20]
 8002fd0:	4b27      	ldr	r3, [pc, #156]	@ (8003070 <main+0xea4>)
 8002fd2:	765a      	strb	r2, [r3, #25]
							  write_user.endMonth = buf[21];
 8002fd4:	4b25      	ldr	r3, [pc, #148]	@ (800306c <main+0xea0>)
 8002fd6:	7d5a      	ldrb	r2, [r3, #21]
 8002fd8:	4b25      	ldr	r3, [pc, #148]	@ (8003070 <main+0xea4>)
 8002fda:	761a      	strb	r2, [r3, #24]
							  write_user.endYear = buf[22]<<8 | buf[23];
 8002fdc:	4b23      	ldr	r3, [pc, #140]	@ (800306c <main+0xea0>)
 8002fde:	7d9b      	ldrb	r3, [r3, #22]
 8002fe0:	b21b      	sxth	r3, r3
 8002fe2:	021b      	lsls	r3, r3, #8
 8002fe4:	b21a      	sxth	r2, r3
 8002fe6:	4b21      	ldr	r3, [pc, #132]	@ (800306c <main+0xea0>)
 8002fe8:	7ddb      	ldrb	r3, [r3, #23]
 8002fea:	b21b      	sxth	r3, r3
 8002fec:	4313      	orrs	r3, r2
 8002fee:	b21b      	sxth	r3, r3
 8002ff0:	b29a      	uxth	r2, r3
 8002ff2:	4b1f      	ldr	r3, [pc, #124]	@ (8003070 <main+0xea4>)
 8002ff4:	82da      	strh	r2, [r3, #22]
							  write_user.endHour = buf[24];
 8002ff6:	4b1d      	ldr	r3, [pc, #116]	@ (800306c <main+0xea0>)
 8002ff8:	7e1a      	ldrb	r2, [r3, #24]
 8002ffa:	4b1d      	ldr	r3, [pc, #116]	@ (8003070 <main+0xea4>)
 8002ffc:	769a      	strb	r2, [r3, #26]
							  write_user.endMinute = buf[25];
 8002ffe:	4b1b      	ldr	r3, [pc, #108]	@ (800306c <main+0xea0>)
 8003000:	7e5a      	ldrb	r2, [r3, #25]
 8003002:	4b1b      	ldr	r3, [pc, #108]	@ (8003070 <main+0xea4>)
 8003004:	76da      	strb	r2, [r3, #27]
							  W25Q_Write_Nbytes((totalCard-1)*sizeof(user_info_t) + Block32, (uint8_t *)&write_user, sizeof(user_info_t));
 8003006:	f8d7 30a8 	ldr.w	r3, [r7, #168]	@ 0xa8
 800300a:	f503 437f 	add.w	r3, r3, #65280	@ 0xff00
 800300e:	33ff      	adds	r3, #255	@ 0xff
 8003010:	015b      	lsls	r3, r3, #5
 8003012:	2220      	movs	r2, #32
 8003014:	4916      	ldr	r1, [pc, #88]	@ (8003070 <main+0xea4>)
 8003016:	4618      	mov	r0, r3
 8003018:	f7fe fe3d 	bl	8001c96 <W25Q_Write_Nbytes>
							  sendString("W", "DOK");
 800301c:	4915      	ldr	r1, [pc, #84]	@ (8003074 <main+0xea8>)
 800301e:	480f      	ldr	r0, [pc, #60]	@ (800305c <main+0xe90>)
 8003020:	f000 feee 	bl	8003e00 <sendString>
							  time_break = HAL_GetTick();
 8003024:	f001 ff02 	bl	8004e2c <HAL_GetTick>
 8003028:	4603      	mov	r3, r0
 800302a:	4a0d      	ldr	r2, [pc, #52]	@ (8003060 <main+0xe94>)
 800302c:	6013      	str	r3, [r2, #0]
 800302e:	e085      	b.n	800313c <main+0xf70>
 8003030:	200006dd 	.word	0x200006dd
 8003034:	20000034 	.word	0x20000034
 8003038:	200006dc 	.word	0x200006dc
 800303c:	20000036 	.word	0x20000036
 8003040:	40010800 	.word	0x40010800
 8003044:	20000720 	.word	0x20000720
 8003048:	200007b0 	.word	0x200007b0
 800304c:	08009884 	.word	0x08009884
 8003050:	20000694 	.word	0x20000694
 8003054:	20000725 	.word	0x20000725
 8003058:	08009888 	.word	0x08009888
 800305c:	0800988c 	.word	0x0800988c
 8003060:	2000069c 	.word	0x2000069c
 8003064:	200006a0 	.word	0x200006a0
 8003068:	2000072a 	.word	0x2000072a
 800306c:	20000304 	.word	0x20000304
 8003070:	20000790 	.word	0x20000790
 8003074:	08009890 	.word	0x08009890
						  } else if (buf[1] == 0x43)
 8003078:	4ba9      	ldr	r3, [pc, #676]	@ (8003320 <main+0x1154>)
 800307a:	785b      	ldrb	r3, [r3, #1]
 800307c:	2b43      	cmp	r3, #67	@ 0x43
 800307e:	d15d      	bne.n	800313c <main+0xf70>
						  {
							  write_done = true;
 8003080:	4ba8      	ldr	r3, [pc, #672]	@ (8003324 <main+0x1158>)
 8003082:	2201      	movs	r2, #1
 8003084:	701a      	strb	r2, [r3, #0]
				  }
			  } else
			  {
				  continue;
			  }
			  while (write_done)
 8003086:	e059      	b.n	800313c <main+0xf70>
			  {
				  for (uint8_t i=0; i<(number_card)*sizeof(user_info_t)/Sector+1; i++)
 8003088:	2300      	movs	r3, #0
 800308a:	f887 30a7 	strb.w	r3, [r7, #167]	@ 0xa7
 800308e:	e00a      	b.n	80030a6 <main+0xeda>
				  {
					  W25Q_Erase_Sector(i);
 8003090:	f897 30a7 	ldrb.w	r3, [r7, #167]	@ 0xa7
 8003094:	b29b      	uxth	r3, r3
 8003096:	4618      	mov	r0, r3
 8003098:	f7fe fdac 	bl	8001bf4 <W25Q_Erase_Sector>
				  for (uint8_t i=0; i<(number_card)*sizeof(user_info_t)/Sector+1; i++)
 800309c:	f897 30a7 	ldrb.w	r3, [r7, #167]	@ 0xa7
 80030a0:	3301      	adds	r3, #1
 80030a2:	f887 30a7 	strb.w	r3, [r7, #167]	@ 0xa7
 80030a6:	f897 20a7 	ldrb.w	r2, [r7, #167]	@ 0xa7
 80030aa:	4b9f      	ldr	r3, [pc, #636]	@ (8003328 <main+0x115c>)
 80030ac:	681b      	ldr	r3, [r3, #0]
 80030ae:	015b      	lsls	r3, r3, #5
 80030b0:	0b1b      	lsrs	r3, r3, #12
 80030b2:	3301      	adds	r3, #1
 80030b4:	429a      	cmp	r2, r3
 80030b6:	d3eb      	bcc.n	8003090 <main+0xec4>
				  }
				  for (uint32_t i = 0; i<totalCard; i++)
 80030b8:	2300      	movs	r3, #0
 80030ba:	f8c7 30a0 	str.w	r3, [r7, #160]	@ 0xa0
 80030be:	e016      	b.n	80030ee <main+0xf22>
				  {
					  W25Q_FastRead_address(i*sizeof(user_info_t)+ Block32, sizeof(user_info_t), (uint8_t *)&send_user);
 80030c0:	f8d7 30a0 	ldr.w	r3, [r7, #160]	@ 0xa0
 80030c4:	f503 3380 	add.w	r3, r3, #65536	@ 0x10000
 80030c8:	015b      	lsls	r3, r3, #5
 80030ca:	4a98      	ldr	r2, [pc, #608]	@ (800332c <main+0x1160>)
 80030cc:	2120      	movs	r1, #32
 80030ce:	4618      	mov	r0, r3
 80030d0:	f7fe fd24 	bl	8001b1c <W25Q_FastRead_address>
					  W25Q_Write_Nbytes(i*sizeof(user_info_t), (uint8_t *)&send_user, sizeof(user_info_t));
 80030d4:	f8d7 30a0 	ldr.w	r3, [r7, #160]	@ 0xa0
 80030d8:	015b      	lsls	r3, r3, #5
 80030da:	2220      	movs	r2, #32
 80030dc:	4993      	ldr	r1, [pc, #588]	@ (800332c <main+0x1160>)
 80030de:	4618      	mov	r0, r3
 80030e0:	f7fe fdd9 	bl	8001c96 <W25Q_Write_Nbytes>
				  for (uint32_t i = 0; i<totalCard; i++)
 80030e4:	f8d7 30a0 	ldr.w	r3, [r7, #160]	@ 0xa0
 80030e8:	3301      	adds	r3, #1
 80030ea:	f8c7 30a0 	str.w	r3, [r7, #160]	@ 0xa0
 80030ee:	f8d7 20a0 	ldr.w	r2, [r7, #160]	@ 0xa0
 80030f2:	f8d7 30a8 	ldr.w	r3, [r7, #168]	@ 0xa8
 80030f6:	429a      	cmp	r2, r3
 80030f8:	d3e2      	bcc.n	80030c0 <main+0xef4>
				  }
				  for (uint32_t i=0; i<((totalCard*sizeof(user_info_t)/Sector)+1); i++)
 80030fa:	2300      	movs	r3, #0
 80030fc:	f8c7 309c 	str.w	r3, [r7, #156]	@ 0x9c
 8003100:	e00d      	b.n	800311e <main+0xf52>
				  {
					  W25Q_Erase_Sector(i + Block32/0x1000);
 8003102:	f8d7 309c 	ldr.w	r3, [r7, #156]	@ 0x9c
 8003106:	b29b      	uxth	r3, r3
 8003108:	f503 7300 	add.w	r3, r3, #512	@ 0x200
 800310c:	b29b      	uxth	r3, r3
 800310e:	4618      	mov	r0, r3
 8003110:	f7fe fd70 	bl	8001bf4 <W25Q_Erase_Sector>
				  for (uint32_t i=0; i<((totalCard*sizeof(user_info_t)/Sector)+1); i++)
 8003114:	f8d7 309c 	ldr.w	r3, [r7, #156]	@ 0x9c
 8003118:	3301      	adds	r3, #1
 800311a:	f8c7 309c 	str.w	r3, [r7, #156]	@ 0x9c
 800311e:	f8d7 30a8 	ldr.w	r3, [r7, #168]	@ 0xa8
 8003122:	015b      	lsls	r3, r3, #5
 8003124:	0b1b      	lsrs	r3, r3, #12
 8003126:	3301      	adds	r3, #1
 8003128:	f8d7 209c 	ldr.w	r2, [r7, #156]	@ 0x9c
 800312c:	429a      	cmp	r2, r3
 800312e:	d3e8      	bcc.n	8003102 <main+0xf36>
				  }
				  sendString("W", "COK");
 8003130:	497f      	ldr	r1, [pc, #508]	@ (8003330 <main+0x1164>)
 8003132:	4880      	ldr	r0, [pc, #512]	@ (8003334 <main+0x1168>)
 8003134:	f000 fe64 	bl	8003e00 <sendString>
				  HAL_NVIC_SystemReset();
 8003138:	f002 fe93 	bl	8005e62 <HAL_NVIC_SystemReset>
			  while (write_done)
 800313c:	4b79      	ldr	r3, [pc, #484]	@ (8003324 <main+0x1158>)
 800313e:	781b      	ldrb	r3, [r3, #0]
 8003140:	2b00      	cmp	r3, #0
 8003142:	d1a1      	bne.n	8003088 <main+0xebc>
			  }

			  if ((abs(HAL_GetTick() - time_break) > Timeout_online))
 8003144:	f001 fe72 	bl	8004e2c <HAL_GetTick>
 8003148:	4602      	mov	r2, r0
 800314a:	4b7b      	ldr	r3, [pc, #492]	@ (8003338 <main+0x116c>)
 800314c:	681b      	ldr	r3, [r3, #0]
 800314e:	1ad3      	subs	r3, r2, r3
 8003150:	2b00      	cmp	r3, #0
 8003152:	bfb8      	it	lt
 8003154:	425b      	neglt	r3, r3
 8003156:	f242 7210 	movw	r2, #10000	@ 0x2710
 800315a:	4293      	cmp	r3, r2
 800315c:	f77f aea8 	ble.w	8002eb0 <main+0xce4>
			  {
				  HAL_NVIC_SystemReset();
 8003160:	f002 fe7f 	bl	8005e62 <HAL_NVIC_SystemReset>
 8003164:	e6a4      	b.n	8002eb0 <main+0xce4>
				  continue;
 8003166:	bf00      	nop
			  lenData = getSn_RX_RSR(SOCK_NUM);
 8003168:	e6a2      	b.n	8002eb0 <main+0xce4>
	  while (write_mode)
 800316a:	4b74      	ldr	r3, [pc, #464]	@ (800333c <main+0x1170>)
 800316c:	781b      	ldrb	r3, [r3, #0]
 800316e:	2b00      	cmp	r3, #0
 8003170:	f47f ae8b 	bne.w	8002e8a <main+0xcbe>
			  }
		  }
	  }
	  while (write_mode_somecard)
 8003174:	e257      	b.n	8003626 <main+0x145a>
	  {
		  HAL_Delay(1000);
 8003176:	f44f 707a 	mov.w	r0, #1000	@ 0x3e8
 800317a:	f001 fe61 	bl	8004e40 <HAL_Delay>
		  uint32_t add_card = 0;
 800317e:	2300      	movs	r3, #0
 8003180:	f8c7 3098 	str.w	r3, [r7, #152]	@ 0x98
		  sendString("W", "AOK");
 8003184:	496e      	ldr	r1, [pc, #440]	@ (8003340 <main+0x1174>)
 8003186:	486b      	ldr	r0, [pc, #428]	@ (8003334 <main+0x1168>)
 8003188:	f000 fe3a 	bl	8003e00 <sendString>
		  time_break = HAL_GetTick();
 800318c:	f001 fe4e 	bl	8004e2c <HAL_GetTick>
 8003190:	4603      	mov	r3, r0
 8003192:	4a69      	ldr	r2, [pc, #420]	@ (8003338 <main+0x116c>)
 8003194:	6013      	str	r3, [r2, #0]
		  bypass_from_Eth = true;
 8003196:	4b6b      	ldr	r3, [pc, #428]	@ (8003344 <main+0x1178>)
 8003198:	2201      	movs	r2, #1
 800319a:	701a      	strb	r2, [r3, #0]
		  while (1)
		  {
			  lenData = getSn_RX_RSR(SOCK_NUM);
 800319c:	2000      	movs	r0, #0
 800319e:	f7fd f980 	bl	80004a2 <getSn_RX_RSR>
 80031a2:	4603      	mov	r3, r0
 80031a4:	461a      	mov	r2, r3
 80031a6:	4b68      	ldr	r3, [pc, #416]	@ (8003348 <main+0x117c>)
 80031a8:	601a      	str	r2, [r3, #0]
			  if (getSn_RX_RSR(SOCK_NUM) == lenData)
 80031aa:	2000      	movs	r0, #0
 80031ac:	f7fd f979 	bl	80004a2 <getSn_RX_RSR>
 80031b0:	4603      	mov	r3, r0
 80031b2:	461a      	mov	r2, r3
 80031b4:	4b64      	ldr	r3, [pc, #400]	@ (8003348 <main+0x117c>)
 80031b6:	681b      	ldr	r3, [r3, #0]
 80031b8:	429a      	cmp	r2, r3
 80031ba:	f040 8232 	bne.w	8003622 <main+0x1456>
			  {
				  if (lenData > 512)
 80031be:	4b62      	ldr	r3, [pc, #392]	@ (8003348 <main+0x117c>)
 80031c0:	681b      	ldr	r3, [r3, #0]
 80031c2:	f5b3 7f00 	cmp.w	r3, #512	@ 0x200
 80031c6:	d901      	bls.n	80031cc <main+0x1000>
				  {
					  HAL_NVIC_SystemReset();
 80031c8:	f002 fe4b 	bl	8005e62 <HAL_NVIC_SystemReset>
				  }
				  if (!add_card_uart && (lenData > 0))
 80031cc:	4b5f      	ldr	r3, [pc, #380]	@ (800334c <main+0x1180>)
 80031ce:	781b      	ldrb	r3, [r3, #0]
 80031d0:	f083 0301 	eor.w	r3, r3, #1
 80031d4:	b2db      	uxtb	r3, r3
 80031d6:	2b00      	cmp	r3, #0
 80031d8:	f000 820d 	beq.w	80035f6 <main+0x142a>
 80031dc:	4b5a      	ldr	r3, [pc, #360]	@ (8003348 <main+0x117c>)
 80031de:	681b      	ldr	r3, [r3, #0]
 80031e0:	2b00      	cmp	r3, #0
 80031e2:	f000 8208 	beq.w	80035f6 <main+0x142a>
				  {
					  recv(SOCK_NUM, buf, lenData);
 80031e6:	4b58      	ldr	r3, [pc, #352]	@ (8003348 <main+0x117c>)
 80031e8:	681b      	ldr	r3, [r3, #0]
 80031ea:	b29b      	uxth	r3, r3
 80031ec:	461a      	mov	r2, r3
 80031ee:	494c      	ldr	r1, [pc, #304]	@ (8003320 <main+0x1154>)
 80031f0:	2000      	movs	r0, #0
 80031f2:	f7fd fe71 	bl	8000ed8 <recv>
					  if (buf[0] == 0x57)
 80031f6:	4b4a      	ldr	r3, [pc, #296]	@ (8003320 <main+0x1154>)
 80031f8:	781b      	ldrb	r3, [r3, #0]
 80031fa:	2b57      	cmp	r3, #87	@ 0x57
 80031fc:	f040 81fb 	bne.w	80035f6 <main+0x142a>
					  {
						  if (buf[1] == 0x44)
 8003200:	4b47      	ldr	r3, [pc, #284]	@ (8003320 <main+0x1154>)
 8003202:	785b      	ldrb	r3, [r3, #1]
 8003204:	2b44      	cmp	r3, #68	@ 0x44
 8003206:	f040 80a7 	bne.w	8003358 <main+0x118c>
						  {
							  add_card++;
 800320a:	f8d7 3098 	ldr.w	r3, [r7, #152]	@ 0x98
 800320e:	3301      	adds	r3, #1
 8003210:	f8c7 3098 	str.w	r3, [r7, #152]	@ 0x98
							  write_user.STT++;
 8003214:	4b4e      	ldr	r3, [pc, #312]	@ (8003350 <main+0x1184>)
 8003216:	681b      	ldr	r3, [r3, #0]
 8003218:	3301      	adds	r3, #1
 800321a:	4a4d      	ldr	r2, [pc, #308]	@ (8003350 <main+0x1184>)
 800321c:	6013      	str	r3, [r2, #0]
							  write_user.cardID =  buf[2]<<24|buf[3]<<16|buf[4]<<8|buf[5];
 800321e:	4b40      	ldr	r3, [pc, #256]	@ (8003320 <main+0x1154>)
 8003220:	789b      	ldrb	r3, [r3, #2]
 8003222:	061a      	lsls	r2, r3, #24
 8003224:	4b3e      	ldr	r3, [pc, #248]	@ (8003320 <main+0x1154>)
 8003226:	78db      	ldrb	r3, [r3, #3]
 8003228:	041b      	lsls	r3, r3, #16
 800322a:	431a      	orrs	r2, r3
 800322c:	4b3c      	ldr	r3, [pc, #240]	@ (8003320 <main+0x1154>)
 800322e:	791b      	ldrb	r3, [r3, #4]
 8003230:	021b      	lsls	r3, r3, #8
 8003232:	4313      	orrs	r3, r2
 8003234:	4a3a      	ldr	r2, [pc, #232]	@ (8003320 <main+0x1154>)
 8003236:	7952      	ldrb	r2, [r2, #5]
 8003238:	4313      	orrs	r3, r2
 800323a:	461a      	mov	r2, r3
 800323c:	4b44      	ldr	r3, [pc, #272]	@ (8003350 <main+0x1184>)
 800323e:	605a      	str	r2, [r3, #4]
							  write_user.permis[0] = buf[6];
 8003240:	4b37      	ldr	r3, [pc, #220]	@ (8003320 <main+0x1154>)
 8003242:	799a      	ldrb	r2, [r3, #6]
 8003244:	4b42      	ldr	r3, [pc, #264]	@ (8003350 <main+0x1184>)
 8003246:	721a      	strb	r2, [r3, #8]
							  write_user.permis[1] = buf[7];
 8003248:	4b35      	ldr	r3, [pc, #212]	@ (8003320 <main+0x1154>)
 800324a:	79da      	ldrb	r2, [r3, #7]
 800324c:	4b40      	ldr	r3, [pc, #256]	@ (8003350 <main+0x1184>)
 800324e:	725a      	strb	r2, [r3, #9]
							  write_user.permis[2] = buf[8];
 8003250:	4b33      	ldr	r3, [pc, #204]	@ (8003320 <main+0x1154>)
 8003252:	7a1a      	ldrb	r2, [r3, #8]
 8003254:	4b3e      	ldr	r3, [pc, #248]	@ (8003350 <main+0x1184>)
 8003256:	729a      	strb	r2, [r3, #10]
							  write_user.permis[3] = buf[9];
 8003258:	4b31      	ldr	r3, [pc, #196]	@ (8003320 <main+0x1154>)
 800325a:	7a5a      	ldrb	r2, [r3, #9]
 800325c:	4b3c      	ldr	r3, [pc, #240]	@ (8003350 <main+0x1184>)
 800325e:	72da      	strb	r2, [r3, #11]
							  write_user.permis[4] = buf[10];
 8003260:	4b2f      	ldr	r3, [pc, #188]	@ (8003320 <main+0x1154>)
 8003262:	7a9a      	ldrb	r2, [r3, #10]
 8003264:	4b3a      	ldr	r3, [pc, #232]	@ (8003350 <main+0x1184>)
 8003266:	731a      	strb	r2, [r3, #12]
							  write_user.permis[5] = buf[11];
 8003268:	4b2d      	ldr	r3, [pc, #180]	@ (8003320 <main+0x1154>)
 800326a:	7ada      	ldrb	r2, [r3, #11]
 800326c:	4b38      	ldr	r3, [pc, #224]	@ (8003350 <main+0x1184>)
 800326e:	735a      	strb	r2, [r3, #13]
							  write_user.permis[6] = buf[12];
 8003270:	4b2b      	ldr	r3, [pc, #172]	@ (8003320 <main+0x1154>)
 8003272:	7b1a      	ldrb	r2, [r3, #12]
 8003274:	4b36      	ldr	r3, [pc, #216]	@ (8003350 <main+0x1184>)
 8003276:	739a      	strb	r2, [r3, #14]
							  write_user.permis[7] = buf[13];
 8003278:	4b29      	ldr	r3, [pc, #164]	@ (8003320 <main+0x1154>)
 800327a:	7b5a      	ldrb	r2, [r3, #13]
 800327c:	4b34      	ldr	r3, [pc, #208]	@ (8003350 <main+0x1184>)
 800327e:	73da      	strb	r2, [r3, #15]
							  write_user.beginDate = buf[14];
 8003280:	4b27      	ldr	r3, [pc, #156]	@ (8003320 <main+0x1154>)
 8003282:	7b9a      	ldrb	r2, [r3, #14]
 8003284:	4b32      	ldr	r3, [pc, #200]	@ (8003350 <main+0x1184>)
 8003286:	74da      	strb	r2, [r3, #19]
							  write_user.beginMonth = buf[15];
 8003288:	4b25      	ldr	r3, [pc, #148]	@ (8003320 <main+0x1154>)
 800328a:	7bda      	ldrb	r2, [r3, #15]
 800328c:	4b30      	ldr	r3, [pc, #192]	@ (8003350 <main+0x1184>)
 800328e:	749a      	strb	r2, [r3, #18]
							  write_user.beginYear = buf[16]<<8 | buf[17];
 8003290:	4b23      	ldr	r3, [pc, #140]	@ (8003320 <main+0x1154>)
 8003292:	7c1b      	ldrb	r3, [r3, #16]
 8003294:	b21b      	sxth	r3, r3
 8003296:	021b      	lsls	r3, r3, #8
 8003298:	b21a      	sxth	r2, r3
 800329a:	4b21      	ldr	r3, [pc, #132]	@ (8003320 <main+0x1154>)
 800329c:	7c5b      	ldrb	r3, [r3, #17]
 800329e:	b21b      	sxth	r3, r3
 80032a0:	4313      	orrs	r3, r2
 80032a2:	b21b      	sxth	r3, r3
 80032a4:	b29a      	uxth	r2, r3
 80032a6:	4b2a      	ldr	r3, [pc, #168]	@ (8003350 <main+0x1184>)
 80032a8:	821a      	strh	r2, [r3, #16]
							  write_user.beginHour = buf[18];
 80032aa:	4b1d      	ldr	r3, [pc, #116]	@ (8003320 <main+0x1154>)
 80032ac:	7c9a      	ldrb	r2, [r3, #18]
 80032ae:	4b28      	ldr	r3, [pc, #160]	@ (8003350 <main+0x1184>)
 80032b0:	751a      	strb	r2, [r3, #20]
							  write_user.beginMinute = buf[19];
 80032b2:	4b1b      	ldr	r3, [pc, #108]	@ (8003320 <main+0x1154>)
 80032b4:	7cda      	ldrb	r2, [r3, #19]
 80032b6:	4b26      	ldr	r3, [pc, #152]	@ (8003350 <main+0x1184>)
 80032b8:	755a      	strb	r2, [r3, #21]
							  write_user.endDate = buf[20];
 80032ba:	4b19      	ldr	r3, [pc, #100]	@ (8003320 <main+0x1154>)
 80032bc:	7d1a      	ldrb	r2, [r3, #20]
 80032be:	4b24      	ldr	r3, [pc, #144]	@ (8003350 <main+0x1184>)
 80032c0:	765a      	strb	r2, [r3, #25]
							  write_user.endMonth = buf[21];
 80032c2:	4b17      	ldr	r3, [pc, #92]	@ (8003320 <main+0x1154>)
 80032c4:	7d5a      	ldrb	r2, [r3, #21]
 80032c6:	4b22      	ldr	r3, [pc, #136]	@ (8003350 <main+0x1184>)
 80032c8:	761a      	strb	r2, [r3, #24]
							  write_user.endYear = buf[22]<<8 | buf[23];
 80032ca:	4b15      	ldr	r3, [pc, #84]	@ (8003320 <main+0x1154>)
 80032cc:	7d9b      	ldrb	r3, [r3, #22]
 80032ce:	b21b      	sxth	r3, r3
 80032d0:	021b      	lsls	r3, r3, #8
 80032d2:	b21a      	sxth	r2, r3
 80032d4:	4b12      	ldr	r3, [pc, #72]	@ (8003320 <main+0x1154>)
 80032d6:	7ddb      	ldrb	r3, [r3, #23]
 80032d8:	b21b      	sxth	r3, r3
 80032da:	4313      	orrs	r3, r2
 80032dc:	b21b      	sxth	r3, r3
 80032de:	b29a      	uxth	r2, r3
 80032e0:	4b1b      	ldr	r3, [pc, #108]	@ (8003350 <main+0x1184>)
 80032e2:	82da      	strh	r2, [r3, #22]
							  write_user.endHour = buf[24];
 80032e4:	4b0e      	ldr	r3, [pc, #56]	@ (8003320 <main+0x1154>)
 80032e6:	7e1a      	ldrb	r2, [r3, #24]
 80032e8:	4b19      	ldr	r3, [pc, #100]	@ (8003350 <main+0x1184>)
 80032ea:	769a      	strb	r2, [r3, #26]
							  write_user.endMinute = buf[25];
 80032ec:	4b0c      	ldr	r3, [pc, #48]	@ (8003320 <main+0x1154>)
 80032ee:	7e5a      	ldrb	r2, [r3, #25]
 80032f0:	4b17      	ldr	r3, [pc, #92]	@ (8003350 <main+0x1184>)
 80032f2:	76da      	strb	r2, [r3, #27]
							  W25Q_Write_Nbytes((add_card-1)*sizeof(user_info_t) + Block63, (uint8_t *)&write_user, sizeof(user_info_t));
 80032f4:	f8d7 3098 	ldr.w	r3, [r7, #152]	@ 0x98
 80032f8:	f503 33fb 	add.w	r3, r3, #128512	@ 0x1f600
 80032fc:	f203 13ff 	addw	r3, r3, #511	@ 0x1ff
 8003300:	015b      	lsls	r3, r3, #5
 8003302:	2220      	movs	r2, #32
 8003304:	4912      	ldr	r1, [pc, #72]	@ (8003350 <main+0x1184>)
 8003306:	4618      	mov	r0, r3
 8003308:	f7fe fcc5 	bl	8001c96 <W25Q_Write_Nbytes>
							  sendString("W", "DOK");
 800330c:	4911      	ldr	r1, [pc, #68]	@ (8003354 <main+0x1188>)
 800330e:	4809      	ldr	r0, [pc, #36]	@ (8003334 <main+0x1168>)
 8003310:	f000 fd76 	bl	8003e00 <sendString>
							  time_break = HAL_GetTick();
 8003314:	f001 fd8a 	bl	8004e2c <HAL_GetTick>
 8003318:	4603      	mov	r3, r0
 800331a:	4a07      	ldr	r2, [pc, #28]	@ (8003338 <main+0x116c>)
 800331c:	6013      	str	r3, [r2, #0]
 800331e:	e16a      	b.n	80035f6 <main+0x142a>
 8003320:	20000304 	.word	0x20000304
 8003324:	20000724 	.word	0x20000724
 8003328:	20000694 	.word	0x20000694
 800332c:	200007b0 	.word	0x200007b0
 8003330:	08009894 	.word	0x08009894
 8003334:	0800988c 	.word	0x0800988c
 8003338:	2000069c 	.word	0x2000069c
 800333c:	20000723 	.word	0x20000723
 8003340:	08009898 	.word	0x08009898
 8003344:	200006dd 	.word	0x200006dd
 8003348:	200006a0 	.word	0x200006a0
 800334c:	2000072a 	.word	0x2000072a
 8003350:	20000790 	.word	0x20000790
 8003354:	08009890 	.word	0x08009890
						  } else if (buf[1] == 0x43)
 8003358:	4bb6      	ldr	r3, [pc, #728]	@ (8003634 <main+0x1468>)
 800335a:	785b      	ldrb	r3, [r3, #1]
 800335c:	2b43      	cmp	r3, #67	@ 0x43
 800335e:	f040 814a 	bne.w	80035f6 <main+0x142a>
						  {
							  write_done = true;
 8003362:	4bb5      	ldr	r3, [pc, #724]	@ (8003638 <main+0x146c>)
 8003364:	2201      	movs	r2, #1
 8003366:	701a      	strb	r2, [r3, #0]
				  }
			  } else
			  {
				  continue;
			  }
			  while (write_done)
 8003368:	e145      	b.n	80035f6 <main+0x142a>
			  {
				  // ghi cc th hin ti vo b nh m t Block 33
				  for (uint32_t i = 0; i<number_card; i++)
 800336a:	2300      	movs	r3, #0
 800336c:	f8c7 3094 	str.w	r3, [r7, #148]	@ 0x94
 8003370:	e016      	b.n	80033a0 <main+0x11d4>
				  {
					  W25Q_FastRead_address(i*sizeof(user_info_t), sizeof(user_info_t), (uint8_t *)&send_user);
 8003372:	f8d7 3094 	ldr.w	r3, [r7, #148]	@ 0x94
 8003376:	015b      	lsls	r3, r3, #5
 8003378:	4ab0      	ldr	r2, [pc, #704]	@ (800363c <main+0x1470>)
 800337a:	2120      	movs	r1, #32
 800337c:	4618      	mov	r0, r3
 800337e:	f7fe fbcd 	bl	8001b1c <W25Q_FastRead_address>
					  W25Q_Write_Nbytes(i*sizeof(user_info_t) + Block32, (uint8_t *)&send_user, sizeof(user_info_t));
 8003382:	f8d7 3094 	ldr.w	r3, [r7, #148]	@ 0x94
 8003386:	f503 3380 	add.w	r3, r3, #65536	@ 0x10000
 800338a:	015b      	lsls	r3, r3, #5
 800338c:	2220      	movs	r2, #32
 800338e:	49ab      	ldr	r1, [pc, #684]	@ (800363c <main+0x1470>)
 8003390:	4618      	mov	r0, r3
 8003392:	f7fe fc80 	bl	8001c96 <W25Q_Write_Nbytes>
				  for (uint32_t i = 0; i<number_card; i++)
 8003396:	f8d7 3094 	ldr.w	r3, [r7, #148]	@ 0x94
 800339a:	3301      	adds	r3, #1
 800339c:	f8c7 3094 	str.w	r3, [r7, #148]	@ 0x94
 80033a0:	4ba7      	ldr	r3, [pc, #668]	@ (8003640 <main+0x1474>)
 80033a2:	681b      	ldr	r3, [r3, #0]
 80033a4:	f8d7 2094 	ldr.w	r2, [r7, #148]	@ 0x94
 80033a8:	429a      	cmp	r2, r3
 80033aa:	d3e2      	bcc.n	8003372 <main+0x11a6>
				  }
				  // xa b nh ban u
				  for (uint8_t i=0; i<(number_card*sizeof(user_info_t)/Sector+1); i++)
 80033ac:	2300      	movs	r3, #0
 80033ae:	f887 3093 	strb.w	r3, [r7, #147]	@ 0x93
 80033b2:	e00a      	b.n	80033ca <main+0x11fe>
				  {
					  W25Q_Erase_Sector(i);
 80033b4:	f897 3093 	ldrb.w	r3, [r7, #147]	@ 0x93
 80033b8:	b29b      	uxth	r3, r3
 80033ba:	4618      	mov	r0, r3
 80033bc:	f7fe fc1a 	bl	8001bf4 <W25Q_Erase_Sector>
				  for (uint8_t i=0; i<(number_card*sizeof(user_info_t)/Sector+1); i++)
 80033c0:	f897 3093 	ldrb.w	r3, [r7, #147]	@ 0x93
 80033c4:	3301      	adds	r3, #1
 80033c6:	f887 3093 	strb.w	r3, [r7, #147]	@ 0x93
 80033ca:	f897 2093 	ldrb.w	r2, [r7, #147]	@ 0x93
 80033ce:	4b9c      	ldr	r3, [pc, #624]	@ (8003640 <main+0x1474>)
 80033d0:	681b      	ldr	r3, [r3, #0]
 80033d2:	015b      	lsls	r3, r3, #5
 80033d4:	0b1b      	lsrs	r3, r3, #12
 80033d6:	3301      	adds	r3, #1
 80033d8:	429a      	cmp	r2, r3
 80033da:	d3eb      	bcc.n	80033b4 <main+0x11e8>
				  }
				  uint32_t i = 0, j = 0, k = 0;
 80033dc:	2300      	movs	r3, #0
 80033de:	f8c7 308c 	str.w	r3, [r7, #140]	@ 0x8c
 80033e2:	2300      	movs	r3, #0
 80033e4:	f8c7 3088 	str.w	r3, [r7, #136]	@ 0x88
 80033e8:	2300      	movs	r3, #0
 80033ea:	f8c7 3084 	str.w	r3, [r7, #132]	@ 0x84
				  user_info_t old_user, new_user;

				  while (i < number_card && j < add_card)
 80033ee:	e06d      	b.n	80034cc <main+0x1300>
				  {
					  W25Q_FastRead_address(i*sizeof(user_info_t) + Block32, sizeof(user_info_t), (uint8_t *)&old_user);
 80033f0:	f8d7 308c 	ldr.w	r3, [r7, #140]	@ 0x8c
 80033f4:	f503 3380 	add.w	r3, r3, #65536	@ 0x10000
 80033f8:	015b      	lsls	r3, r3, #5
 80033fa:	f107 0224 	add.w	r2, r7, #36	@ 0x24
 80033fe:	2120      	movs	r1, #32
 8003400:	4618      	mov	r0, r3
 8003402:	f7fe fb8b 	bl	8001b1c <W25Q_FastRead_address>
					  W25Q_FastRead_address(j*sizeof(user_info_t) + Block63, sizeof(user_info_t), (uint8_t *)&new_user);
 8003406:	f8d7 3088 	ldr.w	r3, [r7, #136]	@ 0x88
 800340a:	f503 33fc 	add.w	r3, r3, #129024	@ 0x1f800
 800340e:	015b      	lsls	r3, r3, #5
 8003410:	f107 0244 	add.w	r2, r7, #68	@ 0x44
 8003414:	2120      	movs	r1, #32
 8003416:	4618      	mov	r0, r3
 8003418:	f7fe fb80 	bl	8001b1c <W25Q_FastRead_address>
					  if (old_user.cardID < new_user.cardID)
 800341c:	6aba      	ldr	r2, [r7, #40]	@ 0x28
 800341e:	6cbb      	ldr	r3, [r7, #72]	@ 0x48
 8003420:	429a      	cmp	r2, r3
 8003422:	d217      	bcs.n	8003454 <main+0x1288>
					  {
						  old_user.STT = k + 1;
 8003424:	f8d7 3084 	ldr.w	r3, [r7, #132]	@ 0x84
 8003428:	3301      	adds	r3, #1
 800342a:	627b      	str	r3, [r7, #36]	@ 0x24
						  W25Q_Write_Nbytes(k*sizeof(user_info_t), (uint8_t *)&old_user, sizeof(user_info_t));
 800342c:	f8d7 3084 	ldr.w	r3, [r7, #132]	@ 0x84
 8003430:	015b      	lsls	r3, r3, #5
 8003432:	f107 0124 	add.w	r1, r7, #36	@ 0x24
 8003436:	2220      	movs	r2, #32
 8003438:	4618      	mov	r0, r3
 800343a:	f7fe fc2c 	bl	8001c96 <W25Q_Write_Nbytes>
						  i++; // Dch ch s ca mng  ly
 800343e:	f8d7 308c 	ldr.w	r3, [r7, #140]	@ 0x8c
 8003442:	3301      	adds	r3, #1
 8003444:	f8c7 308c 	str.w	r3, [r7, #140]	@ 0x8c
						  k++;
 8003448:	f8d7 3084 	ldr.w	r3, [r7, #132]	@ 0x84
 800344c:	3301      	adds	r3, #1
 800344e:	f8c7 3084 	str.w	r3, [r7, #132]	@ 0x84
 8003452:	e03b      	b.n	80034cc <main+0x1300>
					  } else if (old_user.cardID > new_user.cardID)
 8003454:	6aba      	ldr	r2, [r7, #40]	@ 0x28
 8003456:	6cbb      	ldr	r3, [r7, #72]	@ 0x48
 8003458:	429a      	cmp	r2, r3
 800345a:	d917      	bls.n	800348c <main+0x12c0>
					  {
						  new_user.STT = k + 1;
 800345c:	f8d7 3084 	ldr.w	r3, [r7, #132]	@ 0x84
 8003460:	3301      	adds	r3, #1
 8003462:	647b      	str	r3, [r7, #68]	@ 0x44
						  W25Q_Write_Nbytes(k*sizeof(user_info_t), (uint8_t *)&new_user, sizeof(user_info_t));
 8003464:	f8d7 3084 	ldr.w	r3, [r7, #132]	@ 0x84
 8003468:	015b      	lsls	r3, r3, #5
 800346a:	f107 0144 	add.w	r1, r7, #68	@ 0x44
 800346e:	2220      	movs	r2, #32
 8003470:	4618      	mov	r0, r3
 8003472:	f7fe fc10 	bl	8001c96 <W25Q_Write_Nbytes>
						  j++; // Dch ch s ca mng  ly
 8003476:	f8d7 3088 	ldr.w	r3, [r7, #136]	@ 0x88
 800347a:	3301      	adds	r3, #1
 800347c:	f8c7 3088 	str.w	r3, [r7, #136]	@ 0x88
						  k++;
 8003480:	f8d7 3084 	ldr.w	r3, [r7, #132]	@ 0x84
 8003484:	3301      	adds	r3, #1
 8003486:	f8c7 3084 	str.w	r3, [r7, #132]	@ 0x84
 800348a:	e01f      	b.n	80034cc <main+0x1300>
					  } else if (old_user.cardID == new_user.cardID)
 800348c:	6aba      	ldr	r2, [r7, #40]	@ 0x28
 800348e:	6cbb      	ldr	r3, [r7, #72]	@ 0x48
 8003490:	429a      	cmp	r2, r3
 8003492:	d11b      	bne.n	80034cc <main+0x1300>
					  {
						  new_user.STT = k + 1;
 8003494:	f8d7 3084 	ldr.w	r3, [r7, #132]	@ 0x84
 8003498:	3301      	adds	r3, #1
 800349a:	647b      	str	r3, [r7, #68]	@ 0x44
						  W25Q_Write_Nbytes(k*sizeof(user_info_t), (uint8_t *)&new_user, sizeof(user_info_t));
 800349c:	f8d7 3084 	ldr.w	r3, [r7, #132]	@ 0x84
 80034a0:	015b      	lsls	r3, r3, #5
 80034a2:	f107 0144 	add.w	r1, r7, #68	@ 0x44
 80034a6:	2220      	movs	r2, #32
 80034a8:	4618      	mov	r0, r3
 80034aa:	f7fe fbf4 	bl	8001c96 <W25Q_Write_Nbytes>
						  j++; // Dch ch s ca mng  ly
 80034ae:	f8d7 3088 	ldr.w	r3, [r7, #136]	@ 0x88
 80034b2:	3301      	adds	r3, #1
 80034b4:	f8c7 3088 	str.w	r3, [r7, #136]	@ 0x88
						  i++;
 80034b8:	f8d7 308c 	ldr.w	r3, [r7, #140]	@ 0x8c
 80034bc:	3301      	adds	r3, #1
 80034be:	f8c7 308c 	str.w	r3, [r7, #140]	@ 0x8c
						  k++;
 80034c2:	f8d7 3084 	ldr.w	r3, [r7, #132]	@ 0x84
 80034c6:	3301      	adds	r3, #1
 80034c8:	f8c7 3084 	str.w	r3, [r7, #132]	@ 0x84
				  while (i < number_card && j < add_card)
 80034cc:	4b5c      	ldr	r3, [pc, #368]	@ (8003640 <main+0x1474>)
 80034ce:	681b      	ldr	r3, [r3, #0]
 80034d0:	f8d7 208c 	ldr.w	r2, [r7, #140]	@ 0x8c
 80034d4:	429a      	cmp	r2, r3
 80034d6:	d228      	bcs.n	800352a <main+0x135e>
 80034d8:	f8d7 2088 	ldr.w	r2, [r7, #136]	@ 0x88
 80034dc:	f8d7 3098 	ldr.w	r3, [r7, #152]	@ 0x98
 80034e0:	429a      	cmp	r2, r3
 80034e2:	d385      	bcc.n	80033f0 <main+0x1224>
					  }
				  }
				  while (i < number_card)
 80034e4:	e021      	b.n	800352a <main+0x135e>
				  {
					  W25Q_FastRead_address(i*sizeof(user_info_t) + Block32, sizeof(user_info_t), (uint8_t *)&old_user);
 80034e6:	f8d7 308c 	ldr.w	r3, [r7, #140]	@ 0x8c
 80034ea:	f503 3380 	add.w	r3, r3, #65536	@ 0x10000
 80034ee:	015b      	lsls	r3, r3, #5
 80034f0:	f107 0224 	add.w	r2, r7, #36	@ 0x24
 80034f4:	2120      	movs	r1, #32
 80034f6:	4618      	mov	r0, r3
 80034f8:	f7fe fb10 	bl	8001b1c <W25Q_FastRead_address>
					  old_user.STT = k + 1;
 80034fc:	f8d7 3084 	ldr.w	r3, [r7, #132]	@ 0x84
 8003500:	3301      	adds	r3, #1
 8003502:	627b      	str	r3, [r7, #36]	@ 0x24
					  W25Q_Write_Nbytes(k*sizeof(user_info_t), (uint8_t *)&old_user, sizeof(user_info_t));
 8003504:	f8d7 3084 	ldr.w	r3, [r7, #132]	@ 0x84
 8003508:	015b      	lsls	r3, r3, #5
 800350a:	f107 0124 	add.w	r1, r7, #36	@ 0x24
 800350e:	2220      	movs	r2, #32
 8003510:	4618      	mov	r0, r3
 8003512:	f7fe fbc0 	bl	8001c96 <W25Q_Write_Nbytes>
					  i++;
 8003516:	f8d7 308c 	ldr.w	r3, [r7, #140]	@ 0x8c
 800351a:	3301      	adds	r3, #1
 800351c:	f8c7 308c 	str.w	r3, [r7, #140]	@ 0x8c
					  k++;
 8003520:	f8d7 3084 	ldr.w	r3, [r7, #132]	@ 0x84
 8003524:	3301      	adds	r3, #1
 8003526:	f8c7 3084 	str.w	r3, [r7, #132]	@ 0x84
				  while (i < number_card)
 800352a:	4b45      	ldr	r3, [pc, #276]	@ (8003640 <main+0x1474>)
 800352c:	681b      	ldr	r3, [r3, #0]
 800352e:	f8d7 208c 	ldr.w	r2, [r7, #140]	@ 0x8c
 8003532:	429a      	cmp	r2, r3
 8003534:	d3d7      	bcc.n	80034e6 <main+0x131a>
				  }
				  while (j < add_card)
 8003536:	e021      	b.n	800357c <main+0x13b0>
				  {
					  W25Q_FastRead_address(j*sizeof(user_info_t) + Block63, sizeof(user_info_t), (uint8_t *)&new_user);
 8003538:	f8d7 3088 	ldr.w	r3, [r7, #136]	@ 0x88
 800353c:	f503 33fc 	add.w	r3, r3, #129024	@ 0x1f800
 8003540:	015b      	lsls	r3, r3, #5
 8003542:	f107 0244 	add.w	r2, r7, #68	@ 0x44
 8003546:	2120      	movs	r1, #32
 8003548:	4618      	mov	r0, r3
 800354a:	f7fe fae7 	bl	8001b1c <W25Q_FastRead_address>
					  new_user.STT = k + 1;
 800354e:	f8d7 3084 	ldr.w	r3, [r7, #132]	@ 0x84
 8003552:	3301      	adds	r3, #1
 8003554:	647b      	str	r3, [r7, #68]	@ 0x44
					  W25Q_Write_Nbytes(k*sizeof(user_info_t), (uint8_t *)&new_user, sizeof(user_info_t));
 8003556:	f8d7 3084 	ldr.w	r3, [r7, #132]	@ 0x84
 800355a:	015b      	lsls	r3, r3, #5
 800355c:	f107 0144 	add.w	r1, r7, #68	@ 0x44
 8003560:	2220      	movs	r2, #32
 8003562:	4618      	mov	r0, r3
 8003564:	f7fe fb97 	bl	8001c96 <W25Q_Write_Nbytes>
					  j++;
 8003568:	f8d7 3088 	ldr.w	r3, [r7, #136]	@ 0x88
 800356c:	3301      	adds	r3, #1
 800356e:	f8c7 3088 	str.w	r3, [r7, #136]	@ 0x88
					  k++;
 8003572:	f8d7 3084 	ldr.w	r3, [r7, #132]	@ 0x84
 8003576:	3301      	adds	r3, #1
 8003578:	f8c7 3084 	str.w	r3, [r7, #132]	@ 0x84
				  while (j < add_card)
 800357c:	f8d7 2088 	ldr.w	r2, [r7, #136]	@ 0x88
 8003580:	f8d7 3098 	ldr.w	r3, [r7, #152]	@ 0x98
 8003584:	429a      	cmp	r2, r3
 8003586:	d3d7      	bcc.n	8003538 <main+0x136c>
				  }
				  for (uint32_t i=0; i<((number_card*sizeof(user_info_t)/Sector)+1); i++)
 8003588:	2300      	movs	r3, #0
 800358a:	f8c7 3080 	str.w	r3, [r7, #128]	@ 0x80
 800358e:	e00d      	b.n	80035ac <main+0x13e0>
				  {
					  W25Q_Erase_Sector(i + Block32/0x1000);
 8003590:	f8d7 3080 	ldr.w	r3, [r7, #128]	@ 0x80
 8003594:	b29b      	uxth	r3, r3
 8003596:	f503 7300 	add.w	r3, r3, #512	@ 0x200
 800359a:	b29b      	uxth	r3, r3
 800359c:	4618      	mov	r0, r3
 800359e:	f7fe fb29 	bl	8001bf4 <W25Q_Erase_Sector>
				  for (uint32_t i=0; i<((number_card*sizeof(user_info_t)/Sector)+1); i++)
 80035a2:	f8d7 3080 	ldr.w	r3, [r7, #128]	@ 0x80
 80035a6:	3301      	adds	r3, #1
 80035a8:	f8c7 3080 	str.w	r3, [r7, #128]	@ 0x80
 80035ac:	4b24      	ldr	r3, [pc, #144]	@ (8003640 <main+0x1474>)
 80035ae:	681b      	ldr	r3, [r3, #0]
 80035b0:	015b      	lsls	r3, r3, #5
 80035b2:	0b1b      	lsrs	r3, r3, #12
 80035b4:	3301      	adds	r3, #1
 80035b6:	f8d7 2080 	ldr.w	r2, [r7, #128]	@ 0x80
 80035ba:	429a      	cmp	r2, r3
 80035bc:	d3e8      	bcc.n	8003590 <main+0x13c4>
				  }
				  for (uint32_t i=0; i<((add_card*sizeof(user_info_t)/Sector)+1); i++)
 80035be:	2300      	movs	r3, #0
 80035c0:	67fb      	str	r3, [r7, #124]	@ 0x7c
 80035c2:	e00a      	b.n	80035da <main+0x140e>
				  {
					  W25Q_Erase_Sector(i + Block63/0x1000);
 80035c4:	6ffb      	ldr	r3, [r7, #124]	@ 0x7c
 80035c6:	b29b      	uxth	r3, r3
 80035c8:	f503 737c 	add.w	r3, r3, #1008	@ 0x3f0
 80035cc:	b29b      	uxth	r3, r3
 80035ce:	4618      	mov	r0, r3
 80035d0:	f7fe fb10 	bl	8001bf4 <W25Q_Erase_Sector>
				  for (uint32_t i=0; i<((add_card*sizeof(user_info_t)/Sector)+1); i++)
 80035d4:	6ffb      	ldr	r3, [r7, #124]	@ 0x7c
 80035d6:	3301      	adds	r3, #1
 80035d8:	67fb      	str	r3, [r7, #124]	@ 0x7c
 80035da:	f8d7 3098 	ldr.w	r3, [r7, #152]	@ 0x98
 80035de:	015b      	lsls	r3, r3, #5
 80035e0:	0b1b      	lsrs	r3, r3, #12
 80035e2:	3301      	adds	r3, #1
 80035e4:	6ffa      	ldr	r2, [r7, #124]	@ 0x7c
 80035e6:	429a      	cmp	r2, r3
 80035e8:	d3ec      	bcc.n	80035c4 <main+0x13f8>
				  }
				  sendString("W", "COK");
 80035ea:	4916      	ldr	r1, [pc, #88]	@ (8003644 <main+0x1478>)
 80035ec:	4816      	ldr	r0, [pc, #88]	@ (8003648 <main+0x147c>)
 80035ee:	f000 fc07 	bl	8003e00 <sendString>
				  HAL_NVIC_SystemReset();
 80035f2:	f002 fc36 	bl	8005e62 <HAL_NVIC_SystemReset>
			  while (write_done)
 80035f6:	4b10      	ldr	r3, [pc, #64]	@ (8003638 <main+0x146c>)
 80035f8:	781b      	ldrb	r3, [r3, #0]
 80035fa:	2b00      	cmp	r3, #0
 80035fc:	f47f aeb5 	bne.w	800336a <main+0x119e>
			  }

			  if (abs(HAL_GetTick() - time_break) > Timeout_online)
 8003600:	f001 fc14 	bl	8004e2c <HAL_GetTick>
 8003604:	4602      	mov	r2, r0
 8003606:	4b11      	ldr	r3, [pc, #68]	@ (800364c <main+0x1480>)
 8003608:	681b      	ldr	r3, [r3, #0]
 800360a:	1ad3      	subs	r3, r2, r3
 800360c:	2b00      	cmp	r3, #0
 800360e:	bfb8      	it	lt
 8003610:	425b      	neglt	r3, r3
 8003612:	f242 7210 	movw	r2, #10000	@ 0x2710
 8003616:	4293      	cmp	r3, r2
 8003618:	f77f adc0 	ble.w	800319c <main+0xfd0>
			  {
				  HAL_NVIC_SystemReset();
 800361c:	f002 fc21 	bl	8005e62 <HAL_NVIC_SystemReset>
 8003620:	e5bc      	b.n	800319c <main+0xfd0>
				  continue;
 8003622:	bf00      	nop
			  lenData = getSn_RX_RSR(SOCK_NUM);
 8003624:	e5ba      	b.n	800319c <main+0xfd0>
	  while (write_mode_somecard)
 8003626:	4b0a      	ldr	r3, [pc, #40]	@ (8003650 <main+0x1484>)
 8003628:	781b      	ldrb	r3, [r3, #0]
 800362a:	2b00      	cmp	r3, #0
 800362c:	f47f ada3 	bne.w	8003176 <main+0xfaa>
			  }
		  }
	  }
	  while (write_card_by_hand)
 8003630:	e06b      	b.n	800370a <main+0x153e>
 8003632:	bf00      	nop
 8003634:	20000304 	.word	0x20000304
 8003638:	20000724 	.word	0x20000724
 800363c:	200007b0 	.word	0x200007b0
 8003640:	20000694 	.word	0x20000694
 8003644:	08009894 	.word	0x08009894
 8003648:	0800988c 	.word	0x0800988c
 800364c:	2000069c 	.word	0x2000069c
 8003650:	20000722 	.word	0x20000722
	  {
		  sendString("W", "HOK");
 8003654:	4950      	ldr	r1, [pc, #320]	@ (8003798 <main+0x15cc>)
 8003656:	4851      	ldr	r0, [pc, #324]	@ (800379c <main+0x15d0>)
 8003658:	f000 fbd2 	bl	8003e00 <sendString>
		  time_break = HAL_GetTick();
 800365c:	f001 fbe6 	bl	8004e2c <HAL_GetTick>
 8003660:	4603      	mov	r3, r0
 8003662:	4a4f      	ldr	r2, [pc, #316]	@ (80037a0 <main+0x15d4>)
 8003664:	6013      	str	r3, [r2, #0]
		  bypass_from_Eth = true;
 8003666:	4b4f      	ldr	r3, [pc, #316]	@ (80037a4 <main+0x15d8>)
 8003668:	2201      	movs	r2, #1
 800366a:	701a      	strb	r2, [r3, #0]
		  while (1)
		  {
			  lenData = getSn_RX_RSR(SOCK_NUM);
 800366c:	2000      	movs	r0, #0
 800366e:	f7fc ff18 	bl	80004a2 <getSn_RX_RSR>
 8003672:	4603      	mov	r3, r0
 8003674:	461a      	mov	r2, r3
 8003676:	4b4c      	ldr	r3, [pc, #304]	@ (80037a8 <main+0x15dc>)
 8003678:	601a      	str	r2, [r3, #0]
			  if (getSn_RX_RSR(SOCK_NUM) == lenData)
 800367a:	2000      	movs	r0, #0
 800367c:	f7fc ff11 	bl	80004a2 <getSn_RX_RSR>
 8003680:	4603      	mov	r3, r0
 8003682:	461a      	mov	r2, r3
 8003684:	4b48      	ldr	r3, [pc, #288]	@ (80037a8 <main+0x15dc>)
 8003686:	681b      	ldr	r3, [r3, #0]
 8003688:	429a      	cmp	r2, r3
 800368a:	d11c      	bne.n	80036c6 <main+0x14fa>
			  {
				  if (lenData > 512)
 800368c:	4b46      	ldr	r3, [pc, #280]	@ (80037a8 <main+0x15dc>)
 800368e:	681b      	ldr	r3, [r3, #0]
 8003690:	f5b3 7f00 	cmp.w	r3, #512	@ 0x200
 8003694:	d901      	bls.n	800369a <main+0x14ce>
				  {
					  HAL_NVIC_SystemReset();
 8003696:	f002 fbe4 	bl	8005e62 <HAL_NVIC_SystemReset>
				  }
				  if (lenData > 0)
 800369a:	4b43      	ldr	r3, [pc, #268]	@ (80037a8 <main+0x15dc>)
 800369c:	681b      	ldr	r3, [r3, #0]
 800369e:	2b00      	cmp	r3, #0
 80036a0:	d011      	beq.n	80036c6 <main+0x14fa>
				  {
					  recv(SOCK_NUM, buf, lenData);
 80036a2:	4b41      	ldr	r3, [pc, #260]	@ (80037a8 <main+0x15dc>)
 80036a4:	681b      	ldr	r3, [r3, #0]
 80036a6:	b29b      	uxth	r3, r3
 80036a8:	461a      	mov	r2, r3
 80036aa:	4940      	ldr	r1, [pc, #256]	@ (80037ac <main+0x15e0>)
 80036ac:	2000      	movs	r0, #0
 80036ae:	f7fd fc13 	bl	8000ed8 <recv>
					  if (buf[0] == 0x57)
 80036b2:	4b3e      	ldr	r3, [pc, #248]	@ (80037ac <main+0x15e0>)
 80036b4:	781b      	ldrb	r3, [r3, #0]
 80036b6:	2b57      	cmp	r3, #87	@ 0x57
 80036b8:	d105      	bne.n	80036c6 <main+0x14fa>
					  {
						  if (buf[1] == 0x43)
 80036ba:	4b3c      	ldr	r3, [pc, #240]	@ (80037ac <main+0x15e0>)
 80036bc:	785b      	ldrb	r3, [r3, #1]
 80036be:	2b43      	cmp	r3, #67	@ 0x43
 80036c0:	d101      	bne.n	80036c6 <main+0x14fa>
						  {
							  HAL_NVIC_SystemReset();
 80036c2:	f002 fbce 	bl	8005e62 <HAL_NVIC_SystemReset>
						  }
					  }
				  }
			  }
			  if (new_wcode)
 80036c6:	4b3a      	ldr	r3, [pc, #232]	@ (80037b0 <main+0x15e4>)
 80036c8:	781b      	ldrb	r3, [r3, #0]
 80036ca:	2b00      	cmp	r3, #0
 80036cc:	d00d      	beq.n	80036ea <main+0x151e>
			  {
				  new_wcode = false;
 80036ce:	4b38      	ldr	r3, [pc, #224]	@ (80037b0 <main+0x15e4>)
 80036d0:	2200      	movs	r2, #0
 80036d2:	701a      	strb	r2, [r3, #0]
				  sendData_eth("H", wcode);
 80036d4:	4b37      	ldr	r3, [pc, #220]	@ (80037b4 <main+0x15e8>)
 80036d6:	681b      	ldr	r3, [r3, #0]
 80036d8:	4619      	mov	r1, r3
 80036da:	4837      	ldr	r0, [pc, #220]	@ (80037b8 <main+0x15ec>)
 80036dc:	f000 fb58 	bl	8003d90 <sendData_eth>
				  time_break = HAL_GetTick();
 80036e0:	f001 fba4 	bl	8004e2c <HAL_GetTick>
 80036e4:	4603      	mov	r3, r0
 80036e6:	4a2e      	ldr	r2, [pc, #184]	@ (80037a0 <main+0x15d4>)
 80036e8:	6013      	str	r3, [r2, #0]
			  }
			  if (abs(HAL_GetTick() - time_break) > Timeout_online)
 80036ea:	f001 fb9f 	bl	8004e2c <HAL_GetTick>
 80036ee:	4602      	mov	r2, r0
 80036f0:	4b2b      	ldr	r3, [pc, #172]	@ (80037a0 <main+0x15d4>)
 80036f2:	681b      	ldr	r3, [r3, #0]
 80036f4:	1ad3      	subs	r3, r2, r3
 80036f6:	2b00      	cmp	r3, #0
 80036f8:	bfb8      	it	lt
 80036fa:	425b      	neglt	r3, r3
 80036fc:	f242 7210 	movw	r2, #10000	@ 0x2710
 8003700:	4293      	cmp	r3, r2
 8003702:	ddb3      	ble.n	800366c <main+0x14a0>
			  {
				  HAL_NVIC_SystemReset();
 8003704:	f002 fbad 	bl	8005e62 <HAL_NVIC_SystemReset>
			  lenData = getSn_RX_RSR(SOCK_NUM);
 8003708:	e7b0      	b.n	800366c <main+0x14a0>
	  while (write_card_by_hand)
 800370a:	4b2c      	ldr	r3, [pc, #176]	@ (80037bc <main+0x15f0>)
 800370c:	781b      	ldrb	r3, [r3, #0]
 800370e:	2b00      	cmp	r3, #0
 8003710:	d1a0      	bne.n	8003654 <main+0x1488>
			  }
		  }
	  }
	  if (RST_set)
 8003712:	4b2b      	ldr	r3, [pc, #172]	@ (80037c0 <main+0x15f4>)
 8003714:	781b      	ldrb	r3, [r3, #0]
 8003716:	2b00      	cmp	r3, #0
 8003718:	d030      	beq.n	800377c <main+0x15b0>
	  {
		  if (RST_timer_last > 10000)
 800371a:	4b2a      	ldr	r3, [pc, #168]	@ (80037c4 <main+0x15f8>)
 800371c:	681b      	ldr	r3, [r3, #0]
 800371e:	f242 7210 	movw	r2, #10000	@ 0x2710
 8003722:	4293      	cmp	r3, r2
 8003724:	d928      	bls.n	8003778 <main+0x15ac>
		  {
			  ip1 = 192;
 8003726:	4b28      	ldr	r3, [pc, #160]	@ (80037c8 <main+0x15fc>)
 8003728:	22c0      	movs	r2, #192	@ 0xc0
 800372a:	701a      	strb	r2, [r3, #0]
			  ip2 = 168;
 800372c:	4b27      	ldr	r3, [pc, #156]	@ (80037cc <main+0x1600>)
 800372e:	22a8      	movs	r2, #168	@ 0xa8
 8003730:	701a      	strb	r2, [r3, #0]
			  ip3 = 0;
 8003732:	4b27      	ldr	r3, [pc, #156]	@ (80037d0 <main+0x1604>)
 8003734:	2200      	movs	r2, #0
 8003736:	701a      	strb	r2, [r3, #0]
			  ip4 = 72;
 8003738:	4b26      	ldr	r3, [pc, #152]	@ (80037d4 <main+0x1608>)
 800373a:	2248      	movs	r2, #72	@ 0x48
 800373c:	701a      	strb	r2, [r3, #0]
			  ip_server1 = 192;
 800373e:	4b26      	ldr	r3, [pc, #152]	@ (80037d8 <main+0x160c>)
 8003740:	22c0      	movs	r2, #192	@ 0xc0
 8003742:	701a      	strb	r2, [r3, #0]
			  ip_server2 = 168;
 8003744:	4b25      	ldr	r3, [pc, #148]	@ (80037dc <main+0x1610>)
 8003746:	22a8      	movs	r2, #168	@ 0xa8
 8003748:	701a      	strb	r2, [r3, #0]
			  ip_server3 = 0;
 800374a:	4b25      	ldr	r3, [pc, #148]	@ (80037e0 <main+0x1614>)
 800374c:	2200      	movs	r2, #0
 800374e:	701a      	strb	r2, [r3, #0]
			  ip_server4 = 2;
 8003750:	4b24      	ldr	r3, [pc, #144]	@ (80037e4 <main+0x1618>)
 8003752:	2202      	movs	r2, #2
 8003754:	701a      	strb	r2, [r3, #0]
			  port_server = 6000;
 8003756:	4b24      	ldr	r3, [pc, #144]	@ (80037e8 <main+0x161c>)
 8003758:	f241 7270 	movw	r2, #6000	@ 0x1770
 800375c:	801a      	strh	r2, [r3, #0]
			  port_client = 0;
 800375e:	4b23      	ldr	r3, [pc, #140]	@ (80037ec <main+0x1620>)
 8003760:	2200      	movs	r2, #0
 8003762:	801a      	strh	r2, [r3, #0]
			  time_delay = 1;
 8003764:	4b22      	ldr	r3, [pc, #136]	@ (80037f0 <main+0x1624>)
 8003766:	2201      	movs	r2, #1
 8003768:	701a      	strb	r2, [r3, #0]
			  elevator_mode = 0;
 800376a:	4b22      	ldr	r3, [pc, #136]	@ (80037f4 <main+0x1628>)
 800376c:	2200      	movs	r2, #0
 800376e:	701a      	strb	r2, [r3, #0]
			  W25Q_EraseChip();
 8003770:	f7fe fa27 	bl	8001bc2 <W25Q_EraseChip>
			  save_data();
 8003774:	f000 fc70 	bl	8004058 <save_data>
		  }
		  HAL_NVIC_SystemReset();
 8003778:	f002 fb73 	bl	8005e62 <HAL_NVIC_SystemReset>
	  }
	  if (counter_reset == 100)
 800377c:	4b1e      	ldr	r3, [pc, #120]	@ (80037f8 <main+0x162c>)
 800377e:	681b      	ldr	r3, [r3, #0]
 8003780:	2b64      	cmp	r3, #100	@ 0x64
 8003782:	d101      	bne.n	8003788 <main+0x15bc>
	  {
		  HAL_NVIC_SystemReset();
 8003784:	f002 fb6d 	bl	8005e62 <HAL_NVIC_SystemReset>
	  }
	  HAL_Delay(10);
 8003788:	200a      	movs	r0, #10
 800378a:	f001 fb59 	bl	8004e40 <HAL_Delay>
 800378e:	f7fe bf4f 	b.w	8002630 <main+0x464>
		  continue;
 8003792:	bf00      	nop
	  lenData = getSn_RX_RSR(SOCK_NUM);
 8003794:	f7fe bf4c 	b.w	8002630 <main+0x464>
 8003798:	0800989c 	.word	0x0800989c
 800379c:	0800988c 	.word	0x0800988c
 80037a0:	2000069c 	.word	0x2000069c
 80037a4:	200006dd 	.word	0x200006dd
 80037a8:	200006a0 	.word	0x200006a0
 80037ac:	20000304 	.word	0x20000304
 80037b0:	20000727 	.word	0x20000727
 80037b4:	2000058c 	.word	0x2000058c
 80037b8:	080098a0 	.word	0x080098a0
 80037bc:	2000072b 	.word	0x2000072b
 80037c0:	2000072d 	.word	0x2000072d
 80037c4:	200006c4 	.word	0x200006c4
 80037c8:	2000051c 	.word	0x2000051c
 80037cc:	2000051d 	.word	0x2000051d
 80037d0:	2000051e 	.word	0x2000051e
 80037d4:	2000051f 	.word	0x2000051f
 80037d8:	20000520 	.word	0x20000520
 80037dc:	20000521 	.word	0x20000521
 80037e0:	20000522 	.word	0x20000522
 80037e4:	20000523 	.word	0x20000523
 80037e8:	20000582 	.word	0x20000582
 80037ec:	20000584 	.word	0x20000584
 80037f0:	20000510 	.word	0x20000510
 80037f4:	20000542 	.word	0x20000542
 80037f8:	200006cc 	.word	0x200006cc

080037fc <SystemClock_Config>:
/**
  * @brief System Clock Configuration
  * @retval None
  */
void SystemClock_Config(void)
{
 80037fc:	b580      	push	{r7, lr}
 80037fe:	b090      	sub	sp, #64	@ 0x40
 8003800:	af00      	add	r7, sp, #0
  RCC_OscInitTypeDef RCC_OscInitStruct = {0};
 8003802:	f107 0318 	add.w	r3, r7, #24
 8003806:	2228      	movs	r2, #40	@ 0x28
 8003808:	2100      	movs	r1, #0
 800380a:	4618      	mov	r0, r3
 800380c:	f005 ffd8 	bl	80097c0 <memset>
  RCC_ClkInitTypeDef RCC_ClkInitStruct = {0};
 8003810:	1d3b      	adds	r3, r7, #4
 8003812:	2200      	movs	r2, #0
 8003814:	601a      	str	r2, [r3, #0]
 8003816:	605a      	str	r2, [r3, #4]
 8003818:	609a      	str	r2, [r3, #8]
 800381a:	60da      	str	r2, [r3, #12]
 800381c:	611a      	str	r2, [r3, #16]

  /** Initializes the RCC Oscillators according to the specified parameters
  * in the RCC_OscInitTypeDef structure.
  */
  RCC_OscInitStruct.OscillatorType = RCC_OSCILLATORTYPE_LSI|RCC_OSCILLATORTYPE_HSE;
 800381e:	2309      	movs	r3, #9
 8003820:	61bb      	str	r3, [r7, #24]
  RCC_OscInitStruct.HSEState = RCC_HSE_ON;
 8003822:	f44f 3380 	mov.w	r3, #65536	@ 0x10000
 8003826:	61fb      	str	r3, [r7, #28]
  RCC_OscInitStruct.HSEPredivValue = RCC_HSE_PREDIV_DIV2;
 8003828:	f44f 3300 	mov.w	r3, #131072	@ 0x20000
 800382c:	623b      	str	r3, [r7, #32]
  RCC_OscInitStruct.HSIState = RCC_HSI_ON;
 800382e:	2301      	movs	r3, #1
 8003830:	62bb      	str	r3, [r7, #40]	@ 0x28
  RCC_OscInitStruct.LSIState = RCC_LSI_ON;
 8003832:	2301      	movs	r3, #1
 8003834:	633b      	str	r3, [r7, #48]	@ 0x30
  RCC_OscInitStruct.PLL.PLLState = RCC_PLL_ON;
 8003836:	2302      	movs	r3, #2
 8003838:	637b      	str	r3, [r7, #52]	@ 0x34
  RCC_OscInitStruct.PLL.PLLSource = RCC_PLLSOURCE_HSE;
 800383a:	f44f 3380 	mov.w	r3, #65536	@ 0x10000
 800383e:	63bb      	str	r3, [r7, #56]	@ 0x38
  RCC_OscInitStruct.PLL.PLLMUL = RCC_PLL_MUL9;
 8003840:	f44f 13e0 	mov.w	r3, #1835008	@ 0x1c0000
 8003844:	63fb      	str	r3, [r7, #60]	@ 0x3c
  if (HAL_RCC_OscConfig(&RCC_OscInitStruct) != HAL_OK)
 8003846:	f107 0318 	add.w	r3, r7, #24
 800384a:	4618      	mov	r0, r3
 800384c:	f003 f9f4 	bl	8006c38 <HAL_RCC_OscConfig>
 8003850:	4603      	mov	r3, r0
 8003852:	2b00      	cmp	r3, #0
 8003854:	d001      	beq.n	800385a <SystemClock_Config+0x5e>
  {
    Error_Handler();
 8003856:	f001 f827 	bl	80048a8 <Error_Handler>
  }

  /** Initializes the CPU, AHB and APB buses clocks
  */
  RCC_ClkInitStruct.ClockType = RCC_CLOCKTYPE_HCLK|RCC_CLOCKTYPE_SYSCLK
 800385a:	230f      	movs	r3, #15
 800385c:	607b      	str	r3, [r7, #4]
                              |RCC_CLOCKTYPE_PCLK1|RCC_CLOCKTYPE_PCLK2;
  RCC_ClkInitStruct.SYSCLKSource = RCC_SYSCLKSOURCE_PLLCLK;
 800385e:	2302      	movs	r3, #2
 8003860:	60bb      	str	r3, [r7, #8]
  RCC_ClkInitStruct.AHBCLKDivider = RCC_SYSCLK_DIV1;
 8003862:	2300      	movs	r3, #0
 8003864:	60fb      	str	r3, [r7, #12]
  RCC_ClkInitStruct.APB1CLKDivider = RCC_HCLK_DIV2;
 8003866:	f44f 6380 	mov.w	r3, #1024	@ 0x400
 800386a:	613b      	str	r3, [r7, #16]
  RCC_ClkInitStruct.APB2CLKDivider = RCC_HCLK_DIV1;
 800386c:	2300      	movs	r3, #0
 800386e:	617b      	str	r3, [r7, #20]

  if (HAL_RCC_ClockConfig(&RCC_ClkInitStruct, FLASH_LATENCY_2) != HAL_OK)
 8003870:	1d3b      	adds	r3, r7, #4
 8003872:	2102      	movs	r1, #2
 8003874:	4618      	mov	r0, r3
 8003876:	f003 fc61 	bl	800713c <HAL_RCC_ClockConfig>
 800387a:	4603      	mov	r3, r0
 800387c:	2b00      	cmp	r3, #0
 800387e:	d001      	beq.n	8003884 <SystemClock_Config+0x88>
  {
    Error_Handler();
 8003880:	f001 f812 	bl	80048a8 <Error_Handler>
  }
}
 8003884:	bf00      	nop
 8003886:	3740      	adds	r7, #64	@ 0x40
 8003888:	46bd      	mov	sp, r7
 800388a:	bd80      	pop	{r7, pc}

0800388c <MX_CAN_Init>:
  * @brief CAN Initialization Function
  * @param None
  * @retval None
  */
static void MX_CAN_Init(void)
{
 800388c:	b580      	push	{r7, lr}
 800388e:	af00      	add	r7, sp, #0
  /* USER CODE END CAN_Init 0 */

  /* USER CODE BEGIN CAN_Init 1 */

  /* USER CODE END CAN_Init 1 */
  hcan.Instance = CAN1;
 8003890:	4b17      	ldr	r3, [pc, #92]	@ (80038f0 <MX_CAN_Init+0x64>)
 8003892:	4a18      	ldr	r2, [pc, #96]	@ (80038f4 <MX_CAN_Init+0x68>)
 8003894:	601a      	str	r2, [r3, #0]
  hcan.Init.Prescaler = 60;
 8003896:	4b16      	ldr	r3, [pc, #88]	@ (80038f0 <MX_CAN_Init+0x64>)
 8003898:	223c      	movs	r2, #60	@ 0x3c
 800389a:	605a      	str	r2, [r3, #4]
  hcan.Init.Mode = CAN_MODE_NORMAL;
 800389c:	4b14      	ldr	r3, [pc, #80]	@ (80038f0 <MX_CAN_Init+0x64>)
 800389e:	2200      	movs	r2, #0
 80038a0:	609a      	str	r2, [r3, #8]
  hcan.Init.SyncJumpWidth = CAN_SJW_1TQ;
 80038a2:	4b13      	ldr	r3, [pc, #76]	@ (80038f0 <MX_CAN_Init+0x64>)
 80038a4:	2200      	movs	r2, #0
 80038a6:	60da      	str	r2, [r3, #12]
  hcan.Init.TimeSeg1 = CAN_BS1_16TQ;
 80038a8:	4b11      	ldr	r3, [pc, #68]	@ (80038f0 <MX_CAN_Init+0x64>)
 80038aa:	f44f 2270 	mov.w	r2, #983040	@ 0xf0000
 80038ae:	611a      	str	r2, [r3, #16]
  hcan.Init.TimeSeg2 = CAN_BS2_7TQ;
 80038b0:	4b0f      	ldr	r3, [pc, #60]	@ (80038f0 <MX_CAN_Init+0x64>)
 80038b2:	f44f 02c0 	mov.w	r2, #6291456	@ 0x600000
 80038b6:	615a      	str	r2, [r3, #20]
  hcan.Init.TimeTriggeredMode = DISABLE;
 80038b8:	4b0d      	ldr	r3, [pc, #52]	@ (80038f0 <MX_CAN_Init+0x64>)
 80038ba:	2200      	movs	r2, #0
 80038bc:	761a      	strb	r2, [r3, #24]
  hcan.Init.AutoBusOff = ENABLE;
 80038be:	4b0c      	ldr	r3, [pc, #48]	@ (80038f0 <MX_CAN_Init+0x64>)
 80038c0:	2201      	movs	r2, #1
 80038c2:	765a      	strb	r2, [r3, #25]
  hcan.Init.AutoWakeUp = DISABLE;
 80038c4:	4b0a      	ldr	r3, [pc, #40]	@ (80038f0 <MX_CAN_Init+0x64>)
 80038c6:	2200      	movs	r2, #0
 80038c8:	769a      	strb	r2, [r3, #26]
  hcan.Init.AutoRetransmission = DISABLE;
 80038ca:	4b09      	ldr	r3, [pc, #36]	@ (80038f0 <MX_CAN_Init+0x64>)
 80038cc:	2200      	movs	r2, #0
 80038ce:	76da      	strb	r2, [r3, #27]
  hcan.Init.ReceiveFifoLocked = DISABLE;
 80038d0:	4b07      	ldr	r3, [pc, #28]	@ (80038f0 <MX_CAN_Init+0x64>)
 80038d2:	2200      	movs	r2, #0
 80038d4:	771a      	strb	r2, [r3, #28]
  hcan.Init.TransmitFifoPriority = DISABLE;
 80038d6:	4b06      	ldr	r3, [pc, #24]	@ (80038f0 <MX_CAN_Init+0x64>)
 80038d8:	2200      	movs	r2, #0
 80038da:	775a      	strb	r2, [r3, #29]
  if (HAL_CAN_Init(&hcan) != HAL_OK)
 80038dc:	4804      	ldr	r0, [pc, #16]	@ (80038f0 <MX_CAN_Init+0x64>)
 80038de:	f001 faf1 	bl	8004ec4 <HAL_CAN_Init>
 80038e2:	4603      	mov	r3, r0
 80038e4:	2b00      	cmp	r3, #0
 80038e6:	d001      	beq.n	80038ec <MX_CAN_Init+0x60>
  {
    Error_Handler();
 80038e8:	f000 ffde 	bl	80048a8 <Error_Handler>
  }
  /* USER CODE BEGIN CAN_Init 2 */

  /* USER CODE END CAN_Init 2 */

}
 80038ec:	bf00      	nop
 80038ee:	bd80      	pop	{r7, pc}
 80038f0:	2000009c 	.word	0x2000009c
 80038f4:	40006400 	.word	0x40006400

080038f8 <MX_IWDG_Init>:
  * @brief IWDG Initialization Function
  * @param None
  * @retval None
  */
static void MX_IWDG_Init(void)
{
 80038f8:	b580      	push	{r7, lr}
 80038fa:	af00      	add	r7, sp, #0
  /* USER CODE END IWDG_Init 0 */

  /* USER CODE BEGIN IWDG_Init 1 */

  /* USER CODE END IWDG_Init 1 */
  hiwdg.Instance = IWDG;
 80038fc:	4b09      	ldr	r3, [pc, #36]	@ (8003924 <MX_IWDG_Init+0x2c>)
 80038fe:	4a0a      	ldr	r2, [pc, #40]	@ (8003928 <MX_IWDG_Init+0x30>)
 8003900:	601a      	str	r2, [r3, #0]
  hiwdg.Init.Prescaler = IWDG_PRESCALER_64;
 8003902:	4b08      	ldr	r3, [pc, #32]	@ (8003924 <MX_IWDG_Init+0x2c>)
 8003904:	2204      	movs	r2, #4
 8003906:	605a      	str	r2, [r3, #4]
  hiwdg.Init.Reload = 1874;
 8003908:	4b06      	ldr	r3, [pc, #24]	@ (8003924 <MX_IWDG_Init+0x2c>)
 800390a:	f240 7252 	movw	r2, #1874	@ 0x752
 800390e:	609a      	str	r2, [r3, #8]
  if (HAL_IWDG_Init(&hiwdg) != HAL_OK)
 8003910:	4804      	ldr	r0, [pc, #16]	@ (8003924 <MX_IWDG_Init+0x2c>)
 8003912:	f003 f93d 	bl	8006b90 <HAL_IWDG_Init>
 8003916:	4603      	mov	r3, r0
 8003918:	2b00      	cmp	r3, #0
 800391a:	d001      	beq.n	8003920 <MX_IWDG_Init+0x28>
  {
    Error_Handler();
 800391c:	f000 ffc4 	bl	80048a8 <Error_Handler>
  }
  /* USER CODE BEGIN IWDG_Init 2 */

  /* USER CODE END IWDG_Init 2 */

}
 8003920:	bf00      	nop
 8003922:	bd80      	pop	{r7, pc}
 8003924:	200000c4 	.word	0x200000c4
 8003928:	40003000 	.word	0x40003000

0800392c <MX_SPI1_Init>:
  * @brief SPI1 Initialization Function
  * @param None
  * @retval None
  */
static void MX_SPI1_Init(void)
{
 800392c:	b580      	push	{r7, lr}
 800392e:	af00      	add	r7, sp, #0

  /* USER CODE BEGIN SPI1_Init 1 */

  /* USER CODE END SPI1_Init 1 */
  /* SPI1 parameter configuration*/
  hspi1.Instance = SPI1;
 8003930:	4b17      	ldr	r3, [pc, #92]	@ (8003990 <MX_SPI1_Init+0x64>)
 8003932:	4a18      	ldr	r2, [pc, #96]	@ (8003994 <MX_SPI1_Init+0x68>)
 8003934:	601a      	str	r2, [r3, #0]
  hspi1.Init.Mode = SPI_MODE_MASTER;
 8003936:	4b16      	ldr	r3, [pc, #88]	@ (8003990 <MX_SPI1_Init+0x64>)
 8003938:	f44f 7282 	mov.w	r2, #260	@ 0x104
 800393c:	605a      	str	r2, [r3, #4]
  hspi1.Init.Direction = SPI_DIRECTION_2LINES;
 800393e:	4b14      	ldr	r3, [pc, #80]	@ (8003990 <MX_SPI1_Init+0x64>)
 8003940:	2200      	movs	r2, #0
 8003942:	609a      	str	r2, [r3, #8]
  hspi1.Init.DataSize = SPI_DATASIZE_8BIT;
 8003944:	4b12      	ldr	r3, [pc, #72]	@ (8003990 <MX_SPI1_Init+0x64>)
 8003946:	2200      	movs	r2, #0
 8003948:	60da      	str	r2, [r3, #12]
  hspi1.Init.CLKPolarity = SPI_POLARITY_LOW;
 800394a:	4b11      	ldr	r3, [pc, #68]	@ (8003990 <MX_SPI1_Init+0x64>)
 800394c:	2200      	movs	r2, #0
 800394e:	611a      	str	r2, [r3, #16]
  hspi1.Init.CLKPhase = SPI_PHASE_1EDGE;
 8003950:	4b0f      	ldr	r3, [pc, #60]	@ (8003990 <MX_SPI1_Init+0x64>)
 8003952:	2200      	movs	r2, #0
 8003954:	615a      	str	r2, [r3, #20]
  hspi1.Init.NSS = SPI_NSS_SOFT;
 8003956:	4b0e      	ldr	r3, [pc, #56]	@ (8003990 <MX_SPI1_Init+0x64>)
 8003958:	f44f 7200 	mov.w	r2, #512	@ 0x200
 800395c:	619a      	str	r2, [r3, #24]
  hspi1.Init.BaudRatePrescaler = SPI_BAUDRATEPRESCALER_32;
 800395e:	4b0c      	ldr	r3, [pc, #48]	@ (8003990 <MX_SPI1_Init+0x64>)
 8003960:	2220      	movs	r2, #32
 8003962:	61da      	str	r2, [r3, #28]
  hspi1.Init.FirstBit = SPI_FIRSTBIT_MSB;
 8003964:	4b0a      	ldr	r3, [pc, #40]	@ (8003990 <MX_SPI1_Init+0x64>)
 8003966:	2200      	movs	r2, #0
 8003968:	621a      	str	r2, [r3, #32]
  hspi1.Init.TIMode = SPI_TIMODE_DISABLE;
 800396a:	4b09      	ldr	r3, [pc, #36]	@ (8003990 <MX_SPI1_Init+0x64>)
 800396c:	2200      	movs	r2, #0
 800396e:	625a      	str	r2, [r3, #36]	@ 0x24
  hspi1.Init.CRCCalculation = SPI_CRCCALCULATION_DISABLE;
 8003970:	4b07      	ldr	r3, [pc, #28]	@ (8003990 <MX_SPI1_Init+0x64>)
 8003972:	2200      	movs	r2, #0
 8003974:	629a      	str	r2, [r3, #40]	@ 0x28
  hspi1.Init.CRCPolynomial = 10;
 8003976:	4b06      	ldr	r3, [pc, #24]	@ (8003990 <MX_SPI1_Init+0x64>)
 8003978:	220a      	movs	r2, #10
 800397a:	62da      	str	r2, [r3, #44]	@ 0x2c
  if (HAL_SPI_Init(&hspi1) != HAL_OK)
 800397c:	4804      	ldr	r0, [pc, #16]	@ (8003990 <MX_SPI1_Init+0x64>)
 800397e:	f003 fd6d 	bl	800745c <HAL_SPI_Init>
 8003982:	4603      	mov	r3, r0
 8003984:	2b00      	cmp	r3, #0
 8003986:	d001      	beq.n	800398c <MX_SPI1_Init+0x60>
  {
    Error_Handler();
 8003988:	f000 ff8e 	bl	80048a8 <Error_Handler>
  }
  /* USER CODE BEGIN SPI1_Init 2 */

  /* USER CODE END SPI1_Init 2 */

}
 800398c:	bf00      	nop
 800398e:	bd80      	pop	{r7, pc}
 8003990:	200000d0 	.word	0x200000d0
 8003994:	40013000 	.word	0x40013000

08003998 <MX_SPI2_Init>:
  * @brief SPI2 Initialization Function
  * @param None
  * @retval None
  */
static void MX_SPI2_Init(void)
{
 8003998:	b580      	push	{r7, lr}
 800399a:	af00      	add	r7, sp, #0

  /* USER CODE BEGIN SPI2_Init 1 */

  /* USER CODE END SPI2_Init 1 */
  /* SPI2 parameter configuration*/
  hspi2.Instance = SPI2;
 800399c:	4b17      	ldr	r3, [pc, #92]	@ (80039fc <MX_SPI2_Init+0x64>)
 800399e:	4a18      	ldr	r2, [pc, #96]	@ (8003a00 <MX_SPI2_Init+0x68>)
 80039a0:	601a      	str	r2, [r3, #0]
  hspi2.Init.Mode = SPI_MODE_MASTER;
 80039a2:	4b16      	ldr	r3, [pc, #88]	@ (80039fc <MX_SPI2_Init+0x64>)
 80039a4:	f44f 7282 	mov.w	r2, #260	@ 0x104
 80039a8:	605a      	str	r2, [r3, #4]
  hspi2.Init.Direction = SPI_DIRECTION_2LINES;
 80039aa:	4b14      	ldr	r3, [pc, #80]	@ (80039fc <MX_SPI2_Init+0x64>)
 80039ac:	2200      	movs	r2, #0
 80039ae:	609a      	str	r2, [r3, #8]
  hspi2.Init.DataSize = SPI_DATASIZE_8BIT;
 80039b0:	4b12      	ldr	r3, [pc, #72]	@ (80039fc <MX_SPI2_Init+0x64>)
 80039b2:	2200      	movs	r2, #0
 80039b4:	60da      	str	r2, [r3, #12]
  hspi2.Init.CLKPolarity = SPI_POLARITY_LOW;
 80039b6:	4b11      	ldr	r3, [pc, #68]	@ (80039fc <MX_SPI2_Init+0x64>)
 80039b8:	2200      	movs	r2, #0
 80039ba:	611a      	str	r2, [r3, #16]
  hspi2.Init.CLKPhase = SPI_PHASE_1EDGE;
 80039bc:	4b0f      	ldr	r3, [pc, #60]	@ (80039fc <MX_SPI2_Init+0x64>)
 80039be:	2200      	movs	r2, #0
 80039c0:	615a      	str	r2, [r3, #20]
  hspi2.Init.NSS = SPI_NSS_SOFT;
 80039c2:	4b0e      	ldr	r3, [pc, #56]	@ (80039fc <MX_SPI2_Init+0x64>)
 80039c4:	f44f 7200 	mov.w	r2, #512	@ 0x200
 80039c8:	619a      	str	r2, [r3, #24]
  hspi2.Init.BaudRatePrescaler = SPI_BAUDRATEPRESCALER_2;
 80039ca:	4b0c      	ldr	r3, [pc, #48]	@ (80039fc <MX_SPI2_Init+0x64>)
 80039cc:	2200      	movs	r2, #0
 80039ce:	61da      	str	r2, [r3, #28]
  hspi2.Init.FirstBit = SPI_FIRSTBIT_MSB;
 80039d0:	4b0a      	ldr	r3, [pc, #40]	@ (80039fc <MX_SPI2_Init+0x64>)
 80039d2:	2200      	movs	r2, #0
 80039d4:	621a      	str	r2, [r3, #32]
  hspi2.Init.TIMode = SPI_TIMODE_DISABLE;
 80039d6:	4b09      	ldr	r3, [pc, #36]	@ (80039fc <MX_SPI2_Init+0x64>)
 80039d8:	2200      	movs	r2, #0
 80039da:	625a      	str	r2, [r3, #36]	@ 0x24
  hspi2.Init.CRCCalculation = SPI_CRCCALCULATION_DISABLE;
 80039dc:	4b07      	ldr	r3, [pc, #28]	@ (80039fc <MX_SPI2_Init+0x64>)
 80039de:	2200      	movs	r2, #0
 80039e0:	629a      	str	r2, [r3, #40]	@ 0x28
  hspi2.Init.CRCPolynomial = 10;
 80039e2:	4b06      	ldr	r3, [pc, #24]	@ (80039fc <MX_SPI2_Init+0x64>)
 80039e4:	220a      	movs	r2, #10
 80039e6:	62da      	str	r2, [r3, #44]	@ 0x2c
  if (HAL_SPI_Init(&hspi2) != HAL_OK)
 80039e8:	4804      	ldr	r0, [pc, #16]	@ (80039fc <MX_SPI2_Init+0x64>)
 80039ea:	f003 fd37 	bl	800745c <HAL_SPI_Init>
 80039ee:	4603      	mov	r3, r0
 80039f0:	2b00      	cmp	r3, #0
 80039f2:	d001      	beq.n	80039f8 <MX_SPI2_Init+0x60>
  {
    Error_Handler();
 80039f4:	f000 ff58 	bl	80048a8 <Error_Handler>
  }
  /* USER CODE BEGIN SPI2_Init 2 */

  /* USER CODE END SPI2_Init 2 */

}
 80039f8:	bf00      	nop
 80039fa:	bd80      	pop	{r7, pc}
 80039fc:	20000128 	.word	0x20000128
 8003a00:	40003800 	.word	0x40003800

08003a04 <MX_TIM2_Init>:
  * @brief TIM2 Initialization Function
  * @param None
  * @retval None
  */
static void MX_TIM2_Init(void)
{
 8003a04:	b580      	push	{r7, lr}
 8003a06:	b086      	sub	sp, #24
 8003a08:	af00      	add	r7, sp, #0

  /* USER CODE BEGIN TIM2_Init 0 */

  /* USER CODE END TIM2_Init 0 */

  TIM_ClockConfigTypeDef sClockSourceConfig = {0};
 8003a0a:	f107 0308 	add.w	r3, r7, #8
 8003a0e:	2200      	movs	r2, #0
 8003a10:	601a      	str	r2, [r3, #0]
 8003a12:	605a      	str	r2, [r3, #4]
 8003a14:	609a      	str	r2, [r3, #8]
 8003a16:	60da      	str	r2, [r3, #12]
  TIM_MasterConfigTypeDef sMasterConfig = {0};
 8003a18:	463b      	mov	r3, r7
 8003a1a:	2200      	movs	r2, #0
 8003a1c:	601a      	str	r2, [r3, #0]
 8003a1e:	605a      	str	r2, [r3, #4]

  /* USER CODE BEGIN TIM2_Init 1 */

  /* USER CODE END TIM2_Init 1 */
  htim2.Instance = TIM2;
 8003a20:	4b1e      	ldr	r3, [pc, #120]	@ (8003a9c <MX_TIM2_Init+0x98>)
 8003a22:	f04f 4280 	mov.w	r2, #1073741824	@ 0x40000000
 8003a26:	601a      	str	r2, [r3, #0]
  htim2.Init.Prescaler = 36000;
 8003a28:	4b1c      	ldr	r3, [pc, #112]	@ (8003a9c <MX_TIM2_Init+0x98>)
 8003a2a:	f648 42a0 	movw	r2, #36000	@ 0x8ca0
 8003a2e:	605a      	str	r2, [r3, #4]
  htim2.Init.CounterMode = TIM_COUNTERMODE_UP;
 8003a30:	4b1a      	ldr	r3, [pc, #104]	@ (8003a9c <MX_TIM2_Init+0x98>)
 8003a32:	2200      	movs	r2, #0
 8003a34:	609a      	str	r2, [r3, #8]
  htim2.Init.Period = 999;
 8003a36:	4b19      	ldr	r3, [pc, #100]	@ (8003a9c <MX_TIM2_Init+0x98>)
 8003a38:	f240 32e7 	movw	r2, #999	@ 0x3e7
 8003a3c:	60da      	str	r2, [r3, #12]
  htim2.Init.ClockDivision = TIM_CLOCKDIVISION_DIV1;
 8003a3e:	4b17      	ldr	r3, [pc, #92]	@ (8003a9c <MX_TIM2_Init+0x98>)
 8003a40:	2200      	movs	r2, #0
 8003a42:	611a      	str	r2, [r3, #16]
  htim2.Init.AutoReloadPreload = TIM_AUTORELOAD_PRELOAD_DISABLE;
 8003a44:	4b15      	ldr	r3, [pc, #84]	@ (8003a9c <MX_TIM2_Init+0x98>)
 8003a46:	2200      	movs	r2, #0
 8003a48:	619a      	str	r2, [r3, #24]
  if (HAL_TIM_Base_Init(&htim2) != HAL_OK)
 8003a4a:	4814      	ldr	r0, [pc, #80]	@ (8003a9c <MX_TIM2_Init+0x98>)
 8003a4c:	f004 fa9b 	bl	8007f86 <HAL_TIM_Base_Init>
 8003a50:	4603      	mov	r3, r0
 8003a52:	2b00      	cmp	r3, #0
 8003a54:	d001      	beq.n	8003a5a <MX_TIM2_Init+0x56>
  {
    Error_Handler();
 8003a56:	f000 ff27 	bl	80048a8 <Error_Handler>
  }
  sClockSourceConfig.ClockSource = TIM_CLOCKSOURCE_INTERNAL;
 8003a5a:	f44f 5380 	mov.w	r3, #4096	@ 0x1000
 8003a5e:	60bb      	str	r3, [r7, #8]
  if (HAL_TIM_ConfigClockSource(&htim2, &sClockSourceConfig) != HAL_OK)
 8003a60:	f107 0308 	add.w	r3, r7, #8
 8003a64:	4619      	mov	r1, r3
 8003a66:	480d      	ldr	r0, [pc, #52]	@ (8003a9c <MX_TIM2_Init+0x98>)
 8003a68:	f004 fc1e 	bl	80082a8 <HAL_TIM_ConfigClockSource>
 8003a6c:	4603      	mov	r3, r0
 8003a6e:	2b00      	cmp	r3, #0
 8003a70:	d001      	beq.n	8003a76 <MX_TIM2_Init+0x72>
  {
    Error_Handler();
 8003a72:	f000 ff19 	bl	80048a8 <Error_Handler>
  }
  sMasterConfig.MasterOutputTrigger = TIM_TRGO_RESET;
 8003a76:	2300      	movs	r3, #0
 8003a78:	603b      	str	r3, [r7, #0]
  sMasterConfig.MasterSlaveMode = TIM_MASTERSLAVEMODE_DISABLE;
 8003a7a:	2300      	movs	r3, #0
 8003a7c:	607b      	str	r3, [r7, #4]
  if (HAL_TIMEx_MasterConfigSynchronization(&htim2, &sMasterConfig) != HAL_OK)
 8003a7e:	463b      	mov	r3, r7
 8003a80:	4619      	mov	r1, r3
 8003a82:	4806      	ldr	r0, [pc, #24]	@ (8003a9c <MX_TIM2_Init+0x98>)
 8003a84:	f004 fe00 	bl	8008688 <HAL_TIMEx_MasterConfigSynchronization>
 8003a88:	4603      	mov	r3, r0
 8003a8a:	2b00      	cmp	r3, #0
 8003a8c:	d001      	beq.n	8003a92 <MX_TIM2_Init+0x8e>
  {
    Error_Handler();
 8003a8e:	f000 ff0b 	bl	80048a8 <Error_Handler>
  }
  /* USER CODE BEGIN TIM2_Init 2 */

  /* USER CODE END TIM2_Init 2 */

}
 8003a92:	bf00      	nop
 8003a94:	3718      	adds	r7, #24
 8003a96:	46bd      	mov	sp, r7
 8003a98:	bd80      	pop	{r7, pc}
 8003a9a:	bf00      	nop
 8003a9c:	20000180 	.word	0x20000180

08003aa0 <MX_TIM3_Init>:
  * @brief TIM3 Initialization Function
  * @param None
  * @retval None
  */
static void MX_TIM3_Init(void)
{
 8003aa0:	b580      	push	{r7, lr}
 8003aa2:	b086      	sub	sp, #24
 8003aa4:	af00      	add	r7, sp, #0

  /* USER CODE BEGIN TIM3_Init 0 */

  /* USER CODE END TIM3_Init 0 */

  TIM_ClockConfigTypeDef sClockSourceConfig = {0};
 8003aa6:	f107 0308 	add.w	r3, r7, #8
 8003aaa:	2200      	movs	r2, #0
 8003aac:	601a      	str	r2, [r3, #0]
 8003aae:	605a      	str	r2, [r3, #4]
 8003ab0:	609a      	str	r2, [r3, #8]
 8003ab2:	60da      	str	r2, [r3, #12]
  TIM_MasterConfigTypeDef sMasterConfig = {0};
 8003ab4:	463b      	mov	r3, r7
 8003ab6:	2200      	movs	r2, #0
 8003ab8:	601a      	str	r2, [r3, #0]
 8003aba:	605a      	str	r2, [r3, #4]

  /* USER CODE BEGIN TIM3_Init 1 */

  /* USER CODE END TIM3_Init 1 */
  htim3.Instance = TIM3;
 8003abc:	4b1d      	ldr	r3, [pc, #116]	@ (8003b34 <MX_TIM3_Init+0x94>)
 8003abe:	4a1e      	ldr	r2, [pc, #120]	@ (8003b38 <MX_TIM3_Init+0x98>)
 8003ac0:	601a      	str	r2, [r3, #0]
  htim3.Init.Prescaler = 36000;
 8003ac2:	4b1c      	ldr	r3, [pc, #112]	@ (8003b34 <MX_TIM3_Init+0x94>)
 8003ac4:	f648 42a0 	movw	r2, #36000	@ 0x8ca0
 8003ac8:	605a      	str	r2, [r3, #4]
  htim3.Init.CounterMode = TIM_COUNTERMODE_UP;
 8003aca:	4b1a      	ldr	r3, [pc, #104]	@ (8003b34 <MX_TIM3_Init+0x94>)
 8003acc:	2200      	movs	r2, #0
 8003ace:	609a      	str	r2, [r3, #8]
  htim3.Init.Period = 999;
 8003ad0:	4b18      	ldr	r3, [pc, #96]	@ (8003b34 <MX_TIM3_Init+0x94>)
 8003ad2:	f240 32e7 	movw	r2, #999	@ 0x3e7
 8003ad6:	60da      	str	r2, [r3, #12]
  htim3.Init.ClockDivision = TIM_CLOCKDIVISION_DIV1;
 8003ad8:	4b16      	ldr	r3, [pc, #88]	@ (8003b34 <MX_TIM3_Init+0x94>)
 8003ada:	2200      	movs	r2, #0
 8003adc:	611a      	str	r2, [r3, #16]
  htim3.Init.AutoReloadPreload = TIM_AUTORELOAD_PRELOAD_DISABLE;
 8003ade:	4b15      	ldr	r3, [pc, #84]	@ (8003b34 <MX_TIM3_Init+0x94>)
 8003ae0:	2200      	movs	r2, #0
 8003ae2:	619a      	str	r2, [r3, #24]
  if (HAL_TIM_Base_Init(&htim3) != HAL_OK)
 8003ae4:	4813      	ldr	r0, [pc, #76]	@ (8003b34 <MX_TIM3_Init+0x94>)
 8003ae6:	f004 fa4e 	bl	8007f86 <HAL_TIM_Base_Init>
 8003aea:	4603      	mov	r3, r0
 8003aec:	2b00      	cmp	r3, #0
 8003aee:	d001      	beq.n	8003af4 <MX_TIM3_Init+0x54>
  {
    Error_Handler();
 8003af0:	f000 feda 	bl	80048a8 <Error_Handler>
  }
  sClockSourceConfig.ClockSource = TIM_CLOCKSOURCE_INTERNAL;
 8003af4:	f44f 5380 	mov.w	r3, #4096	@ 0x1000
 8003af8:	60bb      	str	r3, [r7, #8]
  if (HAL_TIM_ConfigClockSource(&htim3, &sClockSourceConfig) != HAL_OK)
 8003afa:	f107 0308 	add.w	r3, r7, #8
 8003afe:	4619      	mov	r1, r3
 8003b00:	480c      	ldr	r0, [pc, #48]	@ (8003b34 <MX_TIM3_Init+0x94>)
 8003b02:	f004 fbd1 	bl	80082a8 <HAL_TIM_ConfigClockSource>
 8003b06:	4603      	mov	r3, r0
 8003b08:	2b00      	cmp	r3, #0
 8003b0a:	d001      	beq.n	8003b10 <MX_TIM3_Init+0x70>
  {
    Error_Handler();
 8003b0c:	f000 fecc 	bl	80048a8 <Error_Handler>
  }
  sMasterConfig.MasterOutputTrigger = TIM_TRGO_RESET;
 8003b10:	2300      	movs	r3, #0
 8003b12:	603b      	str	r3, [r7, #0]
  sMasterConfig.MasterSlaveMode = TIM_MASTERSLAVEMODE_DISABLE;
 8003b14:	2300      	movs	r3, #0
 8003b16:	607b      	str	r3, [r7, #4]
  if (HAL_TIMEx_MasterConfigSynchronization(&htim3, &sMasterConfig) != HAL_OK)
 8003b18:	463b      	mov	r3, r7
 8003b1a:	4619      	mov	r1, r3
 8003b1c:	4805      	ldr	r0, [pc, #20]	@ (8003b34 <MX_TIM3_Init+0x94>)
 8003b1e:	f004 fdb3 	bl	8008688 <HAL_TIMEx_MasterConfigSynchronization>
 8003b22:	4603      	mov	r3, r0
 8003b24:	2b00      	cmp	r3, #0
 8003b26:	d001      	beq.n	8003b2c <MX_TIM3_Init+0x8c>
  {
    Error_Handler();
 8003b28:	f000 febe 	bl	80048a8 <Error_Handler>
  }
  /* USER CODE BEGIN TIM3_Init 2 */

  /* USER CODE END TIM3_Init 2 */

}
 8003b2c:	bf00      	nop
 8003b2e:	3718      	adds	r7, #24
 8003b30:	46bd      	mov	sp, r7
 8003b32:	bd80      	pop	{r7, pc}
 8003b34:	200001c8 	.word	0x200001c8
 8003b38:	40000400 	.word	0x40000400

08003b3c <MX_USART1_UART_Init>:
  * @brief USART1 Initialization Function
  * @param None
  * @retval None
  */
static void MX_USART1_UART_Init(void)
{
 8003b3c:	b580      	push	{r7, lr}
 8003b3e:	af00      	add	r7, sp, #0
  /* USER CODE END USART1_Init 0 */

  /* USER CODE BEGIN USART1_Init 1 */

  /* USER CODE END USART1_Init 1 */
  huart1.Instance = USART1;
 8003b40:	4b11      	ldr	r3, [pc, #68]	@ (8003b88 <MX_USART1_UART_Init+0x4c>)
 8003b42:	4a12      	ldr	r2, [pc, #72]	@ (8003b8c <MX_USART1_UART_Init+0x50>)
 8003b44:	601a      	str	r2, [r3, #0]
  huart1.Init.BaudRate = 9600;
 8003b46:	4b10      	ldr	r3, [pc, #64]	@ (8003b88 <MX_USART1_UART_Init+0x4c>)
 8003b48:	f44f 5216 	mov.w	r2, #9600	@ 0x2580
 8003b4c:	605a      	str	r2, [r3, #4]
  huart1.Init.WordLength = UART_WORDLENGTH_8B;
 8003b4e:	4b0e      	ldr	r3, [pc, #56]	@ (8003b88 <MX_USART1_UART_Init+0x4c>)
 8003b50:	2200      	movs	r2, #0
 8003b52:	609a      	str	r2, [r3, #8]
  huart1.Init.StopBits = UART_STOPBITS_1;
 8003b54:	4b0c      	ldr	r3, [pc, #48]	@ (8003b88 <MX_USART1_UART_Init+0x4c>)
 8003b56:	2200      	movs	r2, #0
 8003b58:	60da      	str	r2, [r3, #12]
  huart1.Init.Parity = UART_PARITY_NONE;
 8003b5a:	4b0b      	ldr	r3, [pc, #44]	@ (8003b88 <MX_USART1_UART_Init+0x4c>)
 8003b5c:	2200      	movs	r2, #0
 8003b5e:	611a      	str	r2, [r3, #16]
  huart1.Init.Mode = UART_MODE_TX_RX;
 8003b60:	4b09      	ldr	r3, [pc, #36]	@ (8003b88 <MX_USART1_UART_Init+0x4c>)
 8003b62:	220c      	movs	r2, #12
 8003b64:	615a      	str	r2, [r3, #20]
  huart1.Init.HwFlowCtl = UART_HWCONTROL_NONE;
 8003b66:	4b08      	ldr	r3, [pc, #32]	@ (8003b88 <MX_USART1_UART_Init+0x4c>)
 8003b68:	2200      	movs	r2, #0
 8003b6a:	619a      	str	r2, [r3, #24]
  huart1.Init.OverSampling = UART_OVERSAMPLING_16;
 8003b6c:	4b06      	ldr	r3, [pc, #24]	@ (8003b88 <MX_USART1_UART_Init+0x4c>)
 8003b6e:	2200      	movs	r2, #0
 8003b70:	61da      	str	r2, [r3, #28]
  if (HAL_UART_Init(&huart1) != HAL_OK)
 8003b72:	4805      	ldr	r0, [pc, #20]	@ (8003b88 <MX_USART1_UART_Init+0x4c>)
 8003b74:	f004 fdf8 	bl	8008768 <HAL_UART_Init>
 8003b78:	4603      	mov	r3, r0
 8003b7a:	2b00      	cmp	r3, #0
 8003b7c:	d001      	beq.n	8003b82 <MX_USART1_UART_Init+0x46>
  {
    Error_Handler();
 8003b7e:	f000 fe93 	bl	80048a8 <Error_Handler>
  }
  /* USER CODE BEGIN USART1_Init 2 */

  /* USER CODE END USART1_Init 2 */

}
 8003b82:	bf00      	nop
 8003b84:	bd80      	pop	{r7, pc}
 8003b86:	bf00      	nop
 8003b88:	20000210 	.word	0x20000210
 8003b8c:	40013800 	.word	0x40013800

08003b90 <MX_DMA_Init>:

/**
  * Enable DMA controller clock
  */
static void MX_DMA_Init(void)
{
 8003b90:	b580      	push	{r7, lr}
 8003b92:	b082      	sub	sp, #8
 8003b94:	af00      	add	r7, sp, #0

  /* DMA controller clock enable */
  __HAL_RCC_DMA1_CLK_ENABLE();
 8003b96:	4b0c      	ldr	r3, [pc, #48]	@ (8003bc8 <MX_DMA_Init+0x38>)
 8003b98:	695b      	ldr	r3, [r3, #20]
 8003b9a:	4a0b      	ldr	r2, [pc, #44]	@ (8003bc8 <MX_DMA_Init+0x38>)
 8003b9c:	f043 0301 	orr.w	r3, r3, #1
 8003ba0:	6153      	str	r3, [r2, #20]
 8003ba2:	4b09      	ldr	r3, [pc, #36]	@ (8003bc8 <MX_DMA_Init+0x38>)
 8003ba4:	695b      	ldr	r3, [r3, #20]
 8003ba6:	f003 0301 	and.w	r3, r3, #1
 8003baa:	607b      	str	r3, [r7, #4]
 8003bac:	687b      	ldr	r3, [r7, #4]

  /* DMA interrupt init */
  /* DMA1_Channel5_IRQn interrupt configuration */
  HAL_NVIC_SetPriority(DMA1_Channel5_IRQn, 0, 0);
 8003bae:	2200      	movs	r2, #0
 8003bb0:	2100      	movs	r1, #0
 8003bb2:	200f      	movs	r0, #15
 8003bb4:	f002 f92b 	bl	8005e0e <HAL_NVIC_SetPriority>
  HAL_NVIC_EnableIRQ(DMA1_Channel5_IRQn);
 8003bb8:	200f      	movs	r0, #15
 8003bba:	f002 f944 	bl	8005e46 <HAL_NVIC_EnableIRQ>

}
 8003bbe:	bf00      	nop
 8003bc0:	3708      	adds	r7, #8
 8003bc2:	46bd      	mov	sp, r7
 8003bc4:	bd80      	pop	{r7, pc}
 8003bc6:	bf00      	nop
 8003bc8:	40021000 	.word	0x40021000

08003bcc <MX_GPIO_Init>:
  * @brief GPIO Initialization Function
  * @param None
  * @retval None
  */
static void MX_GPIO_Init(void)
{
 8003bcc:	b580      	push	{r7, lr}
 8003bce:	b088      	sub	sp, #32
 8003bd0:	af00      	add	r7, sp, #0
  GPIO_InitTypeDef GPIO_InitStruct = {0};
 8003bd2:	f107 0310 	add.w	r3, r7, #16
 8003bd6:	2200      	movs	r2, #0
 8003bd8:	601a      	str	r2, [r3, #0]
 8003bda:	605a      	str	r2, [r3, #4]
 8003bdc:	609a      	str	r2, [r3, #8]
 8003bde:	60da      	str	r2, [r3, #12]
  /* USER CODE BEGIN MX_GPIO_Init_1 */
  /* USER CODE END MX_GPIO_Init_1 */

  /* GPIO Ports Clock Enable */
  __HAL_RCC_GPIOC_CLK_ENABLE();
 8003be0:	4b66      	ldr	r3, [pc, #408]	@ (8003d7c <MX_GPIO_Init+0x1b0>)
 8003be2:	699b      	ldr	r3, [r3, #24]
 8003be4:	4a65      	ldr	r2, [pc, #404]	@ (8003d7c <MX_GPIO_Init+0x1b0>)
 8003be6:	f043 0310 	orr.w	r3, r3, #16
 8003bea:	6193      	str	r3, [r2, #24]
 8003bec:	4b63      	ldr	r3, [pc, #396]	@ (8003d7c <MX_GPIO_Init+0x1b0>)
 8003bee:	699b      	ldr	r3, [r3, #24]
 8003bf0:	f003 0310 	and.w	r3, r3, #16
 8003bf4:	60fb      	str	r3, [r7, #12]
 8003bf6:	68fb      	ldr	r3, [r7, #12]
  __HAL_RCC_GPIOD_CLK_ENABLE();
 8003bf8:	4b60      	ldr	r3, [pc, #384]	@ (8003d7c <MX_GPIO_Init+0x1b0>)
 8003bfa:	699b      	ldr	r3, [r3, #24]
 8003bfc:	4a5f      	ldr	r2, [pc, #380]	@ (8003d7c <MX_GPIO_Init+0x1b0>)
 8003bfe:	f043 0320 	orr.w	r3, r3, #32
 8003c02:	6193      	str	r3, [r2, #24]
 8003c04:	4b5d      	ldr	r3, [pc, #372]	@ (8003d7c <MX_GPIO_Init+0x1b0>)
 8003c06:	699b      	ldr	r3, [r3, #24]
 8003c08:	f003 0320 	and.w	r3, r3, #32
 8003c0c:	60bb      	str	r3, [r7, #8]
 8003c0e:	68bb      	ldr	r3, [r7, #8]
  __HAL_RCC_GPIOA_CLK_ENABLE();
 8003c10:	4b5a      	ldr	r3, [pc, #360]	@ (8003d7c <MX_GPIO_Init+0x1b0>)
 8003c12:	699b      	ldr	r3, [r3, #24]
 8003c14:	4a59      	ldr	r2, [pc, #356]	@ (8003d7c <MX_GPIO_Init+0x1b0>)
 8003c16:	f043 0304 	orr.w	r3, r3, #4
 8003c1a:	6193      	str	r3, [r2, #24]
 8003c1c:	4b57      	ldr	r3, [pc, #348]	@ (8003d7c <MX_GPIO_Init+0x1b0>)
 8003c1e:	699b      	ldr	r3, [r3, #24]
 8003c20:	f003 0304 	and.w	r3, r3, #4
 8003c24:	607b      	str	r3, [r7, #4]
 8003c26:	687b      	ldr	r3, [r7, #4]
  __HAL_RCC_GPIOB_CLK_ENABLE();
 8003c28:	4b54      	ldr	r3, [pc, #336]	@ (8003d7c <MX_GPIO_Init+0x1b0>)
 8003c2a:	699b      	ldr	r3, [r3, #24]
 8003c2c:	4a53      	ldr	r2, [pc, #332]	@ (8003d7c <MX_GPIO_Init+0x1b0>)
 8003c2e:	f043 0308 	orr.w	r3, r3, #8
 8003c32:	6193      	str	r3, [r2, #24]
 8003c34:	4b51      	ldr	r3, [pc, #324]	@ (8003d7c <MX_GPIO_Init+0x1b0>)
 8003c36:	699b      	ldr	r3, [r3, #24]
 8003c38:	f003 0308 	and.w	r3, r3, #8
 8003c3c:	603b      	str	r3, [r7, #0]
 8003c3e:	683b      	ldr	r3, [r7, #0]

  /*Configure GPIO pin Output Level */
  HAL_GPIO_WritePin(GPIOC, LED_STT_Pin|LED_STT_ETH_Pin|LED_BP_Pin, GPIO_PIN_RESET);
 8003c40:	2200      	movs	r2, #0
 8003c42:	f44f 4160 	mov.w	r1, #57344	@ 0xe000
 8003c46:	484e      	ldr	r0, [pc, #312]	@ (8003d80 <MX_GPIO_Init+0x1b4>)
 8003c48:	f002 ff59 	bl	8006afe <HAL_GPIO_WritePin>

  /*Configure GPIO pin Output Level */
  HAL_GPIO_WritePin(CS_GPIO_Port, CS_Pin, GPIO_PIN_SET);
 8003c4c:	2201      	movs	r2, #1
 8003c4e:	2110      	movs	r1, #16
 8003c50:	484c      	ldr	r0, [pc, #304]	@ (8003d84 <MX_GPIO_Init+0x1b8>)
 8003c52:	f002 ff54 	bl	8006afe <HAL_GPIO_WritePin>

  /*Configure GPIO pin Output Level */
  HAL_GPIO_WritePin(GPIOB, GPIO_PIN_1|S_OUT2_Pin|S_OUT1_Pin, GPIO_PIN_RESET);
 8003c56:	2200      	movs	r2, #0
 8003c58:	2132      	movs	r1, #50	@ 0x32
 8003c5a:	484b      	ldr	r0, [pc, #300]	@ (8003d88 <MX_GPIO_Init+0x1bc>)
 8003c5c:	f002 ff4f 	bl	8006afe <HAL_GPIO_WritePin>

  /*Configure GPIO pin Output Level */
  HAL_GPIO_WritePin(CS_W25_GPIO_Port, CS_W25_Pin, GPIO_PIN_SET);
 8003c60:	2201      	movs	r2, #1
 8003c62:	f44f 5180 	mov.w	r1, #4096	@ 0x1000
 8003c66:	4848      	ldr	r0, [pc, #288]	@ (8003d88 <MX_GPIO_Init+0x1bc>)
 8003c68:	f002 ff49 	bl	8006afe <HAL_GPIO_WritePin>

  /*Configure GPIO pin Output Level */
  HAL_GPIO_WritePin(DE_GPIO_Port, DE_Pin, GPIO_PIN_RESET);
 8003c6c:	2200      	movs	r2, #0
 8003c6e:	f44f 7180 	mov.w	r1, #256	@ 0x100
 8003c72:	4844      	ldr	r0, [pc, #272]	@ (8003d84 <MX_GPIO_Init+0x1b8>)
 8003c74:	f002 ff43 	bl	8006afe <HAL_GPIO_WritePin>

  /*Configure GPIO pins : LED_STT_Pin LED_STT_ETH_Pin LED_BP_Pin */
  GPIO_InitStruct.Pin = LED_STT_Pin|LED_STT_ETH_Pin|LED_BP_Pin;
 8003c78:	f44f 4360 	mov.w	r3, #57344	@ 0xe000
 8003c7c:	613b      	str	r3, [r7, #16]
  GPIO_InitStruct.Mode = GPIO_MODE_OUTPUT_PP;
 8003c7e:	2301      	movs	r3, #1
 8003c80:	617b      	str	r3, [r7, #20]
  GPIO_InitStruct.Pull = GPIO_NOPULL;
 8003c82:	2300      	movs	r3, #0
 8003c84:	61bb      	str	r3, [r7, #24]
  GPIO_InitStruct.Speed = GPIO_SPEED_FREQ_LOW;
 8003c86:	2302      	movs	r3, #2
 8003c88:	61fb      	str	r3, [r7, #28]
  HAL_GPIO_Init(GPIOC, &GPIO_InitStruct);
 8003c8a:	f107 0310 	add.w	r3, r7, #16
 8003c8e:	4619      	mov	r1, r3
 8003c90:	483b      	ldr	r0, [pc, #236]	@ (8003d80 <MX_GPIO_Init+0x1b4>)
 8003c92:	f002 fd99 	bl	80067c8 <HAL_GPIO_Init>

  /*Configure GPIO pin : BYPASS_Pin */
  GPIO_InitStruct.Pin = BYPASS_Pin;
 8003c96:	2304      	movs	r3, #4
 8003c98:	613b      	str	r3, [r7, #16]
  GPIO_InitStruct.Mode = GPIO_MODE_INPUT;
 8003c9a:	2300      	movs	r3, #0
 8003c9c:	617b      	str	r3, [r7, #20]
  GPIO_InitStruct.Pull = GPIO_PULLUP;
 8003c9e:	2301      	movs	r3, #1
 8003ca0:	61bb      	str	r3, [r7, #24]
  HAL_GPIO_Init(BYPASS_GPIO_Port, &GPIO_InitStruct);
 8003ca2:	f107 0310 	add.w	r3, r7, #16
 8003ca6:	4619      	mov	r1, r3
 8003ca8:	4836      	ldr	r0, [pc, #216]	@ (8003d84 <MX_GPIO_Init+0x1b8>)
 8003caa:	f002 fd8d 	bl	80067c8 <HAL_GPIO_Init>

  /*Configure GPIO pin : CS_Pin */
  GPIO_InitStruct.Pin = CS_Pin;
 8003cae:	2310      	movs	r3, #16
 8003cb0:	613b      	str	r3, [r7, #16]
  GPIO_InitStruct.Mode = GPIO_MODE_OUTPUT_PP;
 8003cb2:	2301      	movs	r3, #1
 8003cb4:	617b      	str	r3, [r7, #20]
  GPIO_InitStruct.Pull = GPIO_NOPULL;
 8003cb6:	2300      	movs	r3, #0
 8003cb8:	61bb      	str	r3, [r7, #24]
  GPIO_InitStruct.Speed = GPIO_SPEED_FREQ_HIGH;
 8003cba:	2303      	movs	r3, #3
 8003cbc:	61fb      	str	r3, [r7, #28]
  HAL_GPIO_Init(CS_GPIO_Port, &GPIO_InitStruct);
 8003cbe:	f107 0310 	add.w	r3, r7, #16
 8003cc2:	4619      	mov	r1, r3
 8003cc4:	482f      	ldr	r0, [pc, #188]	@ (8003d84 <MX_GPIO_Init+0x1b8>)
 8003cc6:	f002 fd7f 	bl	80067c8 <HAL_GPIO_Init>

  /*Configure GPIO pin : PB0 */
  GPIO_InitStruct.Pin = GPIO_PIN_0;
 8003cca:	2301      	movs	r3, #1
 8003ccc:	613b      	str	r3, [r7, #16]
  GPIO_InitStruct.Mode = GPIO_MODE_IT_FALLING;
 8003cce:	4b2f      	ldr	r3, [pc, #188]	@ (8003d8c <MX_GPIO_Init+0x1c0>)
 8003cd0:	617b      	str	r3, [r7, #20]
  GPIO_InitStruct.Pull = GPIO_NOPULL;
 8003cd2:	2300      	movs	r3, #0
 8003cd4:	61bb      	str	r3, [r7, #24]
  HAL_GPIO_Init(GPIOB, &GPIO_InitStruct);
 8003cd6:	f107 0310 	add.w	r3, r7, #16
 8003cda:	4619      	mov	r1, r3
 8003cdc:	482a      	ldr	r0, [pc, #168]	@ (8003d88 <MX_GPIO_Init+0x1bc>)
 8003cde:	f002 fd73 	bl	80067c8 <HAL_GPIO_Init>

  /*Configure GPIO pins : PB1 S_OUT2_Pin S_OUT1_Pin */
  GPIO_InitStruct.Pin = GPIO_PIN_1|S_OUT2_Pin|S_OUT1_Pin;
 8003ce2:	2332      	movs	r3, #50	@ 0x32
 8003ce4:	613b      	str	r3, [r7, #16]
  GPIO_InitStruct.Mode = GPIO_MODE_OUTPUT_PP;
 8003ce6:	2301      	movs	r3, #1
 8003ce8:	617b      	str	r3, [r7, #20]
  GPIO_InitStruct.Pull = GPIO_NOPULL;
 8003cea:	2300      	movs	r3, #0
 8003cec:	61bb      	str	r3, [r7, #24]
  GPIO_InitStruct.Speed = GPIO_SPEED_FREQ_LOW;
 8003cee:	2302      	movs	r3, #2
 8003cf0:	61fb      	str	r3, [r7, #28]
  HAL_GPIO_Init(GPIOB, &GPIO_InitStruct);
 8003cf2:	f107 0310 	add.w	r3, r7, #16
 8003cf6:	4619      	mov	r1, r3
 8003cf8:	4823      	ldr	r0, [pc, #140]	@ (8003d88 <MX_GPIO_Init+0x1bc>)
 8003cfa:	f002 fd65 	bl	80067c8 <HAL_GPIO_Init>

  /*Configure GPIO pin : CS_W25_Pin */
  GPIO_InitStruct.Pin = CS_W25_Pin;
 8003cfe:	f44f 5380 	mov.w	r3, #4096	@ 0x1000
 8003d02:	613b      	str	r3, [r7, #16]
  GPIO_InitStruct.Mode = GPIO_MODE_OUTPUT_PP;
 8003d04:	2301      	movs	r3, #1
 8003d06:	617b      	str	r3, [r7, #20]
  GPIO_InitStruct.Pull = GPIO_NOPULL;
 8003d08:	2300      	movs	r3, #0
 8003d0a:	61bb      	str	r3, [r7, #24]
  GPIO_InitStruct.Speed = GPIO_SPEED_FREQ_HIGH;
 8003d0c:	2303      	movs	r3, #3
 8003d0e:	61fb      	str	r3, [r7, #28]
  HAL_GPIO_Init(CS_W25_GPIO_Port, &GPIO_InitStruct);
 8003d10:	f107 0310 	add.w	r3, r7, #16
 8003d14:	4619      	mov	r1, r3
 8003d16:	481c      	ldr	r0, [pc, #112]	@ (8003d88 <MX_GPIO_Init+0x1bc>)
 8003d18:	f002 fd56 	bl	80067c8 <HAL_GPIO_Init>

  /*Configure GPIO pin : DE_Pin */
  GPIO_InitStruct.Pin = DE_Pin;
 8003d1c:	f44f 7380 	mov.w	r3, #256	@ 0x100
 8003d20:	613b      	str	r3, [r7, #16]
  GPIO_InitStruct.Mode = GPIO_MODE_OUTPUT_PP;
 8003d22:	2301      	movs	r3, #1
 8003d24:	617b      	str	r3, [r7, #20]
  GPIO_InitStruct.Pull = GPIO_NOPULL;
 8003d26:	2300      	movs	r3, #0
 8003d28:	61bb      	str	r3, [r7, #24]
  GPIO_InitStruct.Speed = GPIO_SPEED_FREQ_LOW;
 8003d2a:	2302      	movs	r3, #2
 8003d2c:	61fb      	str	r3, [r7, #28]
  HAL_GPIO_Init(DE_GPIO_Port, &GPIO_InitStruct);
 8003d2e:	f107 0310 	add.w	r3, r7, #16
 8003d32:	4619      	mov	r1, r3
 8003d34:	4813      	ldr	r0, [pc, #76]	@ (8003d84 <MX_GPIO_Init+0x1b8>)
 8003d36:	f002 fd47 	bl	80067c8 <HAL_GPIO_Init>

  /*Configure GPIO pin : RST_Pin */
  GPIO_InitStruct.Pin = RST_Pin;
 8003d3a:	2340      	movs	r3, #64	@ 0x40
 8003d3c:	613b      	str	r3, [r7, #16]
  GPIO_InitStruct.Mode = GPIO_MODE_IT_FALLING;
 8003d3e:	4b13      	ldr	r3, [pc, #76]	@ (8003d8c <MX_GPIO_Init+0x1c0>)
 8003d40:	617b      	str	r3, [r7, #20]
  GPIO_InitStruct.Pull = GPIO_PULLUP;
 8003d42:	2301      	movs	r3, #1
 8003d44:	61bb      	str	r3, [r7, #24]
  HAL_GPIO_Init(RST_GPIO_Port, &GPIO_InitStruct);
 8003d46:	f107 0310 	add.w	r3, r7, #16
 8003d4a:	4619      	mov	r1, r3
 8003d4c:	480e      	ldr	r0, [pc, #56]	@ (8003d88 <MX_GPIO_Init+0x1bc>)
 8003d4e:	f002 fd3b 	bl	80067c8 <HAL_GPIO_Init>

  /* EXTI interrupt init*/
  HAL_NVIC_SetPriority(EXTI0_IRQn, 1, 0);
 8003d52:	2200      	movs	r2, #0
 8003d54:	2101      	movs	r1, #1
 8003d56:	2006      	movs	r0, #6
 8003d58:	f002 f859 	bl	8005e0e <HAL_NVIC_SetPriority>
  HAL_NVIC_EnableIRQ(EXTI0_IRQn);
 8003d5c:	2006      	movs	r0, #6
 8003d5e:	f002 f872 	bl	8005e46 <HAL_NVIC_EnableIRQ>

  HAL_NVIC_SetPriority(EXTI9_5_IRQn, 7, 0);
 8003d62:	2200      	movs	r2, #0
 8003d64:	2107      	movs	r1, #7
 8003d66:	2017      	movs	r0, #23
 8003d68:	f002 f851 	bl	8005e0e <HAL_NVIC_SetPriority>
  HAL_NVIC_EnableIRQ(EXTI9_5_IRQn);
 8003d6c:	2017      	movs	r0, #23
 8003d6e:	f002 f86a 	bl	8005e46 <HAL_NVIC_EnableIRQ>

  /* USER CODE BEGIN MX_GPIO_Init_2 */
  /* USER CODE END MX_GPIO_Init_2 */
}
 8003d72:	bf00      	nop
 8003d74:	3720      	adds	r7, #32
 8003d76:	46bd      	mov	sp, r7
 8003d78:	bd80      	pop	{r7, pc}
 8003d7a:	bf00      	nop
 8003d7c:	40021000 	.word	0x40021000
 8003d80:	40011000 	.word	0x40011000
 8003d84:	40010800 	.word	0x40010800
 8003d88:	40010c00 	.word	0x40010c00
 8003d8c:	10210000 	.word	0x10210000

08003d90 <sendData_eth>:

/* USER CODE BEGIN 4 */
void sendData_eth (char *CMD, uint32_t data)
{
 8003d90:	b580      	push	{r7, lr}
 8003d92:	b084      	sub	sp, #16
 8003d94:	af00      	add	r7, sp, #0
 8003d96:	6078      	str	r0, [r7, #4]
 8003d98:	6039      	str	r1, [r7, #0]
	uint8_t cmd[6];
	cmd[0] = CMD[0];
 8003d9a:	687b      	ldr	r3, [r7, #4]
 8003d9c:	781b      	ldrb	r3, [r3, #0]
 8003d9e:	723b      	strb	r3, [r7, #8]
	cmd[1] = data>>24&0xFF;
 8003da0:	683b      	ldr	r3, [r7, #0]
 8003da2:	0e1b      	lsrs	r3, r3, #24
 8003da4:	b2db      	uxtb	r3, r3
 8003da6:	727b      	strb	r3, [r7, #9]
	cmd[2] = data>>16&0xFF;
 8003da8:	683b      	ldr	r3, [r7, #0]
 8003daa:	0c1b      	lsrs	r3, r3, #16
 8003dac:	b2db      	uxtb	r3, r3
 8003dae:	72bb      	strb	r3, [r7, #10]
	cmd[3] = data>>8&0xFF;
 8003db0:	683b      	ldr	r3, [r7, #0]
 8003db2:	0a1b      	lsrs	r3, r3, #8
 8003db4:	b2db      	uxtb	r3, r3
 8003db6:	72fb      	strb	r3, [r7, #11]
	cmd[4] = data&0xFF;
 8003db8:	683b      	ldr	r3, [r7, #0]
 8003dba:	b2db      	uxtb	r3, r3
 8003dbc:	733b      	strb	r3, [r7, #12]
	send(SOCK_NUM,(uint8_t *) cmd, 5);
 8003dbe:	f107 0308 	add.w	r3, r7, #8
 8003dc2:	2205      	movs	r2, #5
 8003dc4:	4619      	mov	r1, r3
 8003dc6:	2000      	movs	r0, #0
 8003dc8:	f7fc ff8e 	bl	8000ce8 <send>
//	sendto(0, cmd, 5, server_ip,port_server);// send UDP
}
 8003dcc:	bf00      	nop
 8003dce:	3710      	adds	r7, #16
 8003dd0:	46bd      	mov	sp, r7
 8003dd2:	bd80      	pop	{r7, pc}

08003dd4 <send_u8_eth>:
void send_u8_eth (char *CMD, uint8_t data)
{
 8003dd4:	b580      	push	{r7, lr}
 8003dd6:	b084      	sub	sp, #16
 8003dd8:	af00      	add	r7, sp, #0
 8003dda:	6078      	str	r0, [r7, #4]
 8003ddc:	460b      	mov	r3, r1
 8003dde:	70fb      	strb	r3, [r7, #3]
//	char buf[10] = {0};
	uint8_t cmd[2];
	cmd[0] = CMD[0];
 8003de0:	687b      	ldr	r3, [r7, #4]
 8003de2:	781b      	ldrb	r3, [r3, #0]
 8003de4:	733b      	strb	r3, [r7, #12]
	cmd[1] = data;
 8003de6:	78fb      	ldrb	r3, [r7, #3]
 8003de8:	737b      	strb	r3, [r7, #13]
	send(SOCK_NUM,(uint8_t *) cmd, 2);
 8003dea:	f107 030c 	add.w	r3, r7, #12
 8003dee:	2202      	movs	r2, #2
 8003df0:	4619      	mov	r1, r3
 8003df2:	2000      	movs	r0, #0
 8003df4:	f7fc ff78 	bl	8000ce8 <send>
//	sendto(0, cmd, 5, server_ip,port_server);// send UDP
}
 8003df8:	bf00      	nop
 8003dfa:	3710      	adds	r7, #16
 8003dfc:	46bd      	mov	sp, r7
 8003dfe:	bd80      	pop	{r7, pc}

08003e00 <sendString>:
void sendString (char *CMD, char *data)
{
 8003e00:	b580      	push	{r7, lr}
 8003e02:	b088      	sub	sp, #32
 8003e04:	af00      	add	r7, sp, #0
 8003e06:	6078      	str	r0, [r7, #4]
 8003e08:	6039      	str	r1, [r7, #0]
//	char buf[10] = {0};
	char cmd[20];
	strcpy(cmd,CMD);
 8003e0a:	f107 030c 	add.w	r3, r7, #12
 8003e0e:	6879      	ldr	r1, [r7, #4]
 8003e10:	4618      	mov	r0, r3
 8003e12:	f005 fd11 	bl	8009838 <strcpy>
	strcat(cmd, data);
 8003e16:	f107 030c 	add.w	r3, r7, #12
 8003e1a:	6839      	ldr	r1, [r7, #0]
 8003e1c:	4618      	mov	r0, r3
 8003e1e:	f005 fcd7 	bl	80097d0 <strcat>
//	cmd[1] = (data&0xFF000000)>>24;
//	cmd[2] = (data&0x00FF0000)>>16;
//	cmd[3] = (data&0x0000FF00)>>8;
//	cmd[4] = (data&0x000000FF)>>0;
	send(SOCK_NUM,(uint8_t *) cmd, strlen(cmd));
 8003e22:	f107 030c 	add.w	r3, r7, #12
 8003e26:	4618      	mov	r0, r3
 8003e28:	f7fc f990 	bl	800014c <strlen>
 8003e2c:	4603      	mov	r3, r0
 8003e2e:	b29a      	uxth	r2, r3
 8003e30:	f107 030c 	add.w	r3, r7, #12
 8003e34:	4619      	mov	r1, r3
 8003e36:	2000      	movs	r0, #0
 8003e38:	f7fc ff56 	bl	8000ce8 <send>
//	sendto(0, cmd, 5, server_ip,port_server);// send UDP
}
 8003e3c:	bf00      	nop
 8003e3e:	3720      	adds	r7, #32
 8003e40:	46bd      	mov	sp, r7
 8003e42:	bd80      	pop	{r7, pc}

08003e44 <sendData_eth_info>:
void sendData_eth_info (char *CMD, uint8_t *data)
{
 8003e44:	b580      	push	{r7, lr}
 8003e46:	b08a      	sub	sp, #40	@ 0x28
 8003e48:	af00      	add	r7, sp, #0
 8003e4a:	6078      	str	r0, [r7, #4]
 8003e4c:	6039      	str	r1, [r7, #0]
	char cx[27];
//	strcpy(cx,CMD);
//	strcat(cx, data);
	cx[0] = CMD[0];
 8003e4e:	687b      	ldr	r3, [r7, #4]
 8003e50:	781b      	ldrb	r3, [r3, #0]
 8003e52:	733b      	strb	r3, [r7, #12]
	for (uint8_t i=0; i<26; i++)
 8003e54:	2300      	movs	r3, #0
 8003e56:	f887 3027 	strb.w	r3, [r7, #39]	@ 0x27
 8003e5a:	e010      	b.n	8003e7e <sendData_eth_info+0x3a>
	{
		cx[i+1] = data[i];
 8003e5c:	f897 3027 	ldrb.w	r3, [r7, #39]	@ 0x27
 8003e60:	683a      	ldr	r2, [r7, #0]
 8003e62:	441a      	add	r2, r3
 8003e64:	f897 3027 	ldrb.w	r3, [r7, #39]	@ 0x27
 8003e68:	3301      	adds	r3, #1
 8003e6a:	7812      	ldrb	r2, [r2, #0]
 8003e6c:	3328      	adds	r3, #40	@ 0x28
 8003e6e:	443b      	add	r3, r7
 8003e70:	f803 2c1c 	strb.w	r2, [r3, #-28]
	for (uint8_t i=0; i<26; i++)
 8003e74:	f897 3027 	ldrb.w	r3, [r7, #39]	@ 0x27
 8003e78:	3301      	adds	r3, #1
 8003e7a:	f887 3027 	strb.w	r3, [r7, #39]	@ 0x27
 8003e7e:	f897 3027 	ldrb.w	r3, [r7, #39]	@ 0x27
 8003e82:	2b19      	cmp	r3, #25
 8003e84:	d9ea      	bls.n	8003e5c <sendData_eth_info+0x18>
	}
	send(SOCK_NUM,(uint8_t *) cx, 27);
 8003e86:	f107 030c 	add.w	r3, r7, #12
 8003e8a:	221b      	movs	r2, #27
 8003e8c:	4619      	mov	r1, r3
 8003e8e:	2000      	movs	r0, #0
 8003e90:	f7fc ff2a 	bl	8000ce8 <send>
}
 8003e94:	bf00      	nop
 8003e96:	3728      	adds	r7, #40	@ 0x28
 8003e98:	46bd      	mov	sp, r7
 8003e9a:	bd80      	pop	{r7, pc}

08003e9c <sendData_eth_CardID>:
void sendData_eth_CardID (char *CMD, user_info_t user)
{
 8003e9c:	b084      	sub	sp, #16
 8003e9e:	e92d 43f0 	stmdb	sp!, {r4, r5, r6, r7, r8, r9, lr}
 8003ea2:	b087      	sub	sp, #28
 8003ea4:	af00      	add	r7, sp, #0
 8003ea6:	6078      	str	r0, [r7, #4]
 8003ea8:	f107 003c 	add.w	r0, r7, #60	@ 0x3c
 8003eac:	e880 000e 	stmia.w	r0, {r1, r2, r3}
 8003eb0:	466b      	mov	r3, sp
 8003eb2:	461e      	mov	r6, r3
	uint8_t size = sizeof(user_info_t)+2;
 8003eb4:	2322      	movs	r3, #34	@ 0x22
 8003eb6:	75fb      	strb	r3, [r7, #23]
	uint8_t cx[size];
 8003eb8:	7df9      	ldrb	r1, [r7, #23]
 8003eba:	460b      	mov	r3, r1
 8003ebc:	3b01      	subs	r3, #1
 8003ebe:	613b      	str	r3, [r7, #16]
 8003ec0:	b2cb      	uxtb	r3, r1
 8003ec2:	2200      	movs	r2, #0
 8003ec4:	4698      	mov	r8, r3
 8003ec6:	4691      	mov	r9, r2
 8003ec8:	f04f 0200 	mov.w	r2, #0
 8003ecc:	f04f 0300 	mov.w	r3, #0
 8003ed0:	ea4f 03c9 	mov.w	r3, r9, lsl #3
 8003ed4:	ea43 7358 	orr.w	r3, r3, r8, lsr #29
 8003ed8:	ea4f 02c8 	mov.w	r2, r8, lsl #3
 8003edc:	b2cb      	uxtb	r3, r1
 8003ede:	2200      	movs	r2, #0
 8003ee0:	461c      	mov	r4, r3
 8003ee2:	4615      	mov	r5, r2
 8003ee4:	f04f 0200 	mov.w	r2, #0
 8003ee8:	f04f 0300 	mov.w	r3, #0
 8003eec:	00eb      	lsls	r3, r5, #3
 8003eee:	ea43 7354 	orr.w	r3, r3, r4, lsr #29
 8003ef2:	00e2      	lsls	r2, r4, #3
 8003ef4:	460b      	mov	r3, r1
 8003ef6:	3307      	adds	r3, #7
 8003ef8:	08db      	lsrs	r3, r3, #3
 8003efa:	00db      	lsls	r3, r3, #3
 8003efc:	ebad 0d03 	sub.w	sp, sp, r3
 8003f00:	466b      	mov	r3, sp
 8003f02:	3300      	adds	r3, #0
 8003f04:	60fb      	str	r3, [r7, #12]
	cx[0] = CMD[0];
 8003f06:	687b      	ldr	r3, [r7, #4]
 8003f08:	781a      	ldrb	r2, [r3, #0]
 8003f0a:	68fb      	ldr	r3, [r7, #12]
 8003f0c:	701a      	strb	r2, [r3, #0]
	cx[1] = 2;
 8003f0e:	68fb      	ldr	r3, [r7, #12]
 8003f10:	2202      	movs	r2, #2
 8003f12:	705a      	strb	r2, [r3, #1]
	cx[2] = user.cardID>>24&0xFF;
 8003f14:	6c3b      	ldr	r3, [r7, #64]	@ 0x40
 8003f16:	0e1b      	lsrs	r3, r3, #24
 8003f18:	b2da      	uxtb	r2, r3
 8003f1a:	68fb      	ldr	r3, [r7, #12]
 8003f1c:	709a      	strb	r2, [r3, #2]
	cx[3] = user.cardID>>16&0xFF;
 8003f1e:	6c3b      	ldr	r3, [r7, #64]	@ 0x40
 8003f20:	0c1b      	lsrs	r3, r3, #16
 8003f22:	b2da      	uxtb	r2, r3
 8003f24:	68fb      	ldr	r3, [r7, #12]
 8003f26:	70da      	strb	r2, [r3, #3]
	cx[4] = user.cardID>>8&0xFF;
 8003f28:	6c3b      	ldr	r3, [r7, #64]	@ 0x40
 8003f2a:	0a1b      	lsrs	r3, r3, #8
 8003f2c:	b2da      	uxtb	r2, r3
 8003f2e:	68fb      	ldr	r3, [r7, #12]
 8003f30:	711a      	strb	r2, [r3, #4]
	cx[5] = user.cardID&0xFF;
 8003f32:	6c3b      	ldr	r3, [r7, #64]	@ 0x40
 8003f34:	b2da      	uxtb	r2, r3
 8003f36:	68fb      	ldr	r3, [r7, #12]
 8003f38:	715a      	strb	r2, [r3, #5]
	cx[6] = user.permis[0];
 8003f3a:	f897 2044 	ldrb.w	r2, [r7, #68]	@ 0x44
 8003f3e:	68fb      	ldr	r3, [r7, #12]
 8003f40:	719a      	strb	r2, [r3, #6]
	cx[7] = user.permis[1];
 8003f42:	f897 2045 	ldrb.w	r2, [r7, #69]	@ 0x45
 8003f46:	68fb      	ldr	r3, [r7, #12]
 8003f48:	71da      	strb	r2, [r3, #7]
	cx[8] = user.permis[2];
 8003f4a:	f897 2046 	ldrb.w	r2, [r7, #70]	@ 0x46
 8003f4e:	68fb      	ldr	r3, [r7, #12]
 8003f50:	721a      	strb	r2, [r3, #8]
	cx[9] = user.permis[3];
 8003f52:	f897 2047 	ldrb.w	r2, [r7, #71]	@ 0x47
 8003f56:	68fb      	ldr	r3, [r7, #12]
 8003f58:	725a      	strb	r2, [r3, #9]
	cx[10] = user.permis[4];
 8003f5a:	f897 2048 	ldrb.w	r2, [r7, #72]	@ 0x48
 8003f5e:	68fb      	ldr	r3, [r7, #12]
 8003f60:	729a      	strb	r2, [r3, #10]
	cx[11] = user.permis[5];
 8003f62:	f897 2049 	ldrb.w	r2, [r7, #73]	@ 0x49
 8003f66:	68fb      	ldr	r3, [r7, #12]
 8003f68:	72da      	strb	r2, [r3, #11]
	cx[12] = user.permis[6];
 8003f6a:	f897 204a 	ldrb.w	r2, [r7, #74]	@ 0x4a
 8003f6e:	68fb      	ldr	r3, [r7, #12]
 8003f70:	731a      	strb	r2, [r3, #12]
	cx[13] = user.permis[7];
 8003f72:	f897 204b 	ldrb.w	r2, [r7, #75]	@ 0x4b
 8003f76:	68fb      	ldr	r3, [r7, #12]
 8003f78:	735a      	strb	r2, [r3, #13]
	cx[14] = user.beginDate;
 8003f7a:	f897 204f 	ldrb.w	r2, [r7, #79]	@ 0x4f
 8003f7e:	68fb      	ldr	r3, [r7, #12]
 8003f80:	739a      	strb	r2, [r3, #14]
	cx[15] = user.beginMonth;
 8003f82:	f897 204e 	ldrb.w	r2, [r7, #78]	@ 0x4e
 8003f86:	68fb      	ldr	r3, [r7, #12]
 8003f88:	73da      	strb	r2, [r3, #15]
	cx[16] = user.beginYear>>8&0xFF;
 8003f8a:	f8b7 304c 	ldrh.w	r3, [r7, #76]	@ 0x4c
 8003f8e:	0a1b      	lsrs	r3, r3, #8
 8003f90:	b29b      	uxth	r3, r3
 8003f92:	b2da      	uxtb	r2, r3
 8003f94:	68fb      	ldr	r3, [r7, #12]
 8003f96:	741a      	strb	r2, [r3, #16]
	cx[17] = user.beginYear&0xFF;
 8003f98:	f8b7 304c 	ldrh.w	r3, [r7, #76]	@ 0x4c
 8003f9c:	b2da      	uxtb	r2, r3
 8003f9e:	68fb      	ldr	r3, [r7, #12]
 8003fa0:	745a      	strb	r2, [r3, #17]
	cx[18] = user.beginHour;
 8003fa2:	f897 2050 	ldrb.w	r2, [r7, #80]	@ 0x50
 8003fa6:	68fb      	ldr	r3, [r7, #12]
 8003fa8:	749a      	strb	r2, [r3, #18]
	cx[19] = user.beginMinute;
 8003faa:	f897 2051 	ldrb.w	r2, [r7, #81]	@ 0x51
 8003fae:	68fb      	ldr	r3, [r7, #12]
 8003fb0:	74da      	strb	r2, [r3, #19]
	cx[20] = user.endDate;
 8003fb2:	f897 2055 	ldrb.w	r2, [r7, #85]	@ 0x55
 8003fb6:	68fb      	ldr	r3, [r7, #12]
 8003fb8:	751a      	strb	r2, [r3, #20]
	cx[21] = user.endMonth;
 8003fba:	f897 2054 	ldrb.w	r2, [r7, #84]	@ 0x54
 8003fbe:	68fb      	ldr	r3, [r7, #12]
 8003fc0:	755a      	strb	r2, [r3, #21]
	cx[22] = user.endYear>>8&0xFF;
 8003fc2:	f8b7 3052 	ldrh.w	r3, [r7, #82]	@ 0x52
 8003fc6:	0a1b      	lsrs	r3, r3, #8
 8003fc8:	b29b      	uxth	r3, r3
 8003fca:	b2da      	uxtb	r2, r3
 8003fcc:	68fb      	ldr	r3, [r7, #12]
 8003fce:	759a      	strb	r2, [r3, #22]
	cx[23] = user.endYear&0xFF;
 8003fd0:	f8b7 3052 	ldrh.w	r3, [r7, #82]	@ 0x52
 8003fd4:	b2da      	uxtb	r2, r3
 8003fd6:	68fb      	ldr	r3, [r7, #12]
 8003fd8:	75da      	strb	r2, [r3, #23]
	cx[24] = user.endHour;
 8003fda:	f897 2056 	ldrb.w	r2, [r7, #86]	@ 0x56
 8003fde:	68fb      	ldr	r3, [r7, #12]
 8003fe0:	761a      	strb	r2, [r3, #24]
	cx[25] = user.endMinute;
 8003fe2:	f897 2057 	ldrb.w	r2, [r7, #87]	@ 0x57
 8003fe6:	68fb      	ldr	r3, [r7, #12]
 8003fe8:	765a      	strb	r2, [r3, #25]
	send(SOCK_NUM,(uint8_t *) cx, size);
 8003fea:	7dfb      	ldrb	r3, [r7, #23]
 8003fec:	b29b      	uxth	r3, r3
 8003fee:	461a      	mov	r2, r3
 8003ff0:	68f9      	ldr	r1, [r7, #12]
 8003ff2:	2000      	movs	r0, #0
 8003ff4:	f7fc fe78 	bl	8000ce8 <send>
 8003ff8:	46b5      	mov	sp, r6
}
 8003ffa:	bf00      	nop
 8003ffc:	371c      	adds	r7, #28
 8003ffe:	46bd      	mov	sp, r7
 8004000:	e8bd 43f0 	ldmia.w	sp!, {r4, r5, r6, r7, r8, r9, lr}
 8004004:	b004      	add	sp, #16
 8004006:	4770      	bx	lr

08004008 <sendData_uart>:
void sendData_uart (char *CMD, uint8_t data)
{
 8004008:	b580      	push	{r7, lr}
 800400a:	b084      	sub	sp, #16
 800400c:	af00      	add	r7, sp, #0
 800400e:	6078      	str	r0, [r7, #4]
 8004010:	460b      	mov	r3, r1
 8004012:	70fb      	strb	r3, [r7, #3]
	char cmd[2];
	cmd[0] = CMD[0];
 8004014:	687b      	ldr	r3, [r7, #4]
 8004016:	781b      	ldrb	r3, [r3, #0]
 8004018:	733b      	strb	r3, [r7, #12]
	cmd[1] = data;
 800401a:	78fb      	ldrb	r3, [r7, #3]
 800401c:	737b      	strb	r3, [r7, #13]
//	strcpy(cmd,CMD);
//	strcat(cmd,data);
	// Pull DE high to enable TX operation
	HAL_GPIO_WritePin(DE_GPIO_Port, DE_Pin, GPIO_PIN_SET);
 800401e:	2201      	movs	r2, #1
 8004020:	f44f 7180 	mov.w	r1, #256	@ 0x100
 8004024:	480a      	ldr	r0, [pc, #40]	@ (8004050 <sendData_uart+0x48>)
 8004026:	f002 fd6a 	bl	8006afe <HAL_GPIO_WritePin>
	HAL_UART_Transmit(&huart1,(uint8_t *) cmd, 2, 500);
 800402a:	f107 010c 	add.w	r1, r7, #12
 800402e:	f44f 73fa 	mov.w	r3, #500	@ 0x1f4
 8004032:	2202      	movs	r2, #2
 8004034:	4807      	ldr	r0, [pc, #28]	@ (8004054 <sendData_uart+0x4c>)
 8004036:	f004 fbe7 	bl	8008808 <HAL_UART_Transmit>
	// Pull RE Low to enable RX operation
	HAL_GPIO_WritePin(DE_GPIO_Port, DE_Pin, GPIO_PIN_RESET);
 800403a:	2200      	movs	r2, #0
 800403c:	f44f 7180 	mov.w	r1, #256	@ 0x100
 8004040:	4803      	ldr	r0, [pc, #12]	@ (8004050 <sendData_uart+0x48>)
 8004042:	f002 fd5c 	bl	8006afe <HAL_GPIO_WritePin>
}
 8004046:	bf00      	nop
 8004048:	3710      	adds	r7, #16
 800404a:	46bd      	mov	sp, r7
 800404c:	bd80      	pop	{r7, pc}
 800404e:	bf00      	nop
 8004050:	40010800 	.word	0x40010800
 8004054:	20000210 	.word	0x20000210

08004058 <save_data>:
	HAL_UART_Transmit(&huart1, cmd, 27, 1000);
	// Pull RE Low to enable RX operation
	HAL_GPIO_WritePin(DE_GPIO_Port, DE_Pin, GPIO_PIN_RESET);
}
void save_data()
{
 8004058:	e92d 4fb0 	stmdb	sp!, {r4, r5, r7, r8, r9, sl, fp, lr}
 800405c:	b096      	sub	sp, #88	@ 0x58
 800405e:	af00      	add	r7, sp, #0
	HAL_FLASH_Unlock();
 8004060:	f002 fa22 	bl	80064a8 <HAL_FLASH_Unlock>
	HAL_FLASHEx_Erase(&EraseInit, &SectorError);
 8004064:	4958      	ldr	r1, [pc, #352]	@ (80041c8 <save_data+0x170>)
 8004066:	4859      	ldr	r0, [pc, #356]	@ (80041cc <save_data+0x174>)
 8004068:	f002 fb06 	bl	8006678 <HAL_FLASHEx_Erase>
	HAL_FLASH_Program(FLASH_TYPEPROGRAM_WORD, 0x0800FC00, ip1);
 800406c:	4b58      	ldr	r3, [pc, #352]	@ (80041d0 <save_data+0x178>)
 800406e:	781b      	ldrb	r3, [r3, #0]
 8004070:	b2db      	uxtb	r3, r3
 8004072:	2200      	movs	r2, #0
 8004074:	461c      	mov	r4, r3
 8004076:	4615      	mov	r5, r2
 8004078:	4622      	mov	r2, r4
 800407a:	462b      	mov	r3, r5
 800407c:	4955      	ldr	r1, [pc, #340]	@ (80041d4 <save_data+0x17c>)
 800407e:	2002      	movs	r0, #2
 8004080:	f002 f9a2 	bl	80063c8 <HAL_FLASH_Program>
	HAL_FLASH_Program(FLASH_TYPEPROGRAM_WORD, 0x0800FC04, ip2);
 8004084:	4b54      	ldr	r3, [pc, #336]	@ (80041d8 <save_data+0x180>)
 8004086:	781b      	ldrb	r3, [r3, #0]
 8004088:	b2db      	uxtb	r3, r3
 800408a:	2200      	movs	r2, #0
 800408c:	4698      	mov	r8, r3
 800408e:	4691      	mov	r9, r2
 8004090:	4642      	mov	r2, r8
 8004092:	464b      	mov	r3, r9
 8004094:	4951      	ldr	r1, [pc, #324]	@ (80041dc <save_data+0x184>)
 8004096:	2002      	movs	r0, #2
 8004098:	f002 f996 	bl	80063c8 <HAL_FLASH_Program>
	HAL_FLASH_Program(FLASH_TYPEPROGRAM_WORD, 0x0800FC08, ip3);
 800409c:	4b50      	ldr	r3, [pc, #320]	@ (80041e0 <save_data+0x188>)
 800409e:	781b      	ldrb	r3, [r3, #0]
 80040a0:	b2db      	uxtb	r3, r3
 80040a2:	2200      	movs	r2, #0
 80040a4:	469a      	mov	sl, r3
 80040a6:	4693      	mov	fp, r2
 80040a8:	4652      	mov	r2, sl
 80040aa:	465b      	mov	r3, fp
 80040ac:	494d      	ldr	r1, [pc, #308]	@ (80041e4 <save_data+0x18c>)
 80040ae:	2002      	movs	r0, #2
 80040b0:	f002 f98a 	bl	80063c8 <HAL_FLASH_Program>
	HAL_FLASH_Program(FLASH_TYPEPROGRAM_WORD, 0x0800FC0C, ip4);
 80040b4:	4b4c      	ldr	r3, [pc, #304]	@ (80041e8 <save_data+0x190>)
 80040b6:	781b      	ldrb	r3, [r3, #0]
 80040b8:	b2db      	uxtb	r3, r3
 80040ba:	2200      	movs	r2, #0
 80040bc:	653b      	str	r3, [r7, #80]	@ 0x50
 80040be:	657a      	str	r2, [r7, #84]	@ 0x54
 80040c0:	e9d7 2314 	ldrd	r2, r3, [r7, #80]	@ 0x50
 80040c4:	4949      	ldr	r1, [pc, #292]	@ (80041ec <save_data+0x194>)
 80040c6:	2002      	movs	r0, #2
 80040c8:	f002 f97e 	bl	80063c8 <HAL_FLASH_Program>
	HAL_FLASH_Program(FLASH_TYPEPROGRAM_WORD, 0x0800FC10, port_client);
 80040cc:	4b48      	ldr	r3, [pc, #288]	@ (80041f0 <save_data+0x198>)
 80040ce:	881b      	ldrh	r3, [r3, #0]
 80040d0:	b29b      	uxth	r3, r3
 80040d2:	2200      	movs	r2, #0
 80040d4:	64bb      	str	r3, [r7, #72]	@ 0x48
 80040d6:	64fa      	str	r2, [r7, #76]	@ 0x4c
 80040d8:	e9d7 2312 	ldrd	r2, r3, [r7, #72]	@ 0x48
 80040dc:	4945      	ldr	r1, [pc, #276]	@ (80041f4 <save_data+0x19c>)
 80040de:	2002      	movs	r0, #2
 80040e0:	f002 f972 	bl	80063c8 <HAL_FLASH_Program>
	HAL_FLASH_Program(FLASH_TYPEPROGRAM_WORD, 0x0800FC14, ip_server1);
 80040e4:	4b44      	ldr	r3, [pc, #272]	@ (80041f8 <save_data+0x1a0>)
 80040e6:	781b      	ldrb	r3, [r3, #0]
 80040e8:	b2db      	uxtb	r3, r3
 80040ea:	2200      	movs	r2, #0
 80040ec:	643b      	str	r3, [r7, #64]	@ 0x40
 80040ee:	647a      	str	r2, [r7, #68]	@ 0x44
 80040f0:	e9d7 2310 	ldrd	r2, r3, [r7, #64]	@ 0x40
 80040f4:	4941      	ldr	r1, [pc, #260]	@ (80041fc <save_data+0x1a4>)
 80040f6:	2002      	movs	r0, #2
 80040f8:	f002 f966 	bl	80063c8 <HAL_FLASH_Program>
	HAL_FLASH_Program(FLASH_TYPEPROGRAM_WORD, 0x0800FC18, ip_server2);
 80040fc:	4b40      	ldr	r3, [pc, #256]	@ (8004200 <save_data+0x1a8>)
 80040fe:	781b      	ldrb	r3, [r3, #0]
 8004100:	b2db      	uxtb	r3, r3
 8004102:	2200      	movs	r2, #0
 8004104:	63bb      	str	r3, [r7, #56]	@ 0x38
 8004106:	63fa      	str	r2, [r7, #60]	@ 0x3c
 8004108:	e9d7 230e 	ldrd	r2, r3, [r7, #56]	@ 0x38
 800410c:	493d      	ldr	r1, [pc, #244]	@ (8004204 <save_data+0x1ac>)
 800410e:	2002      	movs	r0, #2
 8004110:	f002 f95a 	bl	80063c8 <HAL_FLASH_Program>
	HAL_FLASH_Program(FLASH_TYPEPROGRAM_WORD, 0x0800FC1C, ip_server3);
 8004114:	4b3c      	ldr	r3, [pc, #240]	@ (8004208 <save_data+0x1b0>)
 8004116:	781b      	ldrb	r3, [r3, #0]
 8004118:	b2db      	uxtb	r3, r3
 800411a:	2200      	movs	r2, #0
 800411c:	633b      	str	r3, [r7, #48]	@ 0x30
 800411e:	637a      	str	r2, [r7, #52]	@ 0x34
 8004120:	e9d7 230c 	ldrd	r2, r3, [r7, #48]	@ 0x30
 8004124:	4939      	ldr	r1, [pc, #228]	@ (800420c <save_data+0x1b4>)
 8004126:	2002      	movs	r0, #2
 8004128:	f002 f94e 	bl	80063c8 <HAL_FLASH_Program>
	HAL_FLASH_Program(FLASH_TYPEPROGRAM_WORD, 0x0800FC20, ip_server4);
 800412c:	4b38      	ldr	r3, [pc, #224]	@ (8004210 <save_data+0x1b8>)
 800412e:	781b      	ldrb	r3, [r3, #0]
 8004130:	b2db      	uxtb	r3, r3
 8004132:	2200      	movs	r2, #0
 8004134:	62bb      	str	r3, [r7, #40]	@ 0x28
 8004136:	62fa      	str	r2, [r7, #44]	@ 0x2c
 8004138:	e9d7 230a 	ldrd	r2, r3, [r7, #40]	@ 0x28
 800413c:	4935      	ldr	r1, [pc, #212]	@ (8004214 <save_data+0x1bc>)
 800413e:	2002      	movs	r0, #2
 8004140:	f002 f942 	bl	80063c8 <HAL_FLASH_Program>
	HAL_FLASH_Program(FLASH_TYPEPROGRAM_WORD, 0x0800FC24, port_server);
 8004144:	4b34      	ldr	r3, [pc, #208]	@ (8004218 <save_data+0x1c0>)
 8004146:	881b      	ldrh	r3, [r3, #0]
 8004148:	b29b      	uxth	r3, r3
 800414a:	2200      	movs	r2, #0
 800414c:	623b      	str	r3, [r7, #32]
 800414e:	627a      	str	r2, [r7, #36]	@ 0x24
 8004150:	e9d7 2308 	ldrd	r2, r3, [r7, #32]
 8004154:	4931      	ldr	r1, [pc, #196]	@ (800421c <save_data+0x1c4>)
 8004156:	2002      	movs	r0, #2
 8004158:	f002 f936 	bl	80063c8 <HAL_FLASH_Program>
	HAL_FLASH_Program(FLASH_TYPEPROGRAM_WORD, 0x0800FC28, time_delay);
 800415c:	4b30      	ldr	r3, [pc, #192]	@ (8004220 <save_data+0x1c8>)
 800415e:	781b      	ldrb	r3, [r3, #0]
 8004160:	b2db      	uxtb	r3, r3
 8004162:	2200      	movs	r2, #0
 8004164:	61bb      	str	r3, [r7, #24]
 8004166:	61fa      	str	r2, [r7, #28]
 8004168:	e9d7 2306 	ldrd	r2, r3, [r7, #24]
 800416c:	492d      	ldr	r1, [pc, #180]	@ (8004224 <save_data+0x1cc>)
 800416e:	2002      	movs	r0, #2
 8004170:	f002 f92a 	bl	80063c8 <HAL_FLASH_Program>
	HAL_FLASH_Program(FLASH_TYPEPROGRAM_WORD, 0x0800FC2C, elevator_mode);
 8004174:	4b2c      	ldr	r3, [pc, #176]	@ (8004228 <save_data+0x1d0>)
 8004176:	781b      	ldrb	r3, [r3, #0]
 8004178:	b2db      	uxtb	r3, r3
 800417a:	2200      	movs	r2, #0
 800417c:	613b      	str	r3, [r7, #16]
 800417e:	617a      	str	r2, [r7, #20]
 8004180:	e9d7 2304 	ldrd	r2, r3, [r7, #16]
 8004184:	4929      	ldr	r1, [pc, #164]	@ (800422c <save_data+0x1d4>)
 8004186:	2002      	movs	r0, #2
 8004188:	f002 f91e 	bl	80063c8 <HAL_FLASH_Program>
	HAL_FLASH_Program(FLASH_TYPEPROGRAM_WORD, 0x0800FC30, lock_default_1);
 800418c:	4b28      	ldr	r3, [pc, #160]	@ (8004230 <save_data+0x1d8>)
 800418e:	681b      	ldr	r3, [r3, #0]
 8004190:	2200      	movs	r2, #0
 8004192:	60bb      	str	r3, [r7, #8]
 8004194:	60fa      	str	r2, [r7, #12]
 8004196:	e9d7 2302 	ldrd	r2, r3, [r7, #8]
 800419a:	4926      	ldr	r1, [pc, #152]	@ (8004234 <save_data+0x1dc>)
 800419c:	2002      	movs	r0, #2
 800419e:	f002 f913 	bl	80063c8 <HAL_FLASH_Program>
	HAL_FLASH_Program(FLASH_TYPEPROGRAM_WORD, 0x0800FC34, lock_default_2);
 80041a2:	4b25      	ldr	r3, [pc, #148]	@ (8004238 <save_data+0x1e0>)
 80041a4:	681b      	ldr	r3, [r3, #0]
 80041a6:	2200      	movs	r2, #0
 80041a8:	603b      	str	r3, [r7, #0]
 80041aa:	607a      	str	r2, [r7, #4]
 80041ac:	e9d7 2300 	ldrd	r2, r3, [r7]
 80041b0:	4922      	ldr	r1, [pc, #136]	@ (800423c <save_data+0x1e4>)
 80041b2:	2002      	movs	r0, #2
 80041b4:	f002 f908 	bl	80063c8 <HAL_FLASH_Program>
	HAL_FLASH_Lock();
 80041b8:	f002 f99c 	bl	80064f4 <HAL_FLASH_Lock>
}
 80041bc:	bf00      	nop
 80041be:	3758      	adds	r7, #88	@ 0x58
 80041c0:	46bd      	mov	sp, r7
 80041c2:	e8bd 8fb0 	ldmia.w	sp!, {r4, r5, r7, r8, r9, sl, fp, pc}
 80041c6:	bf00      	nop
 80041c8:	20000588 	.word	0x20000588
 80041cc:	2000008c 	.word	0x2000008c
 80041d0:	2000051c 	.word	0x2000051c
 80041d4:	0800fc00 	.word	0x0800fc00
 80041d8:	2000051d 	.word	0x2000051d
 80041dc:	0800fc04 	.word	0x0800fc04
 80041e0:	2000051e 	.word	0x2000051e
 80041e4:	0800fc08 	.word	0x0800fc08
 80041e8:	2000051f 	.word	0x2000051f
 80041ec:	0800fc0c 	.word	0x0800fc0c
 80041f0:	20000584 	.word	0x20000584
 80041f4:	0800fc10 	.word	0x0800fc10
 80041f8:	20000520 	.word	0x20000520
 80041fc:	0800fc14 	.word	0x0800fc14
 8004200:	20000521 	.word	0x20000521
 8004204:	0800fc18 	.word	0x0800fc18
 8004208:	20000522 	.word	0x20000522
 800420c:	0800fc1c 	.word	0x0800fc1c
 8004210:	20000523 	.word	0x20000523
 8004214:	0800fc20 	.word	0x0800fc20
 8004218:	20000582 	.word	0x20000582
 800421c:	0800fc24 	.word	0x0800fc24
 8004220:	20000510 	.word	0x20000510
 8004224:	0800fc28 	.word	0x0800fc28
 8004228:	20000542 	.word	0x20000542
 800422c:	0800fc2c 	.word	0x0800fc2c
 8004230:	200006a8 	.word	0x200006a8
 8004234:	0800fc30 	.word	0x0800fc30
 8004238:	200006ac 	.word	0x200006ac
 800423c:	0800fc34 	.word	0x0800fc34

08004240 <binary_search>:

user_info_t binary_search(uint32_t Number_card, uint32_t code)
{
 8004240:	b5b0      	push	{r4, r5, r7, lr}
 8004242:	b098      	sub	sp, #96	@ 0x60
 8004244:	af00      	add	r7, sp, #0
 8004246:	60f8      	str	r0, [r7, #12]
 8004248:	60b9      	str	r1, [r7, #8]
 800424a:	607a      	str	r2, [r7, #4]
	uint32_t low = 1, high = Number_card;
 800424c:	2301      	movs	r3, #1
 800424e:	65fb      	str	r3, [r7, #92]	@ 0x5c
 8004250:	68bb      	ldr	r3, [r7, #8]
 8004252:	65bb      	str	r3, [r7, #88]	@ 0x58
	user_info_t user_0={0}, user_compare;
 8004254:	f107 0334 	add.w	r3, r7, #52	@ 0x34
 8004258:	2220      	movs	r2, #32
 800425a:	2100      	movs	r1, #0
 800425c:	4618      	mov	r0, r3
 800425e:	f005 faaf 	bl	80097c0 <memset>

    while (low <= high) {
 8004262:	e02e      	b.n	80042c2 <binary_search+0x82>
    	uint32_t mid = (low + high) / 2;
 8004264:	6dfa      	ldr	r2, [r7, #92]	@ 0x5c
 8004266:	6dbb      	ldr	r3, [r7, #88]	@ 0x58
 8004268:	4413      	add	r3, r2
 800426a:	085b      	lsrs	r3, r3, #1
 800426c:	657b      	str	r3, [r7, #84]	@ 0x54
		W25Q_FastRead((mid-1)/16, ((mid-1)%16)*sizeof(user_info_t), sizeof(user_info_t), (uint8_t *)&user_compare);
 800426e:	6d7b      	ldr	r3, [r7, #84]	@ 0x54
 8004270:	3b01      	subs	r3, #1
 8004272:	0918      	lsrs	r0, r3, #4
 8004274:	6d7b      	ldr	r3, [r7, #84]	@ 0x54
 8004276:	3b01      	subs	r3, #1
 8004278:	b2db      	uxtb	r3, r3
 800427a:	f003 030f 	and.w	r3, r3, #15
 800427e:	b2db      	uxtb	r3, r3
 8004280:	015b      	lsls	r3, r3, #5
 8004282:	b2d9      	uxtb	r1, r3
 8004284:	f107 0314 	add.w	r3, r7, #20
 8004288:	2220      	movs	r2, #32
 800428a:	f7fd fc17 	bl	8001abc <W25Q_FastRead>
        if (user_compare.cardID == code) {
 800428e:	69bb      	ldr	r3, [r7, #24]
 8004290:	687a      	ldr	r2, [r7, #4]
 8004292:	429a      	cmp	r2, r3
 8004294:	d10a      	bne.n	80042ac <binary_search+0x6c>
            return user_compare;
 8004296:	68fb      	ldr	r3, [r7, #12]
 8004298:	461d      	mov	r5, r3
 800429a:	f107 0414 	add.w	r4, r7, #20
 800429e:	cc0f      	ldmia	r4!, {r0, r1, r2, r3}
 80042a0:	c50f      	stmia	r5!, {r0, r1, r2, r3}
 80042a2:	e894 000f 	ldmia.w	r4, {r0, r1, r2, r3}
 80042a6:	e885 000f 	stmia.w	r5, {r0, r1, r2, r3}
 80042aa:	e018      	b.n	80042de <binary_search+0x9e>
        } else if (user_compare.cardID < code) {
 80042ac:	69bb      	ldr	r3, [r7, #24]
 80042ae:	687a      	ldr	r2, [r7, #4]
 80042b0:	429a      	cmp	r2, r3
 80042b2:	d903      	bls.n	80042bc <binary_search+0x7c>
            low = mid + 1;
 80042b4:	6d7b      	ldr	r3, [r7, #84]	@ 0x54
 80042b6:	3301      	adds	r3, #1
 80042b8:	65fb      	str	r3, [r7, #92]	@ 0x5c
 80042ba:	e002      	b.n	80042c2 <binary_search+0x82>
        } else {
            high = mid - 1;
 80042bc:	6d7b      	ldr	r3, [r7, #84]	@ 0x54
 80042be:	3b01      	subs	r3, #1
 80042c0:	65bb      	str	r3, [r7, #88]	@ 0x58
    while (low <= high) {
 80042c2:	6dfa      	ldr	r2, [r7, #92]	@ 0x5c
 80042c4:	6dbb      	ldr	r3, [r7, #88]	@ 0x58
 80042c6:	429a      	cmp	r2, r3
 80042c8:	d9cc      	bls.n	8004264 <binary_search+0x24>
        }
    }
    return user_0;
 80042ca:	68fb      	ldr	r3, [r7, #12]
 80042cc:	461d      	mov	r5, r3
 80042ce:	f107 0434 	add.w	r4, r7, #52	@ 0x34
 80042d2:	cc0f      	ldmia	r4!, {r0, r1, r2, r3}
 80042d4:	c50f      	stmia	r5!, {r0, r1, r2, r3}
 80042d6:	e894 000f 	ldmia.w	r4, {r0, r1, r2, r3}
 80042da:	e885 000f 	stmia.w	r5, {r0, r1, r2, r3}
}
 80042de:	68f8      	ldr	r0, [r7, #12]
 80042e0:	3760      	adds	r7, #96	@ 0x60
 80042e2:	46bd      	mov	sp, r7
 80042e4:	bdb0      	pop	{r4, r5, r7, pc}

080042e6 <new_card_update>:
void new_card_update(uint8_t *data, bool *input, uint32_t *input_timer)
{
 80042e6:	b590      	push	{r4, r7, lr}
 80042e8:	b087      	sub	sp, #28
 80042ea:	af00      	add	r7, sp, #0
 80042ec:	60f8      	str	r0, [r7, #12]
 80042ee:	60b9      	str	r1, [r7, #8]
 80042f0:	607a      	str	r2, [r7, #4]
	for (uint8_t i=0; i<8; i++)
 80042f2:	2300      	movs	r3, #0
 80042f4:	75fb      	strb	r3, [r7, #23]
 80042f6:	e02b      	b.n	8004350 <new_card_update+0x6a>
	{
		for (uint8_t j=0; j<8; j++)
 80042f8:	2300      	movs	r3, #0
 80042fa:	75bb      	strb	r3, [r7, #22]
 80042fc:	e022      	b.n	8004344 <new_card_update+0x5e>
		{
			if((data[i]>>j)&0x01)//2 + i
 80042fe:	7dfb      	ldrb	r3, [r7, #23]
 8004300:	68fa      	ldr	r2, [r7, #12]
 8004302:	4413      	add	r3, r2
 8004304:	781b      	ldrb	r3, [r3, #0]
 8004306:	461a      	mov	r2, r3
 8004308:	7dbb      	ldrb	r3, [r7, #22]
 800430a:	fa42 f303 	asr.w	r3, r2, r3
 800430e:	f003 0301 	and.w	r3, r3, #1
 8004312:	2b00      	cmp	r3, #0
 8004314:	d013      	beq.n	800433e <new_card_update+0x58>
			{
				input[i*8+j] = true;
 8004316:	7dfb      	ldrb	r3, [r7, #23]
 8004318:	00da      	lsls	r2, r3, #3
 800431a:	7dbb      	ldrb	r3, [r7, #22]
 800431c:	4413      	add	r3, r2
 800431e:	461a      	mov	r2, r3
 8004320:	68bb      	ldr	r3, [r7, #8]
 8004322:	4413      	add	r3, r2
 8004324:	2201      	movs	r2, #1
 8004326:	701a      	strb	r2, [r3, #0]
				input_timer[i*8+j] = HAL_GetTick();
 8004328:	7dfb      	ldrb	r3, [r7, #23]
 800432a:	00da      	lsls	r2, r3, #3
 800432c:	7dbb      	ldrb	r3, [r7, #22]
 800432e:	4413      	add	r3, r2
 8004330:	009b      	lsls	r3, r3, #2
 8004332:	687a      	ldr	r2, [r7, #4]
 8004334:	18d4      	adds	r4, r2, r3
 8004336:	f000 fd79 	bl	8004e2c <HAL_GetTick>
 800433a:	4603      	mov	r3, r0
 800433c:	6023      	str	r3, [r4, #0]
		for (uint8_t j=0; j<8; j++)
 800433e:	7dbb      	ldrb	r3, [r7, #22]
 8004340:	3301      	adds	r3, #1
 8004342:	75bb      	strb	r3, [r7, #22]
 8004344:	7dbb      	ldrb	r3, [r7, #22]
 8004346:	2b07      	cmp	r3, #7
 8004348:	d9d9      	bls.n	80042fe <new_card_update+0x18>
	for (uint8_t i=0; i<8; i++)
 800434a:	7dfb      	ldrb	r3, [r7, #23]
 800434c:	3301      	adds	r3, #1
 800434e:	75fb      	strb	r3, [r7, #23]
 8004350:	7dfb      	ldrb	r3, [r7, #23]
 8004352:	2b07      	cmp	r3, #7
 8004354:	d9d0      	bls.n	80042f8 <new_card_update+0x12>
			}
		}
	}
}
 8004356:	bf00      	nop
 8004358:	bf00      	nop
 800435a:	371c      	adds	r7, #28
 800435c:	46bd      	mov	sp, r7
 800435e:	bd90      	pop	{r4, r7, pc}

08004360 <shift_left_1bit>:
void shift_left_1bit( uint8_t input[8], uint8_t output[8])
{
 8004360:	b480      	push	{r7}
 8004362:	b087      	sub	sp, #28
 8004364:	af00      	add	r7, sp, #0
 8004366:	6078      	str	r0, [r7, #4]
 8004368:	6039      	str	r1, [r7, #0]
    uint8_t carry = 0;  // Khi to carry ban u
 800436a:	2300      	movs	r3, #0
 800436c:	75fb      	strb	r3, [r7, #23]
    for (int i = 0; i < 8; i++)
 800436e:	2300      	movs	r3, #0
 8004370:	613b      	str	r3, [r7, #16]
 8004372:	e01a      	b.n	80043aa <shift_left_1bit+0x4a>
    {
        // Ly bit MSB ca byte hin ti trc khi dch
        uint8_t new_carry = (input[i] >> 7) & 0x01;
 8004374:	693b      	ldr	r3, [r7, #16]
 8004376:	687a      	ldr	r2, [r7, #4]
 8004378:	4413      	add	r3, r2
 800437a:	781b      	ldrb	r3, [r3, #0]
 800437c:	09db      	lsrs	r3, r3, #7
 800437e:	73fb      	strb	r3, [r7, #15]
        // Dch tri 1 bit v kt hp vi carry t byte trc
        output[i] = (input[i] << 1) | carry;
 8004380:	693b      	ldr	r3, [r7, #16]
 8004382:	687a      	ldr	r2, [r7, #4]
 8004384:	4413      	add	r3, r2
 8004386:	781b      	ldrb	r3, [r3, #0]
 8004388:	b25b      	sxtb	r3, r3
 800438a:	005b      	lsls	r3, r3, #1
 800438c:	b25a      	sxtb	r2, r3
 800438e:	f997 3017 	ldrsb.w	r3, [r7, #23]
 8004392:	4313      	orrs	r3, r2
 8004394:	b259      	sxtb	r1, r3
 8004396:	693b      	ldr	r3, [r7, #16]
 8004398:	683a      	ldr	r2, [r7, #0]
 800439a:	4413      	add	r3, r2
 800439c:	b2ca      	uxtb	r2, r1
 800439e:	701a      	strb	r2, [r3, #0]
        // Cp nht carry cho byte tip theo
        carry = new_carry;
 80043a0:	7bfb      	ldrb	r3, [r7, #15]
 80043a2:	75fb      	strb	r3, [r7, #23]
    for (int i = 0; i < 8; i++)
 80043a4:	693b      	ldr	r3, [r7, #16]
 80043a6:	3301      	adds	r3, #1
 80043a8:	613b      	str	r3, [r7, #16]
 80043aa:	693b      	ldr	r3, [r7, #16]
 80043ac:	2b07      	cmp	r3, #7
 80043ae:	dde1      	ble.n	8004374 <shift_left_1bit+0x14>
    }
}
 80043b0:	bf00      	nop
 80043b2:	bf00      	nop
 80043b4:	371c      	adds	r7, #28
 80043b6:	46bd      	mov	sp, r7
 80043b8:	bc80      	pop	{r7}
 80043ba:	4770      	bx	lr

080043bc <calculate_data_can>:
void calculate_data_can(bool *input, uint32_t *input_timer, uint8_t *data_can, uint8_t *lock_df, uint8_t delay_time, uint8_t *counter_start)
{
 80043bc:	b580      	push	{r7, lr}
 80043be:	b088      	sub	sp, #32
 80043c0:	af00      	add	r7, sp, #0
 80043c2:	60f8      	str	r0, [r7, #12]
 80043c4:	60b9      	str	r1, [r7, #8]
 80043c6:	607a      	str	r2, [r7, #4]
 80043c8:	603b      	str	r3, [r7, #0]
	uint8_t data[8] = {0};
 80043ca:	f107 0310 	add.w	r3, r7, #16
 80043ce:	2200      	movs	r2, #0
 80043d0:	601a      	str	r2, [r3, #0]
 80043d2:	605a      	str	r2, [r3, #4]
	if (*counter_start < delay_time)
 80043d4:	6afb      	ldr	r3, [r7, #44]	@ 0x2c
 80043d6:	781b      	ldrb	r3, [r3, #0]
 80043d8:	f897 2028 	ldrb.w	r2, [r7, #40]	@ 0x28
 80043dc:	429a      	cmp	r2, r3
 80043de:	d948      	bls.n	8004472 <calculate_data_can+0xb6>
	{
		for (uint8_t i=0; i<8; i++)
 80043e0:	2300      	movs	r3, #0
 80043e2:	77fb      	strb	r3, [r7, #31]
 80043e4:	e040      	b.n	8004468 <calculate_data_can+0xac>
		{
			for (uint8_t j=0; j<8; j++)
 80043e6:	2300      	movs	r3, #0
 80043e8:	77bb      	strb	r3, [r7, #30]
 80043ea:	e031      	b.n	8004450 <calculate_data_can+0x94>
			{
				if (input_timer[i*8+j] == 0)
 80043ec:	7ffb      	ldrb	r3, [r7, #31]
 80043ee:	00da      	lsls	r2, r3, #3
 80043f0:	7fbb      	ldrb	r3, [r7, #30]
 80043f2:	4413      	add	r3, r2
 80043f4:	009b      	lsls	r3, r3, #2
 80043f6:	68ba      	ldr	r2, [r7, #8]
 80043f8:	4413      	add	r3, r2
 80043fa:	681b      	ldr	r3, [r3, #0]
 80043fc:	2b00      	cmp	r3, #0
 80043fe:	d11f      	bne.n	8004440 <calculate_data_can+0x84>
				{
					if ((lock_df[i]>>j)&0x01)
 8004400:	7ffb      	ldrb	r3, [r7, #31]
 8004402:	683a      	ldr	r2, [r7, #0]
 8004404:	4413      	add	r3, r2
 8004406:	781b      	ldrb	r3, [r3, #0]
 8004408:	461a      	mov	r2, r3
 800440a:	7fbb      	ldrb	r3, [r7, #30]
 800440c:	fa42 f303 	asr.w	r3, r2, r3
 8004410:	f003 0301 	and.w	r3, r3, #1
 8004414:	2b00      	cmp	r3, #0
 8004416:	d009      	beq.n	800442c <calculate_data_can+0x70>
					{
						input[i*8+j] = true;
 8004418:	7ffb      	ldrb	r3, [r7, #31]
 800441a:	00da      	lsls	r2, r3, #3
 800441c:	7fbb      	ldrb	r3, [r7, #30]
 800441e:	4413      	add	r3, r2
 8004420:	461a      	mov	r2, r3
 8004422:	68fb      	ldr	r3, [r7, #12]
 8004424:	4413      	add	r3, r2
 8004426:	2201      	movs	r2, #1
 8004428:	701a      	strb	r2, [r3, #0]
 800442a:	e00e      	b.n	800444a <calculate_data_can+0x8e>
					} else
					{
						input[i*8+j] = false;
 800442c:	7ffb      	ldrb	r3, [r7, #31]
 800442e:	00da      	lsls	r2, r3, #3
 8004430:	7fbb      	ldrb	r3, [r7, #30]
 8004432:	4413      	add	r3, r2
 8004434:	461a      	mov	r2, r3
 8004436:	68fb      	ldr	r3, [r7, #12]
 8004438:	4413      	add	r3, r2
 800443a:	2200      	movs	r2, #0
 800443c:	701a      	strb	r2, [r3, #0]
 800443e:	e004      	b.n	800444a <calculate_data_can+0x8e>
					}
				} else
				{
					*counter_start = delay_time;
 8004440:	6afb      	ldr	r3, [r7, #44]	@ 0x2c
 8004442:	f897 2028 	ldrb.w	r2, [r7, #40]	@ 0x28
 8004446:	701a      	strb	r2, [r3, #0]
					break;
 8004448:	e005      	b.n	8004456 <calculate_data_can+0x9a>
			for (uint8_t j=0; j<8; j++)
 800444a:	7fbb      	ldrb	r3, [r7, #30]
 800444c:	3301      	adds	r3, #1
 800444e:	77bb      	strb	r3, [r7, #30]
 8004450:	7fbb      	ldrb	r3, [r7, #30]
 8004452:	2b07      	cmp	r3, #7
 8004454:	d9ca      	bls.n	80043ec <calculate_data_can+0x30>
				}
			}
			if (*counter_start == delay_time) break;
 8004456:	6afb      	ldr	r3, [r7, #44]	@ 0x2c
 8004458:	781b      	ldrb	r3, [r3, #0]
 800445a:	f897 2028 	ldrb.w	r2, [r7, #40]	@ 0x28
 800445e:	429a      	cmp	r2, r3
 8004460:	d006      	beq.n	8004470 <calculate_data_can+0xb4>
		for (uint8_t i=0; i<8; i++)
 8004462:	7ffb      	ldrb	r3, [r7, #31]
 8004464:	3301      	adds	r3, #1
 8004466:	77fb      	strb	r3, [r7, #31]
 8004468:	7ffb      	ldrb	r3, [r7, #31]
 800446a:	2b07      	cmp	r3, #7
 800446c:	d9bb      	bls.n	80043e6 <calculate_data_can+0x2a>
 800446e:	e000      	b.n	8004472 <calculate_data_can+0xb6>
			if (*counter_start == delay_time) break;
 8004470:	bf00      	nop
		}
	}
	if (*counter_start >= delay_time)
 8004472:	6afb      	ldr	r3, [r7, #44]	@ 0x2c
 8004474:	781b      	ldrb	r3, [r3, #0]
 8004476:	f897 2028 	ldrb.w	r2, [r7, #40]	@ 0x28
 800447a:	429a      	cmp	r2, r3
 800447c:	d848      	bhi.n	8004510 <calculate_data_can+0x154>
	{
		for (uint8_t i=0; i<8; i++)
 800447e:	2300      	movs	r3, #0
 8004480:	777b      	strb	r3, [r7, #29]
 8004482:	e042      	b.n	800450a <calculate_data_can+0x14e>
		{
			for (uint8_t j=0; j<8; j++)
 8004484:	2300      	movs	r3, #0
 8004486:	773b      	strb	r3, [r7, #28]
 8004488:	e039      	b.n	80044fe <calculate_data_can+0x142>
			{
				if (((lock_df[i]>>j)&0x01) && (abs(HAL_GetTick() - input_timer[i*8+j]) > delay_time*1000))
 800448a:	7f7b      	ldrb	r3, [r7, #29]
 800448c:	683a      	ldr	r2, [r7, #0]
 800448e:	4413      	add	r3, r2
 8004490:	781b      	ldrb	r3, [r3, #0]
 8004492:	461a      	mov	r2, r3
 8004494:	7f3b      	ldrb	r3, [r7, #28]
 8004496:	fa42 f303 	asr.w	r3, r2, r3
 800449a:	f003 0301 	and.w	r3, r3, #1
 800449e:	2b00      	cmp	r3, #0
 80044a0:	d021      	beq.n	80044e6 <calculate_data_can+0x12a>
 80044a2:	f000 fcc3 	bl	8004e2c <HAL_GetTick>
 80044a6:	4601      	mov	r1, r0
 80044a8:	7f7b      	ldrb	r3, [r7, #29]
 80044aa:	00da      	lsls	r2, r3, #3
 80044ac:	7f3b      	ldrb	r3, [r7, #28]
 80044ae:	4413      	add	r3, r2
 80044b0:	009b      	lsls	r3, r3, #2
 80044b2:	68ba      	ldr	r2, [r7, #8]
 80044b4:	4413      	add	r3, r2
 80044b6:	681b      	ldr	r3, [r3, #0]
 80044b8:	1acb      	subs	r3, r1, r3
 80044ba:	ea83 72e3 	eor.w	r2, r3, r3, asr #31
 80044be:	eba2 72e3 	sub.w	r2, r2, r3, asr #31
 80044c2:	f897 3028 	ldrb.w	r3, [r7, #40]	@ 0x28
 80044c6:	f44f 717a 	mov.w	r1, #1000	@ 0x3e8
 80044ca:	fb01 f303 	mul.w	r3, r1, r3
 80044ce:	429a      	cmp	r2, r3
 80044d0:	dd09      	ble.n	80044e6 <calculate_data_can+0x12a>
				{
					input[i*8+j] = true;
 80044d2:	7f7b      	ldrb	r3, [r7, #29]
 80044d4:	00da      	lsls	r2, r3, #3
 80044d6:	7f3b      	ldrb	r3, [r7, #28]
 80044d8:	4413      	add	r3, r2
 80044da:	461a      	mov	r2, r3
 80044dc:	68fb      	ldr	r3, [r7, #12]
 80044de:	4413      	add	r3, r2
 80044e0:	2201      	movs	r2, #1
 80044e2:	701a      	strb	r2, [r3, #0]
 80044e4:	e008      	b.n	80044f8 <calculate_data_can+0x13c>
				} else
				{
					input[i*8+j] = false;
 80044e6:	7f7b      	ldrb	r3, [r7, #29]
 80044e8:	00da      	lsls	r2, r3, #3
 80044ea:	7f3b      	ldrb	r3, [r7, #28]
 80044ec:	4413      	add	r3, r2
 80044ee:	461a      	mov	r2, r3
 80044f0:	68fb      	ldr	r3, [r7, #12]
 80044f2:	4413      	add	r3, r2
 80044f4:	2200      	movs	r2, #0
 80044f6:	701a      	strb	r2, [r3, #0]
			for (uint8_t j=0; j<8; j++)
 80044f8:	7f3b      	ldrb	r3, [r7, #28]
 80044fa:	3301      	adds	r3, #1
 80044fc:	773b      	strb	r3, [r7, #28]
 80044fe:	7f3b      	ldrb	r3, [r7, #28]
 8004500:	2b07      	cmp	r3, #7
 8004502:	d9c2      	bls.n	800448a <calculate_data_can+0xce>
		for (uint8_t i=0; i<8; i++)
 8004504:	7f7b      	ldrb	r3, [r7, #29]
 8004506:	3301      	adds	r3, #1
 8004508:	777b      	strb	r3, [r7, #29]
 800450a:	7f7b      	ldrb	r3, [r7, #29]
 800450c:	2b07      	cmp	r3, #7
 800450e:	d9b9      	bls.n	8004484 <calculate_data_can+0xc8>
				}
			}
		}
	}
	for (uint8_t i=0; i<8; i++)
 8004510:	2300      	movs	r3, #0
 8004512:	76fb      	strb	r3, [r7, #27]
 8004514:	e026      	b.n	8004564 <calculate_data_can+0x1a8>
	{
		for (uint8_t j=0; j<8; j++)
 8004516:	2300      	movs	r3, #0
 8004518:	76bb      	strb	r3, [r7, #26]
 800451a:	e01d      	b.n	8004558 <calculate_data_can+0x19c>
		{
			data[i] |= input[i*8+j]<<j;
 800451c:	7efb      	ldrb	r3, [r7, #27]
 800451e:	3320      	adds	r3, #32
 8004520:	443b      	add	r3, r7
 8004522:	f813 3c10 	ldrb.w	r3, [r3, #-16]
 8004526:	b25a      	sxtb	r2, r3
 8004528:	7efb      	ldrb	r3, [r7, #27]
 800452a:	00d9      	lsls	r1, r3, #3
 800452c:	7ebb      	ldrb	r3, [r7, #26]
 800452e:	440b      	add	r3, r1
 8004530:	4619      	mov	r1, r3
 8004532:	68fb      	ldr	r3, [r7, #12]
 8004534:	440b      	add	r3, r1
 8004536:	781b      	ldrb	r3, [r3, #0]
 8004538:	4619      	mov	r1, r3
 800453a:	7ebb      	ldrb	r3, [r7, #26]
 800453c:	fa01 f303 	lsl.w	r3, r1, r3
 8004540:	b25b      	sxtb	r3, r3
 8004542:	4313      	orrs	r3, r2
 8004544:	b25a      	sxtb	r2, r3
 8004546:	7efb      	ldrb	r3, [r7, #27]
 8004548:	b2d2      	uxtb	r2, r2
 800454a:	3320      	adds	r3, #32
 800454c:	443b      	add	r3, r7
 800454e:	f803 2c10 	strb.w	r2, [r3, #-16]
		for (uint8_t j=0; j<8; j++)
 8004552:	7ebb      	ldrb	r3, [r7, #26]
 8004554:	3301      	adds	r3, #1
 8004556:	76bb      	strb	r3, [r7, #26]
 8004558:	7ebb      	ldrb	r3, [r7, #26]
 800455a:	2b07      	cmp	r3, #7
 800455c:	d9de      	bls.n	800451c <calculate_data_can+0x160>
	for (uint8_t i=0; i<8; i++)
 800455e:	7efb      	ldrb	r3, [r7, #27]
 8004560:	3301      	adds	r3, #1
 8004562:	76fb      	strb	r3, [r7, #27]
 8004564:	7efb      	ldrb	r3, [r7, #27]
 8004566:	2b07      	cmp	r3, #7
 8004568:	d9d5      	bls.n	8004516 <calculate_data_can+0x15a>
		}
	}
	shift_left_1bit(data, data_can);
 800456a:	f107 0310 	add.w	r3, r7, #16
 800456e:	6879      	ldr	r1, [r7, #4]
 8004570:	4618      	mov	r0, r3
 8004572:	f7ff fef5 	bl	8004360 <shift_left_1bit>
}
 8004576:	bf00      	nop
 8004578:	3720      	adds	r7, #32
 800457a:	46bd      	mov	sp, r7
 800457c:	bd80      	pop	{r7, pc}
	...

08004580 <reconect_eth>:
uint8_t reconect_eth(uint8_t sn)
{
 8004580:	b580      	push	{r7, lr}
 8004582:	b084      	sub	sp, #16
 8004584:	af00      	add	r7, sp, #0
 8004586:	4603      	mov	r3, r0
 8004588:	71fb      	strb	r3, [r7, #7]
//	bool linkport = false;
	uint8_t Status_SN;
	Status_SN = getSn_SR(sn);
 800458a:	79fb      	ldrb	r3, [r7, #7]
 800458c:	009b      	lsls	r3, r3, #2
 800458e:	3301      	adds	r3, #1
 8004590:	00db      	lsls	r3, r3, #3
 8004592:	f503 7340 	add.w	r3, r3, #768	@ 0x300
 8004596:	4618      	mov	r0, r3
 8004598:	f7fb fde0 	bl	800015c <WIZCHIP_READ>
 800459c:	4603      	mov	r3, r0
 800459e:	73fb      	strb	r3, [r7, #15]
	time_check = HAL_GetTick();
 80045a0:	f000 fc44 	bl	8004e2c <HAL_GetTick>
 80045a4:	4603      	mov	r3, r0
 80045a6:	4a33      	ldr	r2, [pc, #204]	@ (8004674 <reconect_eth+0xf4>)
 80045a8:	6013      	str	r3, [r2, #0]
	if (Status_SN == SOCK_CLOSE_WAIT || wizphy_getphylink() == PHY_LINK_OFF)
 80045aa:	7bfb      	ldrb	r3, [r7, #15]
 80045ac:	2b1c      	cmp	r3, #28
 80045ae:	d004      	beq.n	80045ba <reconect_eth+0x3a>
 80045b0:	f7fd f86b 	bl	800168a <wizphy_getphylink>
 80045b4:	4603      	mov	r3, r0
 80045b6:	2b00      	cmp	r3, #0
 80045b8:	d110      	bne.n	80045dc <reconect_eth+0x5c>
	{
		HAL_GPIO_WritePin(LED_STT_ETH_GPIO_Port, LED_STT_ETH_Pin, GPIO_PIN_RESET);
 80045ba:	2200      	movs	r2, #0
 80045bc:	f44f 4180 	mov.w	r1, #16384	@ 0x4000
 80045c0:	482d      	ldr	r0, [pc, #180]	@ (8004678 <reconect_eth+0xf8>)
 80045c2:	f002 fa9c 	bl	8006afe <HAL_GPIO_WritePin>
		close(sn);
 80045c6:	79fb      	ldrb	r3, [r7, #7]
 80045c8:	4618      	mov	r0, r3
 80045ca:	f7fc fa2b 	bl	8000a24 <close>
		time_check -= 5000;
 80045ce:	4b29      	ldr	r3, [pc, #164]	@ (8004674 <reconect_eth+0xf4>)
 80045d0:	681b      	ldr	r3, [r3, #0]
 80045d2:	f5a3 539c 	sub.w	r3, r3, #4992	@ 0x1380
 80045d6:	3b08      	subs	r3, #8
 80045d8:	4a26      	ldr	r2, [pc, #152]	@ (8004674 <reconect_eth+0xf4>)
 80045da:	6013      	str	r3, [r2, #0]
	}
	if (wizphy_getphylink() == PHY_LINK_ON && Status_SN == SOCK_CLOSED)
 80045dc:	f7fd f855 	bl	800168a <wizphy_getphylink>
 80045e0:	4603      	mov	r3, r0
 80045e2:	2b01      	cmp	r3, #1
 80045e4:	d122      	bne.n	800462c <reconect_eth+0xac>
 80045e6:	7bfb      	ldrb	r3, [r7, #15]
 80045e8:	2b00      	cmp	r3, #0
 80045ea:	d11f      	bne.n	800462c <reconect_eth+0xac>
	{
		HAL_GPIO_WritePin(LED_STT_ETH_GPIO_Port, LED_STT_ETH_Pin, GPIO_PIN_RESET);
 80045ec:	2200      	movs	r2, #0
 80045ee:	f44f 4180 	mov.w	r1, #16384	@ 0x4000
 80045f2:	4821      	ldr	r0, [pc, #132]	@ (8004678 <reconect_eth+0xf8>)
 80045f4:	f002 fa83 	bl	8006afe <HAL_GPIO_WritePin>
		socket(sn, Sn_MR_TCP, port_client, SF_TCP_NODELAY);
 80045f8:	4b20      	ldr	r3, [pc, #128]	@ (800467c <reconect_eth+0xfc>)
 80045fa:	881a      	ldrh	r2, [r3, #0]
 80045fc:	79f8      	ldrb	r0, [r7, #7]
 80045fe:	2320      	movs	r3, #32
 8004600:	2101      	movs	r1, #1
 8004602:	f7fc f8fb 	bl	80007fc <socket>
		connect(sn, server_ip, port_server);
 8004606:	4b1e      	ldr	r3, [pc, #120]	@ (8004680 <reconect_eth+0x100>)
 8004608:	881a      	ldrh	r2, [r3, #0]
 800460a:	79fb      	ldrb	r3, [r7, #7]
 800460c:	491d      	ldr	r1, [pc, #116]	@ (8004684 <reconect_eth+0x104>)
 800460e:	4618      	mov	r0, r3
 8004610:	f7fc fa82 	bl	8000b18 <connect>
		counter_reset++;
 8004614:	4b1c      	ldr	r3, [pc, #112]	@ (8004688 <reconect_eth+0x108>)
 8004616:	681b      	ldr	r3, [r3, #0]
 8004618:	3301      	adds	r3, #1
 800461a:	4a1b      	ldr	r2, [pc, #108]	@ (8004688 <reconect_eth+0x108>)
 800461c:	6013      	str	r3, [r2, #0]
		time_check -= 5000;
 800461e:	4b15      	ldr	r3, [pc, #84]	@ (8004674 <reconect_eth+0xf4>)
 8004620:	681b      	ldr	r3, [r3, #0]
 8004622:	f5a3 539c 	sub.w	r3, r3, #4992	@ 0x1380
 8004626:	3b08      	subs	r3, #8
 8004628:	4a12      	ldr	r2, [pc, #72]	@ (8004674 <reconect_eth+0xf4>)
 800462a:	6013      	str	r3, [r2, #0]
	}
	Status_SN = getSn_SR(sn);
 800462c:	79fb      	ldrb	r3, [r7, #7]
 800462e:	009b      	lsls	r3, r3, #2
 8004630:	3301      	adds	r3, #1
 8004632:	00db      	lsls	r3, r3, #3
 8004634:	f503 7340 	add.w	r3, r3, #768	@ 0x300
 8004638:	4618      	mov	r0, r3
 800463a:	f7fb fd8f 	bl	800015c <WIZCHIP_READ>
 800463e:	4603      	mov	r3, r0
 8004640:	73fb      	strb	r3, [r7, #15]
	if (Status_SN == SOCK_ESTABLISHED)
 8004642:	7bfb      	ldrb	r3, [r7, #15]
 8004644:	2b17      	cmp	r3, #23
 8004646:	d105      	bne.n	8004654 <reconect_eth+0xd4>
	{
		HAL_GPIO_WritePin(LED_STT_ETH_GPIO_Port, LED_STT_ETH_Pin, GPIO_PIN_SET);
 8004648:	2201      	movs	r2, #1
 800464a:	f44f 4180 	mov.w	r1, #16384	@ 0x4000
 800464e:	480a      	ldr	r0, [pc, #40]	@ (8004678 <reconect_eth+0xf8>)
 8004650:	f002 fa55 	bl	8006afe <HAL_GPIO_WritePin>
	}
	Status_SN = getSn_SR(sn);
 8004654:	79fb      	ldrb	r3, [r7, #7]
 8004656:	009b      	lsls	r3, r3, #2
 8004658:	3301      	adds	r3, #1
 800465a:	00db      	lsls	r3, r3, #3
 800465c:	f503 7340 	add.w	r3, r3, #768	@ 0x300
 8004660:	4618      	mov	r0, r3
 8004662:	f7fb fd7b 	bl	800015c <WIZCHIP_READ>
 8004666:	4603      	mov	r3, r0
 8004668:	73fb      	strb	r3, [r7, #15]
	return Status_SN;
 800466a:	7bfb      	ldrb	r3, [r7, #15]
}
 800466c:	4618      	mov	r0, r3
 800466e:	3710      	adds	r7, #16
 8004670:	46bd      	mov	sp, r7
 8004672:	bd80      	pop	{r7, pc}
 8004674:	200006b0 	.word	0x200006b0
 8004678:	40011000 	.word	0x40011000
 800467c:	20000584 	.word	0x20000584
 8004680:	20000582 	.word	0x20000582
 8004684:	2000050c 	.word	0x2000050c
 8004688:	200006cc 	.word	0x200006cc

0800468c <Set_speed_can>:

void Set_speed_can(uint8_t speed)
{
 800468c:	b580      	push	{r7, lr}
 800468e:	b08c      	sub	sp, #48	@ 0x30
 8004690:	af00      	add	r7, sp, #0
 8004692:	4603      	mov	r3, r0
 8004694:	71fb      	strb	r3, [r7, #7]
	if (speed == 0)// 100kps
 8004696:	79fb      	ldrb	r3, [r7, #7]
 8004698:	2b00      	cmp	r3, #0
 800469a:	d10b      	bne.n	80046b4 <Set_speed_can+0x28>
	{
		hcan.Init.Prescaler = 30;
 800469c:	4b2c      	ldr	r3, [pc, #176]	@ (8004750 <Set_speed_can+0xc4>)
 800469e:	221e      	movs	r2, #30
 80046a0:	605a      	str	r2, [r3, #4]
		hcan.Init.TimeSeg1 = CAN_BS1_8TQ;
 80046a2:	4b2b      	ldr	r3, [pc, #172]	@ (8004750 <Set_speed_can+0xc4>)
 80046a4:	f44f 22e0 	mov.w	r2, #458752	@ 0x70000
 80046a8:	611a      	str	r2, [r3, #16]
		hcan.Init.TimeSeg2 = CAN_BS2_3TQ;
 80046aa:	4b29      	ldr	r3, [pc, #164]	@ (8004750 <Set_speed_can+0xc4>)
 80046ac:	f44f 1200 	mov.w	r2, #2097152	@ 0x200000
 80046b0:	615a      	str	r2, [r3, #20]
 80046b2:	e01c      	b.n	80046ee <Set_speed_can+0x62>
	} else if (speed == 1)// 50kps
 80046b4:	79fb      	ldrb	r3, [r7, #7]
 80046b6:	2b01      	cmp	r3, #1
 80046b8:	d10b      	bne.n	80046d2 <Set_speed_can+0x46>
	{
		hcan.Init.Prescaler = 40;
 80046ba:	4b25      	ldr	r3, [pc, #148]	@ (8004750 <Set_speed_can+0xc4>)
 80046bc:	2228      	movs	r2, #40	@ 0x28
 80046be:	605a      	str	r2, [r3, #4]
		hcan.Init.TimeSeg1 = CAN_BS1_12TQ;
 80046c0:	4b23      	ldr	r3, [pc, #140]	@ (8004750 <Set_speed_can+0xc4>)
 80046c2:	f44f 2230 	mov.w	r2, #720896	@ 0xb0000
 80046c6:	611a      	str	r2, [r3, #16]
		hcan.Init.TimeSeg2 = CAN_BS2_5TQ;
 80046c8:	4b21      	ldr	r3, [pc, #132]	@ (8004750 <Set_speed_can+0xc4>)
 80046ca:	f44f 0280 	mov.w	r2, #4194304	@ 0x400000
 80046ce:	615a      	str	r2, [r3, #20]
 80046d0:	e00d      	b.n	80046ee <Set_speed_can+0x62>
	} else if (speed == 2)// 25kps
 80046d2:	79fb      	ldrb	r3, [r7, #7]
 80046d4:	2b02      	cmp	r3, #2
 80046d6:	d10a      	bne.n	80046ee <Set_speed_can+0x62>
	{
		hcan.Init.Prescaler = 60;
 80046d8:	4b1d      	ldr	r3, [pc, #116]	@ (8004750 <Set_speed_can+0xc4>)
 80046da:	223c      	movs	r2, #60	@ 0x3c
 80046dc:	605a      	str	r2, [r3, #4]
		hcan.Init.TimeSeg1 = CAN_BS1_16TQ;
 80046de:	4b1c      	ldr	r3, [pc, #112]	@ (8004750 <Set_speed_can+0xc4>)
 80046e0:	f44f 2270 	mov.w	r2, #983040	@ 0xf0000
 80046e4:	611a      	str	r2, [r3, #16]
		hcan.Init.TimeSeg2 = CAN_BS2_7TQ;
 80046e6:	4b1a      	ldr	r3, [pc, #104]	@ (8004750 <Set_speed_can+0xc4>)
 80046e8:	f44f 02c0 	mov.w	r2, #6291456	@ 0x600000
 80046ec:	615a      	str	r2, [r3, #20]
	}
	hcan.Init.AutoRetransmission = ENABLE;
 80046ee:	4b18      	ldr	r3, [pc, #96]	@ (8004750 <Set_speed_can+0xc4>)
 80046f0:	2201      	movs	r2, #1
 80046f2:	76da      	strb	r2, [r3, #27]
	hcan.Init.SyncJumpWidth = CAN_SJW_3TQ;
 80046f4:	4b16      	ldr	r3, [pc, #88]	@ (8004750 <Set_speed_can+0xc4>)
 80046f6:	f04f 7200 	mov.w	r2, #33554432	@ 0x2000000
 80046fa:	60da      	str	r2, [r3, #12]
	HAL_CAN_Init(&hcan);
 80046fc:	4814      	ldr	r0, [pc, #80]	@ (8004750 <Set_speed_can+0xc4>)
 80046fe:	f000 fbe1 	bl	8004ec4 <HAL_CAN_Init>

	CAN_FilterTypeDef canfilterconfig;
	canfilterconfig.FilterActivation = CAN_FILTER_ENABLE;
 8004702:	2301      	movs	r3, #1
 8004704:	62bb      	str	r3, [r7, #40]	@ 0x28
	canfilterconfig.FilterBank = 0;
 8004706:	2300      	movs	r3, #0
 8004708:	61fb      	str	r3, [r7, #28]
	canfilterconfig.FilterFIFOAssignment = CAN_FILTER_FIFO0;
 800470a:	2300      	movs	r3, #0
 800470c:	61bb      	str	r3, [r7, #24]
	canfilterconfig.FilterIdHigh = 0x740<<5;
 800470e:	f44f 4368 	mov.w	r3, #59392	@ 0xe800
 8004712:	60bb      	str	r3, [r7, #8]
	canfilterconfig.FilterIdLow = 0;
 8004714:	2300      	movs	r3, #0
 8004716:	60fb      	str	r3, [r7, #12]
	canfilterconfig.FilterMaskIdHigh = 0xFFF<<5;
 8004718:	4b0e      	ldr	r3, [pc, #56]	@ (8004754 <Set_speed_can+0xc8>)
 800471a:	613b      	str	r3, [r7, #16]
	canfilterconfig.FilterMaskIdLow = 6;
 800471c:	2306      	movs	r3, #6
 800471e:	617b      	str	r3, [r7, #20]
	canfilterconfig.FilterMode = CAN_FILTERMODE_IDMASK;
 8004720:	2300      	movs	r3, #0
 8004722:	623b      	str	r3, [r7, #32]
	canfilterconfig.FilterScale = CAN_FILTERSCALE_32BIT;
 8004724:	2301      	movs	r3, #1
 8004726:	627b      	str	r3, [r7, #36]	@ 0x24
	canfilterconfig.SlaveStartFilterBank = 13;
 8004728:	230d      	movs	r3, #13
 800472a:	62fb      	str	r3, [r7, #44]	@ 0x2c
	HAL_CAN_ConfigFilter(&hcan, &canfilterconfig);
 800472c:	f107 0308 	add.w	r3, r7, #8
 8004730:	4619      	mov	r1, r3
 8004732:	4807      	ldr	r0, [pc, #28]	@ (8004750 <Set_speed_can+0xc4>)
 8004734:	f000 fcc1 	bl	80050ba <HAL_CAN_ConfigFilter>

	HAL_CAN_Start(&hcan);
 8004738:	4805      	ldr	r0, [pc, #20]	@ (8004750 <Set_speed_can+0xc4>)
 800473a:	f000 fd87 	bl	800524c <HAL_CAN_Start>
	HAL_CAN_ActivateNotification(&hcan, CAN_IT_RX_FIFO0_MSG_PENDING);
 800473e:	2102      	movs	r1, #2
 8004740:	4803      	ldr	r0, [pc, #12]	@ (8004750 <Set_speed_can+0xc4>)
 8004742:	f001 f82f 	bl	80057a4 <HAL_CAN_ActivateNotification>
}
 8004746:	bf00      	nop
 8004748:	3730      	adds	r7, #48	@ 0x30
 800474a:	46bd      	mov	sp, r7
 800474c:	bd80      	pop	{r7, pc}
 800474e:	bf00      	nop
 8004750:	2000009c 	.word	0x2000009c
 8004754:	0001ffe0 	.word	0x0001ffe0

08004758 <is_leap_year>:


// Hm kim tra nm nhun
static uint8_t is_leap_year(uint16_t year)
{
 8004758:	b480      	push	{r7}
 800475a:	b083      	sub	sp, #12
 800475c:	af00      	add	r7, sp, #0
 800475e:	4603      	mov	r3, r0
 8004760:	80fb      	strh	r3, [r7, #6]
    if (year % 400 == 0) {
 8004762:	88fb      	ldrh	r3, [r7, #6]
 8004764:	4a14      	ldr	r2, [pc, #80]	@ (80047b8 <is_leap_year+0x60>)
 8004766:	fba2 1203 	umull	r1, r2, r2, r3
 800476a:	09d2      	lsrs	r2, r2, #7
 800476c:	f44f 71c8 	mov.w	r1, #400	@ 0x190
 8004770:	fb01 f202 	mul.w	r2, r1, r2
 8004774:	1a9b      	subs	r3, r3, r2
 8004776:	b29b      	uxth	r3, r3
 8004778:	2b00      	cmp	r3, #0
 800477a:	d101      	bne.n	8004780 <is_leap_year+0x28>
        return 1;
 800477c:	2301      	movs	r3, #1
 800477e:	e016      	b.n	80047ae <is_leap_year+0x56>
    }
    if (year % 100 == 0) {
 8004780:	88fb      	ldrh	r3, [r7, #6]
 8004782:	4a0d      	ldr	r2, [pc, #52]	@ (80047b8 <is_leap_year+0x60>)
 8004784:	fba2 1203 	umull	r1, r2, r2, r3
 8004788:	0952      	lsrs	r2, r2, #5
 800478a:	2164      	movs	r1, #100	@ 0x64
 800478c:	fb01 f202 	mul.w	r2, r1, r2
 8004790:	1a9b      	subs	r3, r3, r2
 8004792:	b29b      	uxth	r3, r3
 8004794:	2b00      	cmp	r3, #0
 8004796:	d101      	bne.n	800479c <is_leap_year+0x44>
        return 0;
 8004798:	2300      	movs	r3, #0
 800479a:	e008      	b.n	80047ae <is_leap_year+0x56>
    }
    if (year % 4 == 0) {
 800479c:	88fb      	ldrh	r3, [r7, #6]
 800479e:	f003 0303 	and.w	r3, r3, #3
 80047a2:	b29b      	uxth	r3, r3
 80047a4:	2b00      	cmp	r3, #0
 80047a6:	d101      	bne.n	80047ac <is_leap_year+0x54>
        return 1;
 80047a8:	2301      	movs	r3, #1
 80047aa:	e000      	b.n	80047ae <is_leap_year+0x56>
    }
    return 0;
 80047ac:	2300      	movs	r3, #0
}
 80047ae:	4618      	mov	r0, r3
 80047b0:	370c      	adds	r7, #12
 80047b2:	46bd      	mov	sp, r7
 80047b4:	bc80      	pop	{r7}
 80047b6:	4770      	bx	lr
 80047b8:	51eb851f 	.word	0x51eb851f

080047bc <mktime>:

// Hm ty chnh tng t mktime
uint32_t mktime(uint16_t year, uint8_t month, uint8_t date, uint8_t hour, uint8_t minute)
{
 80047bc:	b590      	push	{r4, r7, lr}
 80047be:	b085      	sub	sp, #20
 80047c0:	af00      	add	r7, sp, #0
 80047c2:	4604      	mov	r4, r0
 80047c4:	4608      	mov	r0, r1
 80047c6:	4611      	mov	r1, r2
 80047c8:	461a      	mov	r2, r3
 80047ca:	4623      	mov	r3, r4
 80047cc:	80fb      	strh	r3, [r7, #6]
 80047ce:	4603      	mov	r3, r0
 80047d0:	717b      	strb	r3, [r7, #5]
 80047d2:	460b      	mov	r3, r1
 80047d4:	713b      	strb	r3, [r7, #4]
 80047d6:	4613      	mov	r3, r2
 80047d8:	70fb      	strb	r3, [r7, #3]
	uint32_t time = 0;
 80047da:	2300      	movs	r3, #0
 80047dc:	60fb      	str	r3, [r7, #12]
	uint32_t i = 0;
 80047de:	2300      	movs	r3, #0
 80047e0:	60bb      	str	r3, [r7, #8]

    // 1. Cng dn s giy t cc nm  qua
    // Gi s epoch l 1/1/2000
    for (i = EPOCH_YEAR; i < (year - EPOCH_YEAR); i++) {
 80047e2:	f240 73e4 	movw	r3, #2020	@ 0x7e4
 80047e6:	60bb      	str	r3, [r7, #8]
 80047e8:	e012      	b.n	8004810 <mktime+0x54>
        time += (365 + is_leap_year(i)) * 24 * 60;
 80047ea:	68bb      	ldr	r3, [r7, #8]
 80047ec:	b29b      	uxth	r3, r3
 80047ee:	4618      	mov	r0, r3
 80047f0:	f7ff ffb2 	bl	8004758 <is_leap_year>
 80047f4:	4603      	mov	r3, r0
 80047f6:	f203 136d 	addw	r3, r3, #365	@ 0x16d
 80047fa:	f44f 62b4 	mov.w	r2, #1440	@ 0x5a0
 80047fe:	fb02 f303 	mul.w	r3, r2, r3
 8004802:	461a      	mov	r2, r3
 8004804:	68fb      	ldr	r3, [r7, #12]
 8004806:	4413      	add	r3, r2
 8004808:	60fb      	str	r3, [r7, #12]
    for (i = EPOCH_YEAR; i < (year - EPOCH_YEAR); i++) {
 800480a:	68bb      	ldr	r3, [r7, #8]
 800480c:	3301      	adds	r3, #1
 800480e:	60bb      	str	r3, [r7, #8]
 8004810:	88fb      	ldrh	r3, [r7, #6]
 8004812:	f2a3 73e4 	subw	r3, r3, #2020	@ 0x7e4
 8004816:	461a      	mov	r2, r3
 8004818:	68bb      	ldr	r3, [r7, #8]
 800481a:	4293      	cmp	r3, r2
 800481c:	d3e5      	bcc.n	80047ea <mktime+0x2e>
    }

    // 2. Cng dn s giy t cc thng  qua trong nm hin ti
    for (i = 0; i < month; i++) {
 800481e:	2300      	movs	r3, #0
 8004820:	60bb      	str	r3, [r7, #8]
 8004822:	e01e      	b.n	8004862 <mktime+0xa6>
        time += days_in_month[i] * 24 * 60;
 8004824:	4a1f      	ldr	r2, [pc, #124]	@ (80048a4 <mktime+0xe8>)
 8004826:	68bb      	ldr	r3, [r7, #8]
 8004828:	f852 3023 	ldr.w	r3, [r2, r3, lsl #2]
 800482c:	f44f 62b4 	mov.w	r2, #1440	@ 0x5a0
 8004830:	fb02 f303 	mul.w	r3, r2, r3
 8004834:	461a      	mov	r2, r3
 8004836:	68fb      	ldr	r3, [r7, #12]
 8004838:	4413      	add	r3, r2
 800483a:	60fb      	str	r3, [r7, #12]
        // Cng thm mt ngy nu l thng 2 ca nm nhun
        if (i == 1 && is_leap_year(year)) {
 800483c:	68bb      	ldr	r3, [r7, #8]
 800483e:	2b01      	cmp	r3, #1
 8004840:	d10c      	bne.n	800485c <mktime+0xa0>
 8004842:	88fb      	ldrh	r3, [r7, #6]
 8004844:	4618      	mov	r0, r3
 8004846:	f7ff ff87 	bl	8004758 <is_leap_year>
 800484a:	4603      	mov	r3, r0
 800484c:	2b00      	cmp	r3, #0
 800484e:	d005      	beq.n	800485c <mktime+0xa0>
        	time += 24 * 3600;
 8004850:	68fb      	ldr	r3, [r7, #12]
 8004852:	f503 33a8 	add.w	r3, r3, #86016	@ 0x15000
 8004856:	f503 73c0 	add.w	r3, r3, #384	@ 0x180
 800485a:	60fb      	str	r3, [r7, #12]
    for (i = 0; i < month; i++) {
 800485c:	68bb      	ldr	r3, [r7, #8]
 800485e:	3301      	adds	r3, #1
 8004860:	60bb      	str	r3, [r7, #8]
 8004862:	797b      	ldrb	r3, [r7, #5]
 8004864:	68ba      	ldr	r2, [r7, #8]
 8004866:	429a      	cmp	r2, r3
 8004868:	d3dc      	bcc.n	8004824 <mktime+0x68>
        }
    }

    // 3. Cng dn s giy t cc ngy, gi, pht v giy
    time += (uint32_t)(date - 1) * 24 * 60;
 800486a:	793b      	ldrb	r3, [r7, #4]
 800486c:	3b01      	subs	r3, #1
 800486e:	461a      	mov	r2, r3
 8004870:	f44f 63b4 	mov.w	r3, #1440	@ 0x5a0
 8004874:	fb02 f303 	mul.w	r3, r2, r3
 8004878:	68fa      	ldr	r2, [r7, #12]
 800487a:	4413      	add	r3, r2
 800487c:	60fb      	str	r3, [r7, #12]
    time += (uint32_t)hour * 60;
 800487e:	78fa      	ldrb	r2, [r7, #3]
 8004880:	4613      	mov	r3, r2
 8004882:	011b      	lsls	r3, r3, #4
 8004884:	1a9b      	subs	r3, r3, r2
 8004886:	009b      	lsls	r3, r3, #2
 8004888:	461a      	mov	r2, r3
 800488a:	68fb      	ldr	r3, [r7, #12]
 800488c:	4413      	add	r3, r2
 800488e:	60fb      	str	r3, [r7, #12]
    time += (uint32_t)minute;
 8004890:	f897 3020 	ldrb.w	r3, [r7, #32]
 8004894:	68fa      	ldr	r2, [r7, #12]
 8004896:	4413      	add	r3, r2
 8004898:	60fb      	str	r3, [r7, #12]

    return time;
 800489a:	68fb      	ldr	r3, [r7, #12]
}
 800489c:	4618      	mov	r0, r3
 800489e:	3714      	adds	r7, #20
 80048a0:	46bd      	mov	sp, r7
 80048a2:	bd90      	pop	{r4, r7, pc}
 80048a4:	080098b0 	.word	0x080098b0

080048a8 <Error_Handler>:
/**
  * @brief  This function is executed in case of error occurrence.
  * @retval None
  */
void Error_Handler(void)
{
 80048a8:	b480      	push	{r7}
 80048aa:	af00      	add	r7, sp, #0
  \details Disables IRQ interrupts by setting the I-bit in the CPSR.
           Can only be executed in Privileged modes.
 */
__STATIC_FORCEINLINE void __disable_irq(void)
{
  __ASM volatile ("cpsid i" : : : "memory");
 80048ac:	b672      	cpsid	i
}
 80048ae:	bf00      	nop
  /* USER CODE BEGIN Error_Handler_Debug */
  /* User can add his own implementation to report the HAL error return state */
  __disable_irq();
  while (1)
 80048b0:	bf00      	nop
 80048b2:	e7fd      	b.n	80048b0 <Error_Handler+0x8>

080048b4 <HAL_MspInit>:
 80048b4:	b480      	push	{r7}
 80048b6:	b085      	sub	sp, #20
 80048b8:	af00      	add	r7, sp, #0
 80048ba:	4b15      	ldr	r3, [pc, #84]	@ (8004910 <HAL_MspInit+0x5c>)
 80048bc:	699b      	ldr	r3, [r3, #24]
 80048be:	4a14      	ldr	r2, [pc, #80]	@ (8004910 <HAL_MspInit+0x5c>)
 80048c0:	f043 0301 	orr.w	r3, r3, #1
 80048c4:	6193      	str	r3, [r2, #24]
 80048c6:	4b12      	ldr	r3, [pc, #72]	@ (8004910 <HAL_MspInit+0x5c>)
 80048c8:	699b      	ldr	r3, [r3, #24]
 80048ca:	f003 0301 	and.w	r3, r3, #1
 80048ce:	60bb      	str	r3, [r7, #8]
 80048d0:	68bb      	ldr	r3, [r7, #8]
 80048d2:	4b0f      	ldr	r3, [pc, #60]	@ (8004910 <HAL_MspInit+0x5c>)
 80048d4:	69db      	ldr	r3, [r3, #28]
 80048d6:	4a0e      	ldr	r2, [pc, #56]	@ (8004910 <HAL_MspInit+0x5c>)
 80048d8:	f043 5380 	orr.w	r3, r3, #268435456	@ 0x10000000
 80048dc:	61d3      	str	r3, [r2, #28]
 80048de:	4b0c      	ldr	r3, [pc, #48]	@ (8004910 <HAL_MspInit+0x5c>)
 80048e0:	69db      	ldr	r3, [r3, #28]
 80048e2:	f003 5380 	and.w	r3, r3, #268435456	@ 0x10000000
 80048e6:	607b      	str	r3, [r7, #4]
 80048e8:	687b      	ldr	r3, [r7, #4]
 80048ea:	4b0a      	ldr	r3, [pc, #40]	@ (8004914 <HAL_MspInit+0x60>)
 80048ec:	685b      	ldr	r3, [r3, #4]
 80048ee:	60fb      	str	r3, [r7, #12]
 80048f0:	68fb      	ldr	r3, [r7, #12]
 80048f2:	f023 63e0 	bic.w	r3, r3, #117440512	@ 0x7000000
 80048f6:	60fb      	str	r3, [r7, #12]
 80048f8:	68fb      	ldr	r3, [r7, #12]
 80048fa:	f043 7300 	orr.w	r3, r3, #33554432	@ 0x2000000
 80048fe:	60fb      	str	r3, [r7, #12]
 8004900:	4a04      	ldr	r2, [pc, #16]	@ (8004914 <HAL_MspInit+0x60>)
 8004902:	68fb      	ldr	r3, [r7, #12]
 8004904:	6053      	str	r3, [r2, #4]
 8004906:	bf00      	nop
 8004908:	3714      	adds	r7, #20
 800490a:	46bd      	mov	sp, r7
 800490c:	bc80      	pop	{r7}
 800490e:	4770      	bx	lr
 8004910:	40021000 	.word	0x40021000
 8004914:	40010000 	.word	0x40010000

08004918 <HAL_CAN_MspInit>:
 8004918:	b580      	push	{r7, lr}
 800491a:	b088      	sub	sp, #32
 800491c:	af00      	add	r7, sp, #0
 800491e:	6078      	str	r0, [r7, #4]
 8004920:	f107 0310 	add.w	r3, r7, #16
 8004924:	2200      	movs	r2, #0
 8004926:	601a      	str	r2, [r3, #0]
 8004928:	605a      	str	r2, [r3, #4]
 800492a:	609a      	str	r2, [r3, #8]
 800492c:	60da      	str	r2, [r3, #12]
 800492e:	687b      	ldr	r3, [r7, #4]
 8004930:	681b      	ldr	r3, [r3, #0]
 8004932:	4a20      	ldr	r2, [pc, #128]	@ (80049b4 <HAL_CAN_MspInit+0x9c>)
 8004934:	4293      	cmp	r3, r2
 8004936:	d139      	bne.n	80049ac <HAL_CAN_MspInit+0x94>
 8004938:	4b1f      	ldr	r3, [pc, #124]	@ (80049b8 <HAL_CAN_MspInit+0xa0>)
 800493a:	69db      	ldr	r3, [r3, #28]
 800493c:	4a1e      	ldr	r2, [pc, #120]	@ (80049b8 <HAL_CAN_MspInit+0xa0>)
 800493e:	f043 7300 	orr.w	r3, r3, #33554432	@ 0x2000000
 8004942:	61d3      	str	r3, [r2, #28]
 8004944:	4b1c      	ldr	r3, [pc, #112]	@ (80049b8 <HAL_CAN_MspInit+0xa0>)
 8004946:	69db      	ldr	r3, [r3, #28]
 8004948:	f003 7300 	and.w	r3, r3, #33554432	@ 0x2000000
 800494c:	60fb      	str	r3, [r7, #12]
 800494e:	68fb      	ldr	r3, [r7, #12]
 8004950:	4b19      	ldr	r3, [pc, #100]	@ (80049b8 <HAL_CAN_MspInit+0xa0>)
 8004952:	699b      	ldr	r3, [r3, #24]
 8004954:	4a18      	ldr	r2, [pc, #96]	@ (80049b8 <HAL_CAN_MspInit+0xa0>)
 8004956:	f043 0304 	orr.w	r3, r3, #4
 800495a:	6193      	str	r3, [r2, #24]
 800495c:	4b16      	ldr	r3, [pc, #88]	@ (80049b8 <HAL_CAN_MspInit+0xa0>)
 800495e:	699b      	ldr	r3, [r3, #24]
 8004960:	f003 0304 	and.w	r3, r3, #4
 8004964:	60bb      	str	r3, [r7, #8]
 8004966:	68bb      	ldr	r3, [r7, #8]
 8004968:	f44f 6300 	mov.w	r3, #2048	@ 0x800
 800496c:	613b      	str	r3, [r7, #16]
 800496e:	2300      	movs	r3, #0
 8004970:	617b      	str	r3, [r7, #20]
 8004972:	2300      	movs	r3, #0
 8004974:	61bb      	str	r3, [r7, #24]
 8004976:	f107 0310 	add.w	r3, r7, #16
 800497a:	4619      	mov	r1, r3
 800497c:	480f      	ldr	r0, [pc, #60]	@ (80049bc <HAL_CAN_MspInit+0xa4>)
 800497e:	f001 ff23 	bl	80067c8 <HAL_GPIO_Init>
 8004982:	f44f 5380 	mov.w	r3, #4096	@ 0x1000
 8004986:	613b      	str	r3, [r7, #16]
 8004988:	2302      	movs	r3, #2
 800498a:	617b      	str	r3, [r7, #20]
 800498c:	2303      	movs	r3, #3
 800498e:	61fb      	str	r3, [r7, #28]
 8004990:	f107 0310 	add.w	r3, r7, #16
 8004994:	4619      	mov	r1, r3
 8004996:	4809      	ldr	r0, [pc, #36]	@ (80049bc <HAL_CAN_MspInit+0xa4>)
 8004998:	f001 ff16 	bl	80067c8 <HAL_GPIO_Init>
 800499c:	2200      	movs	r2, #0
 800499e:	2103      	movs	r1, #3
 80049a0:	2014      	movs	r0, #20
 80049a2:	f001 fa34 	bl	8005e0e <HAL_NVIC_SetPriority>
 80049a6:	2014      	movs	r0, #20
 80049a8:	f001 fa4d 	bl	8005e46 <HAL_NVIC_EnableIRQ>
 80049ac:	bf00      	nop
 80049ae:	3720      	adds	r7, #32
 80049b0:	46bd      	mov	sp, r7
 80049b2:	bd80      	pop	{r7, pc}
 80049b4:	40006400 	.word	0x40006400
 80049b8:	40021000 	.word	0x40021000
 80049bc:	40010800 	.word	0x40010800

080049c0 <HAL_SPI_MspInit>:
 80049c0:	b580      	push	{r7, lr}
 80049c2:	b08a      	sub	sp, #40	@ 0x28
 80049c4:	af00      	add	r7, sp, #0
 80049c6:	6078      	str	r0, [r7, #4]
 80049c8:	f107 0318 	add.w	r3, r7, #24
 80049cc:	2200      	movs	r2, #0
 80049ce:	601a      	str	r2, [r3, #0]
 80049d0:	605a      	str	r2, [r3, #4]
 80049d2:	609a      	str	r2, [r3, #8]
 80049d4:	60da      	str	r2, [r3, #12]
 80049d6:	687b      	ldr	r3, [r7, #4]
 80049d8:	681b      	ldr	r3, [r3, #0]
 80049da:	4a37      	ldr	r2, [pc, #220]	@ (8004ab8 <HAL_SPI_MspInit+0xf8>)
 80049dc:	4293      	cmp	r3, r2
 80049de:	d130      	bne.n	8004a42 <HAL_SPI_MspInit+0x82>
 80049e0:	4b36      	ldr	r3, [pc, #216]	@ (8004abc <HAL_SPI_MspInit+0xfc>)
 80049e2:	699b      	ldr	r3, [r3, #24]
 80049e4:	4a35      	ldr	r2, [pc, #212]	@ (8004abc <HAL_SPI_MspInit+0xfc>)
 80049e6:	f443 5380 	orr.w	r3, r3, #4096	@ 0x1000
 80049ea:	6193      	str	r3, [r2, #24]
 80049ec:	4b33      	ldr	r3, [pc, #204]	@ (8004abc <HAL_SPI_MspInit+0xfc>)
 80049ee:	699b      	ldr	r3, [r3, #24]
 80049f0:	f403 5380 	and.w	r3, r3, #4096	@ 0x1000
 80049f4:	617b      	str	r3, [r7, #20]
 80049f6:	697b      	ldr	r3, [r7, #20]
 80049f8:	4b30      	ldr	r3, [pc, #192]	@ (8004abc <HAL_SPI_MspInit+0xfc>)
 80049fa:	699b      	ldr	r3, [r3, #24]
 80049fc:	4a2f      	ldr	r2, [pc, #188]	@ (8004abc <HAL_SPI_MspInit+0xfc>)
 80049fe:	f043 0304 	orr.w	r3, r3, #4
 8004a02:	6193      	str	r3, [r2, #24]
 8004a04:	4b2d      	ldr	r3, [pc, #180]	@ (8004abc <HAL_SPI_MspInit+0xfc>)
 8004a06:	699b      	ldr	r3, [r3, #24]
 8004a08:	f003 0304 	and.w	r3, r3, #4
 8004a0c:	613b      	str	r3, [r7, #16]
 8004a0e:	693b      	ldr	r3, [r7, #16]
 8004a10:	23a0      	movs	r3, #160	@ 0xa0
 8004a12:	61bb      	str	r3, [r7, #24]
 8004a14:	2302      	movs	r3, #2
 8004a16:	61fb      	str	r3, [r7, #28]
 8004a18:	2303      	movs	r3, #3
 8004a1a:	627b      	str	r3, [r7, #36]	@ 0x24
 8004a1c:	f107 0318 	add.w	r3, r7, #24
 8004a20:	4619      	mov	r1, r3
 8004a22:	4827      	ldr	r0, [pc, #156]	@ (8004ac0 <HAL_SPI_MspInit+0x100>)
 8004a24:	f001 fed0 	bl	80067c8 <HAL_GPIO_Init>
 8004a28:	2340      	movs	r3, #64	@ 0x40
 8004a2a:	61bb      	str	r3, [r7, #24]
 8004a2c:	2300      	movs	r3, #0
 8004a2e:	61fb      	str	r3, [r7, #28]
 8004a30:	2300      	movs	r3, #0
 8004a32:	623b      	str	r3, [r7, #32]
 8004a34:	f107 0318 	add.w	r3, r7, #24
 8004a38:	4619      	mov	r1, r3
 8004a3a:	4821      	ldr	r0, [pc, #132]	@ (8004ac0 <HAL_SPI_MspInit+0x100>)
 8004a3c:	f001 fec4 	bl	80067c8 <HAL_GPIO_Init>
 8004a40:	e036      	b.n	8004ab0 <HAL_SPI_MspInit+0xf0>
 8004a42:	687b      	ldr	r3, [r7, #4]
 8004a44:	681b      	ldr	r3, [r3, #0]
 8004a46:	4a1f      	ldr	r2, [pc, #124]	@ (8004ac4 <HAL_SPI_MspInit+0x104>)
 8004a48:	4293      	cmp	r3, r2
 8004a4a:	d131      	bne.n	8004ab0 <HAL_SPI_MspInit+0xf0>
 8004a4c:	4b1b      	ldr	r3, [pc, #108]	@ (8004abc <HAL_SPI_MspInit+0xfc>)
 8004a4e:	69db      	ldr	r3, [r3, #28]
 8004a50:	4a1a      	ldr	r2, [pc, #104]	@ (8004abc <HAL_SPI_MspInit+0xfc>)
 8004a52:	f443 4380 	orr.w	r3, r3, #16384	@ 0x4000
 8004a56:	61d3      	str	r3, [r2, #28]
 8004a58:	4b18      	ldr	r3, [pc, #96]	@ (8004abc <HAL_SPI_MspInit+0xfc>)
 8004a5a:	69db      	ldr	r3, [r3, #28]
 8004a5c:	f403 4380 	and.w	r3, r3, #16384	@ 0x4000
 8004a60:	60fb      	str	r3, [r7, #12]
 8004a62:	68fb      	ldr	r3, [r7, #12]
 8004a64:	4b15      	ldr	r3, [pc, #84]	@ (8004abc <HAL_SPI_MspInit+0xfc>)
 8004a66:	699b      	ldr	r3, [r3, #24]
 8004a68:	4a14      	ldr	r2, [pc, #80]	@ (8004abc <HAL_SPI_MspInit+0xfc>)
 8004a6a:	f043 0308 	orr.w	r3, r3, #8
 8004a6e:	6193      	str	r3, [r2, #24]
 8004a70:	4b12      	ldr	r3, [pc, #72]	@ (8004abc <HAL_SPI_MspInit+0xfc>)
 8004a72:	699b      	ldr	r3, [r3, #24]
 8004a74:	f003 0308 	and.w	r3, r3, #8
 8004a78:	60bb      	str	r3, [r7, #8]
 8004a7a:	68bb      	ldr	r3, [r7, #8]
 8004a7c:	f44f 4320 	mov.w	r3, #40960	@ 0xa000
 8004a80:	61bb      	str	r3, [r7, #24]
 8004a82:	2302      	movs	r3, #2
 8004a84:	61fb      	str	r3, [r7, #28]
 8004a86:	2303      	movs	r3, #3
 8004a88:	627b      	str	r3, [r7, #36]	@ 0x24
 8004a8a:	f107 0318 	add.w	r3, r7, #24
 8004a8e:	4619      	mov	r1, r3
 8004a90:	480d      	ldr	r0, [pc, #52]	@ (8004ac8 <HAL_SPI_MspInit+0x108>)
 8004a92:	f001 fe99 	bl	80067c8 <HAL_GPIO_Init>
 8004a96:	f44f 4380 	mov.w	r3, #16384	@ 0x4000
 8004a9a:	61bb      	str	r3, [r7, #24]
 8004a9c:	2300      	movs	r3, #0
 8004a9e:	61fb      	str	r3, [r7, #28]
 8004aa0:	2300      	movs	r3, #0
 8004aa2:	623b      	str	r3, [r7, #32]
 8004aa4:	f107 0318 	add.w	r3, r7, #24
 8004aa8:	4619      	mov	r1, r3
 8004aaa:	4807      	ldr	r0, [pc, #28]	@ (8004ac8 <HAL_SPI_MspInit+0x108>)
 8004aac:	f001 fe8c 	bl	80067c8 <HAL_GPIO_Init>
 8004ab0:	bf00      	nop
 8004ab2:	3728      	adds	r7, #40	@ 0x28
 8004ab4:	46bd      	mov	sp, r7
 8004ab6:	bd80      	pop	{r7, pc}
 8004ab8:	40013000 	.word	0x40013000
 8004abc:	40021000 	.word	0x40021000
 8004ac0:	40010800 	.word	0x40010800
 8004ac4:	40003800 	.word	0x40003800
 8004ac8:	40010c00 	.word	0x40010c00

08004acc <HAL_TIM_Base_MspInit>:
 8004acc:	b580      	push	{r7, lr}
 8004ace:	b084      	sub	sp, #16
 8004ad0:	af00      	add	r7, sp, #0
 8004ad2:	6078      	str	r0, [r7, #4]
 8004ad4:	687b      	ldr	r3, [r7, #4]
 8004ad6:	681b      	ldr	r3, [r3, #0]
 8004ad8:	f1b3 4f80 	cmp.w	r3, #1073741824	@ 0x40000000
 8004adc:	d114      	bne.n	8004b08 <HAL_TIM_Base_MspInit+0x3c>
 8004ade:	4b19      	ldr	r3, [pc, #100]	@ (8004b44 <HAL_TIM_Base_MspInit+0x78>)
 8004ae0:	69db      	ldr	r3, [r3, #28]
 8004ae2:	4a18      	ldr	r2, [pc, #96]	@ (8004b44 <HAL_TIM_Base_MspInit+0x78>)
 8004ae4:	f043 0301 	orr.w	r3, r3, #1
 8004ae8:	61d3      	str	r3, [r2, #28]
 8004aea:	4b16      	ldr	r3, [pc, #88]	@ (8004b44 <HAL_TIM_Base_MspInit+0x78>)
 8004aec:	69db      	ldr	r3, [r3, #28]
 8004aee:	f003 0301 	and.w	r3, r3, #1
 8004af2:	60fb      	str	r3, [r7, #12]
 8004af4:	68fb      	ldr	r3, [r7, #12]
 8004af6:	2200      	movs	r2, #0
 8004af8:	2104      	movs	r1, #4
 8004afa:	201c      	movs	r0, #28
 8004afc:	f001 f987 	bl	8005e0e <HAL_NVIC_SetPriority>
 8004b00:	201c      	movs	r0, #28
 8004b02:	f001 f9a0 	bl	8005e46 <HAL_NVIC_EnableIRQ>
 8004b06:	e018      	b.n	8004b3a <HAL_TIM_Base_MspInit+0x6e>
 8004b08:	687b      	ldr	r3, [r7, #4]
 8004b0a:	681b      	ldr	r3, [r3, #0]
 8004b0c:	4a0e      	ldr	r2, [pc, #56]	@ (8004b48 <HAL_TIM_Base_MspInit+0x7c>)
 8004b0e:	4293      	cmp	r3, r2
 8004b10:	d113      	bne.n	8004b3a <HAL_TIM_Base_MspInit+0x6e>
 8004b12:	4b0c      	ldr	r3, [pc, #48]	@ (8004b44 <HAL_TIM_Base_MspInit+0x78>)
 8004b14:	69db      	ldr	r3, [r3, #28]
 8004b16:	4a0b      	ldr	r2, [pc, #44]	@ (8004b44 <HAL_TIM_Base_MspInit+0x78>)
 8004b18:	f043 0302 	orr.w	r3, r3, #2
 8004b1c:	61d3      	str	r3, [r2, #28]
 8004b1e:	4b09      	ldr	r3, [pc, #36]	@ (8004b44 <HAL_TIM_Base_MspInit+0x78>)
 8004b20:	69db      	ldr	r3, [r3, #28]
 8004b22:	f003 0302 	and.w	r3, r3, #2
 8004b26:	60bb      	str	r3, [r7, #8]
 8004b28:	68bb      	ldr	r3, [r7, #8]
 8004b2a:	2200      	movs	r2, #0
 8004b2c:	2105      	movs	r1, #5
 8004b2e:	201d      	movs	r0, #29
 8004b30:	f001 f96d 	bl	8005e0e <HAL_NVIC_SetPriority>
 8004b34:	201d      	movs	r0, #29
 8004b36:	f001 f986 	bl	8005e46 <HAL_NVIC_EnableIRQ>
 8004b3a:	bf00      	nop
 8004b3c:	3710      	adds	r7, #16
 8004b3e:	46bd      	mov	sp, r7
 8004b40:	bd80      	pop	{r7, pc}
 8004b42:	bf00      	nop
 8004b44:	40021000 	.word	0x40021000
 8004b48:	40000400 	.word	0x40000400

08004b4c <HAL_UART_MspInit>:
 8004b4c:	b580      	push	{r7, lr}
 8004b4e:	b088      	sub	sp, #32
 8004b50:	af00      	add	r7, sp, #0
 8004b52:	6078      	str	r0, [r7, #4]
 8004b54:	f107 0310 	add.w	r3, r7, #16
 8004b58:	2200      	movs	r2, #0
 8004b5a:	601a      	str	r2, [r3, #0]
 8004b5c:	605a      	str	r2, [r3, #4]
 8004b5e:	609a      	str	r2, [r3, #8]
 8004b60:	60da      	str	r2, [r3, #12]
 8004b62:	687b      	ldr	r3, [r7, #4]
 8004b64:	681b      	ldr	r3, [r3, #0]
 8004b66:	4a33      	ldr	r2, [pc, #204]	@ (8004c34 <HAL_UART_MspInit+0xe8>)
 8004b68:	4293      	cmp	r3, r2
 8004b6a:	d15f      	bne.n	8004c2c <HAL_UART_MspInit+0xe0>
 8004b6c:	4b32      	ldr	r3, [pc, #200]	@ (8004c38 <HAL_UART_MspInit+0xec>)
 8004b6e:	699b      	ldr	r3, [r3, #24]
 8004b70:	4a31      	ldr	r2, [pc, #196]	@ (8004c38 <HAL_UART_MspInit+0xec>)
 8004b72:	f443 4380 	orr.w	r3, r3, #16384	@ 0x4000
 8004b76:	6193      	str	r3, [r2, #24]
 8004b78:	4b2f      	ldr	r3, [pc, #188]	@ (8004c38 <HAL_UART_MspInit+0xec>)
 8004b7a:	699b      	ldr	r3, [r3, #24]
 8004b7c:	f403 4380 	and.w	r3, r3, #16384	@ 0x4000
 8004b80:	60fb      	str	r3, [r7, #12]
 8004b82:	68fb      	ldr	r3, [r7, #12]
 8004b84:	4b2c      	ldr	r3, [pc, #176]	@ (8004c38 <HAL_UART_MspInit+0xec>)
 8004b86:	699b      	ldr	r3, [r3, #24]
 8004b88:	4a2b      	ldr	r2, [pc, #172]	@ (8004c38 <HAL_UART_MspInit+0xec>)
 8004b8a:	f043 0304 	orr.w	r3, r3, #4
 8004b8e:	6193      	str	r3, [r2, #24]
 8004b90:	4b29      	ldr	r3, [pc, #164]	@ (8004c38 <HAL_UART_MspInit+0xec>)
 8004b92:	699b      	ldr	r3, [r3, #24]
 8004b94:	f003 0304 	and.w	r3, r3, #4
 8004b98:	60bb      	str	r3, [r7, #8]
 8004b9a:	68bb      	ldr	r3, [r7, #8]
 8004b9c:	f44f 7300 	mov.w	r3, #512	@ 0x200
 8004ba0:	613b      	str	r3, [r7, #16]
 8004ba2:	2302      	movs	r3, #2
 8004ba4:	617b      	str	r3, [r7, #20]
 8004ba6:	2303      	movs	r3, #3
 8004ba8:	61fb      	str	r3, [r7, #28]
 8004baa:	f107 0310 	add.w	r3, r7, #16
 8004bae:	4619      	mov	r1, r3
 8004bb0:	4822      	ldr	r0, [pc, #136]	@ (8004c3c <HAL_UART_MspInit+0xf0>)
 8004bb2:	f001 fe09 	bl	80067c8 <HAL_GPIO_Init>
 8004bb6:	f44f 6380 	mov.w	r3, #1024	@ 0x400
 8004bba:	613b      	str	r3, [r7, #16]
 8004bbc:	2300      	movs	r3, #0
 8004bbe:	617b      	str	r3, [r7, #20]
 8004bc0:	2300      	movs	r3, #0
 8004bc2:	61bb      	str	r3, [r7, #24]
 8004bc4:	f107 0310 	add.w	r3, r7, #16
 8004bc8:	4619      	mov	r1, r3
 8004bca:	481c      	ldr	r0, [pc, #112]	@ (8004c3c <HAL_UART_MspInit+0xf0>)
 8004bcc:	f001 fdfc 	bl	80067c8 <HAL_GPIO_Init>
 8004bd0:	4b1b      	ldr	r3, [pc, #108]	@ (8004c40 <HAL_UART_MspInit+0xf4>)
 8004bd2:	4a1c      	ldr	r2, [pc, #112]	@ (8004c44 <HAL_UART_MspInit+0xf8>)
 8004bd4:	601a      	str	r2, [r3, #0]
 8004bd6:	4b1a      	ldr	r3, [pc, #104]	@ (8004c40 <HAL_UART_MspInit+0xf4>)
 8004bd8:	2200      	movs	r2, #0
 8004bda:	605a      	str	r2, [r3, #4]
 8004bdc:	4b18      	ldr	r3, [pc, #96]	@ (8004c40 <HAL_UART_MspInit+0xf4>)
 8004bde:	2200      	movs	r2, #0
 8004be0:	609a      	str	r2, [r3, #8]
 8004be2:	4b17      	ldr	r3, [pc, #92]	@ (8004c40 <HAL_UART_MspInit+0xf4>)
 8004be4:	2280      	movs	r2, #128	@ 0x80
 8004be6:	60da      	str	r2, [r3, #12]
 8004be8:	4b15      	ldr	r3, [pc, #84]	@ (8004c40 <HAL_UART_MspInit+0xf4>)
 8004bea:	2200      	movs	r2, #0
 8004bec:	611a      	str	r2, [r3, #16]
 8004bee:	4b14      	ldr	r3, [pc, #80]	@ (8004c40 <HAL_UART_MspInit+0xf4>)
 8004bf0:	2200      	movs	r2, #0
 8004bf2:	615a      	str	r2, [r3, #20]
 8004bf4:	4b12      	ldr	r3, [pc, #72]	@ (8004c40 <HAL_UART_MspInit+0xf4>)
 8004bf6:	2200      	movs	r2, #0
 8004bf8:	619a      	str	r2, [r3, #24]
 8004bfa:	4b11      	ldr	r3, [pc, #68]	@ (8004c40 <HAL_UART_MspInit+0xf4>)
 8004bfc:	2200      	movs	r2, #0
 8004bfe:	61da      	str	r2, [r3, #28]
 8004c00:	480f      	ldr	r0, [pc, #60]	@ (8004c40 <HAL_UART_MspInit+0xf4>)
 8004c02:	f001 f93f 	bl	8005e84 <HAL_DMA_Init>
 8004c06:	4603      	mov	r3, r0
 8004c08:	2b00      	cmp	r3, #0
 8004c0a:	d001      	beq.n	8004c10 <HAL_UART_MspInit+0xc4>
 8004c0c:	f7ff fe4c 	bl	80048a8 <Error_Handler>
 8004c10:	687b      	ldr	r3, [r7, #4]
 8004c12:	4a0b      	ldr	r2, [pc, #44]	@ (8004c40 <HAL_UART_MspInit+0xf4>)
 8004c14:	63da      	str	r2, [r3, #60]	@ 0x3c
 8004c16:	4a0a      	ldr	r2, [pc, #40]	@ (8004c40 <HAL_UART_MspInit+0xf4>)
 8004c18:	687b      	ldr	r3, [r7, #4]
 8004c1a:	6253      	str	r3, [r2, #36]	@ 0x24
 8004c1c:	2200      	movs	r2, #0
 8004c1e:	2102      	movs	r1, #2
 8004c20:	2025      	movs	r0, #37	@ 0x25
 8004c22:	f001 f8f4 	bl	8005e0e <HAL_NVIC_SetPriority>
 8004c26:	2025      	movs	r0, #37	@ 0x25
 8004c28:	f001 f90d 	bl	8005e46 <HAL_NVIC_EnableIRQ>
 8004c2c:	bf00      	nop
 8004c2e:	3720      	adds	r7, #32
 8004c30:	46bd      	mov	sp, r7
 8004c32:	bd80      	pop	{r7, pc}
 8004c34:	40013800 	.word	0x40013800
 8004c38:	40021000 	.word	0x40021000
 8004c3c:	40010800 	.word	0x40010800
 8004c40:	20000258 	.word	0x20000258
 8004c44:	40020058 	.word	0x40020058

08004c48 <NMI_Handler>:
 8004c48:	b480      	push	{r7}
 8004c4a:	af00      	add	r7, sp, #0
 8004c4c:	bf00      	nop
 8004c4e:	e7fd      	b.n	8004c4c <NMI_Handler+0x4>

08004c50 <HardFault_Handler>:
 8004c50:	b480      	push	{r7}
 8004c52:	af00      	add	r7, sp, #0
 8004c54:	bf00      	nop
 8004c56:	e7fd      	b.n	8004c54 <HardFault_Handler+0x4>

08004c58 <MemManage_Handler>:
 8004c58:	b480      	push	{r7}
 8004c5a:	af00      	add	r7, sp, #0
 8004c5c:	bf00      	nop
 8004c5e:	e7fd      	b.n	8004c5c <MemManage_Handler+0x4>

08004c60 <BusFault_Handler>:
 8004c60:	b480      	push	{r7}
 8004c62:	af00      	add	r7, sp, #0
 8004c64:	bf00      	nop
 8004c66:	e7fd      	b.n	8004c64 <BusFault_Handler+0x4>

08004c68 <UsageFault_Handler>:
 8004c68:	b480      	push	{r7}
 8004c6a:	af00      	add	r7, sp, #0
 8004c6c:	bf00      	nop
 8004c6e:	e7fd      	b.n	8004c6c <UsageFault_Handler+0x4>

08004c70 <SVC_Handler>:
 8004c70:	b480      	push	{r7}
 8004c72:	af00      	add	r7, sp, #0
 8004c74:	bf00      	nop
 8004c76:	46bd      	mov	sp, r7
 8004c78:	bc80      	pop	{r7}
 8004c7a:	4770      	bx	lr

08004c7c <DebugMon_Handler>:
 8004c7c:	b480      	push	{r7}
 8004c7e:	af00      	add	r7, sp, #0
 8004c80:	bf00      	nop
 8004c82:	46bd      	mov	sp, r7
 8004c84:	bc80      	pop	{r7}
 8004c86:	4770      	bx	lr

08004c88 <PendSV_Handler>:
 8004c88:	b480      	push	{r7}
 8004c8a:	af00      	add	r7, sp, #0
 8004c8c:	bf00      	nop
 8004c8e:	46bd      	mov	sp, r7
 8004c90:	bc80      	pop	{r7}
 8004c92:	4770      	bx	lr

08004c94 <SysTick_Handler>:
 8004c94:	b580      	push	{r7, lr}
 8004c96:	af00      	add	r7, sp, #0
 8004c98:	f000 f8b6 	bl	8004e08 <HAL_IncTick>
 8004c9c:	bf00      	nop
 8004c9e:	bd80      	pop	{r7, pc}

08004ca0 <EXTI0_IRQHandler>:
 8004ca0:	b580      	push	{r7, lr}
 8004ca2:	af00      	add	r7, sp, #0
 8004ca4:	2001      	movs	r0, #1
 8004ca6:	f001 ff5b 	bl	8006b60 <HAL_GPIO_EXTI_IRQHandler>
 8004caa:	bf00      	nop
 8004cac:	bd80      	pop	{r7, pc}
	...

08004cb0 <DMA1_Channel5_IRQHandler>:
 8004cb0:	b580      	push	{r7, lr}
 8004cb2:	af00      	add	r7, sp, #0
 8004cb4:	4802      	ldr	r0, [pc, #8]	@ (8004cc0 <DMA1_Channel5_IRQHandler+0x10>)
 8004cb6:	f001 fa53 	bl	8006160 <HAL_DMA_IRQHandler>
 8004cba:	bf00      	nop
 8004cbc:	bd80      	pop	{r7, pc}
 8004cbe:	bf00      	nop
 8004cc0:	20000258 	.word	0x20000258

08004cc4 <USB_LP_CAN1_RX0_IRQHandler>:
 8004cc4:	b580      	push	{r7, lr}
 8004cc6:	af00      	add	r7, sp, #0
 8004cc8:	4802      	ldr	r0, [pc, #8]	@ (8004cd4 <USB_LP_CAN1_RX0_IRQHandler+0x10>)
 8004cca:	f000 fd90 	bl	80057ee <HAL_CAN_IRQHandler>
 8004cce:	bf00      	nop
 8004cd0:	bd80      	pop	{r7, pc}
 8004cd2:	bf00      	nop
 8004cd4:	2000009c 	.word	0x2000009c

08004cd8 <EXTI9_5_IRQHandler>:
 8004cd8:	b580      	push	{r7, lr}
 8004cda:	af00      	add	r7, sp, #0
 8004cdc:	2040      	movs	r0, #64	@ 0x40
 8004cde:	f001 ff3f 	bl	8006b60 <HAL_GPIO_EXTI_IRQHandler>
 8004ce2:	bf00      	nop
 8004ce4:	bd80      	pop	{r7, pc}
	...

08004ce8 <TIM2_IRQHandler>:
 8004ce8:	b580      	push	{r7, lr}
 8004cea:	af00      	add	r7, sp, #0
 8004cec:	4802      	ldr	r0, [pc, #8]	@ (8004cf8 <TIM2_IRQHandler+0x10>)
 8004cee:	f003 f9eb 	bl	80080c8 <HAL_TIM_IRQHandler>
 8004cf2:	bf00      	nop
 8004cf4:	bd80      	pop	{r7, pc}
 8004cf6:	bf00      	nop
 8004cf8:	20000180 	.word	0x20000180

08004cfc <TIM3_IRQHandler>:
 8004cfc:	b580      	push	{r7, lr}
 8004cfe:	af00      	add	r7, sp, #0
 8004d00:	4802      	ldr	r0, [pc, #8]	@ (8004d0c <TIM3_IRQHandler+0x10>)
 8004d02:	f003 f9e1 	bl	80080c8 <HAL_TIM_IRQHandler>
 8004d06:	bf00      	nop
 8004d08:	bd80      	pop	{r7, pc}
 8004d0a:	bf00      	nop
 8004d0c:	200001c8 	.word	0x200001c8

08004d10 <USART1_IRQHandler>:
 8004d10:	b580      	push	{r7, lr}
 8004d12:	af00      	add	r7, sp, #0
 8004d14:	4802      	ldr	r0, [pc, #8]	@ (8004d20 <USART1_IRQHandler+0x10>)
 8004d16:	f003 fe5b 	bl	80089d0 <HAL_UART_IRQHandler>
 8004d1a:	bf00      	nop
 8004d1c:	bd80      	pop	{r7, pc}
 8004d1e:	bf00      	nop
 8004d20:	20000210 	.word	0x20000210

08004d24 <SystemInit>:
 8004d24:	b480      	push	{r7}
 8004d26:	af00      	add	r7, sp, #0
 8004d28:	bf00      	nop
 8004d2a:	46bd      	mov	sp, r7
 8004d2c:	bc80      	pop	{r7}
 8004d2e:	4770      	bx	lr

08004d30 <Reset_Handler>:
 8004d30:	f7ff fff8 	bl	8004d24 <SystemInit>
 8004d34:	480b      	ldr	r0, [pc, #44]	@ (8004d64 <LoopFillZerobss+0xe>)
 8004d36:	490c      	ldr	r1, [pc, #48]	@ (8004d68 <LoopFillZerobss+0x12>)
 8004d38:	4a0c      	ldr	r2, [pc, #48]	@ (8004d6c <LoopFillZerobss+0x16>)
 8004d3a:	2300      	movs	r3, #0
 8004d3c:	e002      	b.n	8004d44 <LoopCopyDataInit>

08004d3e <CopyDataInit>:
 8004d3e:	58d4      	ldr	r4, [r2, r3]
 8004d40:	50c4      	str	r4, [r0, r3]
 8004d42:	3304      	adds	r3, #4

08004d44 <LoopCopyDataInit>:
 8004d44:	18c4      	adds	r4, r0, r3
 8004d46:	428c      	cmp	r4, r1
 8004d48:	d3f9      	bcc.n	8004d3e <CopyDataInit>
 8004d4a:	4a09      	ldr	r2, [pc, #36]	@ (8004d70 <LoopFillZerobss+0x1a>)
 8004d4c:	4c09      	ldr	r4, [pc, #36]	@ (8004d74 <LoopFillZerobss+0x1e>)
 8004d4e:	2300      	movs	r3, #0
 8004d50:	e001      	b.n	8004d56 <LoopFillZerobss>

08004d52 <FillZerobss>:
 8004d52:	6013      	str	r3, [r2, #0]
 8004d54:	3204      	adds	r2, #4

08004d56 <LoopFillZerobss>:
 8004d56:	42a2      	cmp	r2, r4
 8004d58:	d3fb      	bcc.n	8004d52 <FillZerobss>
 8004d5a:	f004 fd49 	bl	80097f0 <__libc_init_array>
 8004d5e:	f7fd fa35 	bl	80021cc <main>
 8004d62:	4770      	bx	lr
 8004d64:	20000000 	.word	0x20000000
 8004d68:	20000044 	.word	0x20000044
 8004d6c:	0800991c 	.word	0x0800991c
 8004d70:	20000048 	.word	0x20000048
 8004d74:	200007f8 	.word	0x200007f8

08004d78 <ADC1_2_IRQHandler>:
 8004d78:	e7fe      	b.n	8004d78 <ADC1_2_IRQHandler>
	...

08004d7c <HAL_Init>:
 8004d7c:	b580      	push	{r7, lr}
 8004d7e:	af00      	add	r7, sp, #0
 8004d80:	4b08      	ldr	r3, [pc, #32]	@ (8004da4 <HAL_Init+0x28>)
 8004d82:	681b      	ldr	r3, [r3, #0]
 8004d84:	4a07      	ldr	r2, [pc, #28]	@ (8004da4 <HAL_Init+0x28>)
 8004d86:	f043 0310 	orr.w	r3, r3, #16
 8004d8a:	6013      	str	r3, [r2, #0]
 8004d8c:	2003      	movs	r0, #3
 8004d8e:	f001 f833 	bl	8005df8 <HAL_NVIC_SetPriorityGrouping>
 8004d92:	2006      	movs	r0, #6
 8004d94:	f000 f808 	bl	8004da8 <HAL_InitTick>
 8004d98:	f7ff fd8c 	bl	80048b4 <HAL_MspInit>
 8004d9c:	2300      	movs	r3, #0
 8004d9e:	4618      	mov	r0, r3
 8004da0:	bd80      	pop	{r7, pc}
 8004da2:	bf00      	nop
 8004da4:	40022000 	.word	0x40022000

08004da8 <HAL_InitTick>:
 8004da8:	b580      	push	{r7, lr}
 8004daa:	b082      	sub	sp, #8
 8004dac:	af00      	add	r7, sp, #0
 8004dae:	6078      	str	r0, [r7, #4]
 8004db0:	4b12      	ldr	r3, [pc, #72]	@ (8004dfc <HAL_InitTick+0x54>)
 8004db2:	681a      	ldr	r2, [r3, #0]
 8004db4:	4b12      	ldr	r3, [pc, #72]	@ (8004e00 <HAL_InitTick+0x58>)
 8004db6:	781b      	ldrb	r3, [r3, #0]
 8004db8:	4619      	mov	r1, r3
 8004dba:	f44f 737a 	mov.w	r3, #1000	@ 0x3e8
 8004dbe:	fbb3 f3f1 	udiv	r3, r3, r1
 8004dc2:	fbb2 f3f3 	udiv	r3, r2, r3
 8004dc6:	4618      	mov	r0, r3
 8004dc8:	f001 f84f 	bl	8005e6a <HAL_SYSTICK_Config>
 8004dcc:	4603      	mov	r3, r0
 8004dce:	2b00      	cmp	r3, #0
 8004dd0:	d001      	beq.n	8004dd6 <HAL_InitTick+0x2e>
 8004dd2:	2301      	movs	r3, #1
 8004dd4:	e00e      	b.n	8004df4 <HAL_InitTick+0x4c>
 8004dd6:	687b      	ldr	r3, [r7, #4]
 8004dd8:	2b0f      	cmp	r3, #15
 8004dda:	d80a      	bhi.n	8004df2 <HAL_InitTick+0x4a>
 8004ddc:	2200      	movs	r2, #0
 8004dde:	6879      	ldr	r1, [r7, #4]
 8004de0:	f04f 30ff 	mov.w	r0, #4294967295
 8004de4:	f001 f813 	bl	8005e0e <HAL_NVIC_SetPriority>
 8004de8:	4a06      	ldr	r2, [pc, #24]	@ (8004e04 <HAL_InitTick+0x5c>)
 8004dea:	687b      	ldr	r3, [r7, #4]
 8004dec:	6013      	str	r3, [r2, #0]
 8004dee:	2300      	movs	r3, #0
 8004df0:	e000      	b.n	8004df4 <HAL_InitTick+0x4c>
 8004df2:	2301      	movs	r3, #1
 8004df4:	4618      	mov	r0, r3
 8004df6:	3708      	adds	r7, #8
 8004df8:	46bd      	mov	sp, r7
 8004dfa:	bd80      	pop	{r7, pc}
 8004dfc:	20000038 	.word	0x20000038
 8004e00:	20000040 	.word	0x20000040
 8004e04:	2000003c 	.word	0x2000003c

08004e08 <HAL_IncTick>:
 8004e08:	b480      	push	{r7}
 8004e0a:	af00      	add	r7, sp, #0
 8004e0c:	4b05      	ldr	r3, [pc, #20]	@ (8004e24 <HAL_IncTick+0x1c>)
 8004e0e:	781b      	ldrb	r3, [r3, #0]
 8004e10:	461a      	mov	r2, r3
 8004e12:	4b05      	ldr	r3, [pc, #20]	@ (8004e28 <HAL_IncTick+0x20>)
 8004e14:	681b      	ldr	r3, [r3, #0]
 8004e16:	4413      	add	r3, r2
 8004e18:	4a03      	ldr	r2, [pc, #12]	@ (8004e28 <HAL_IncTick+0x20>)
 8004e1a:	6013      	str	r3, [r2, #0]
 8004e1c:	bf00      	nop
 8004e1e:	46bd      	mov	sp, r7
 8004e20:	bc80      	pop	{r7}
 8004e22:	4770      	bx	lr
 8004e24:	20000040 	.word	0x20000040
 8004e28:	200007d0 	.word	0x200007d0

08004e2c <HAL_GetTick>:
 8004e2c:	b480      	push	{r7}
 8004e2e:	af00      	add	r7, sp, #0
 8004e30:	4b02      	ldr	r3, [pc, #8]	@ (8004e3c <HAL_GetTick+0x10>)
 8004e32:	681b      	ldr	r3, [r3, #0]
 8004e34:	4618      	mov	r0, r3
 8004e36:	46bd      	mov	sp, r7
 8004e38:	bc80      	pop	{r7}
 8004e3a:	4770      	bx	lr
 8004e3c:	200007d0 	.word	0x200007d0

08004e40 <HAL_Delay>:
 8004e40:	b580      	push	{r7, lr}
 8004e42:	b084      	sub	sp, #16
 8004e44:	af00      	add	r7, sp, #0
 8004e46:	6078      	str	r0, [r7, #4]
 8004e48:	f7ff fff0 	bl	8004e2c <HAL_GetTick>
 8004e4c:	60b8      	str	r0, [r7, #8]
 8004e4e:	687b      	ldr	r3, [r7, #4]
 8004e50:	60fb      	str	r3, [r7, #12]
 8004e52:	68fb      	ldr	r3, [r7, #12]
 8004e54:	f1b3 3fff 	cmp.w	r3, #4294967295
 8004e58:	d005      	beq.n	8004e66 <HAL_Delay+0x26>
 8004e5a:	4b0a      	ldr	r3, [pc, #40]	@ (8004e84 <HAL_Delay+0x44>)
 8004e5c:	781b      	ldrb	r3, [r3, #0]
 8004e5e:	461a      	mov	r2, r3
 8004e60:	68fb      	ldr	r3, [r7, #12]
 8004e62:	4413      	add	r3, r2
 8004e64:	60fb      	str	r3, [r7, #12]
 8004e66:	bf00      	nop
 8004e68:	f7ff ffe0 	bl	8004e2c <HAL_GetTick>
 8004e6c:	4602      	mov	r2, r0
 8004e6e:	68bb      	ldr	r3, [r7, #8]
 8004e70:	1ad3      	subs	r3, r2, r3
 8004e72:	68fa      	ldr	r2, [r7, #12]
 8004e74:	429a      	cmp	r2, r3
 8004e76:	d8f7      	bhi.n	8004e68 <HAL_Delay+0x28>
 8004e78:	bf00      	nop
 8004e7a:	bf00      	nop
 8004e7c:	3710      	adds	r7, #16
 8004e7e:	46bd      	mov	sp, r7
 8004e80:	bd80      	pop	{r7, pc}
 8004e82:	bf00      	nop
 8004e84:	20000040 	.word	0x20000040

08004e88 <HAL_GetUIDw0>:
 8004e88:	b480      	push	{r7}
 8004e8a:	af00      	add	r7, sp, #0
 8004e8c:	4b02      	ldr	r3, [pc, #8]	@ (8004e98 <HAL_GetUIDw0+0x10>)
 8004e8e:	681b      	ldr	r3, [r3, #0]
 8004e90:	4618      	mov	r0, r3
 8004e92:	46bd      	mov	sp, r7
 8004e94:	bc80      	pop	{r7}
 8004e96:	4770      	bx	lr
 8004e98:	1ffff7e8 	.word	0x1ffff7e8

08004e9c <HAL_GetUIDw1>:
 8004e9c:	b480      	push	{r7}
 8004e9e:	af00      	add	r7, sp, #0
 8004ea0:	4b02      	ldr	r3, [pc, #8]	@ (8004eac <HAL_GetUIDw1+0x10>)
 8004ea2:	681b      	ldr	r3, [r3, #0]
 8004ea4:	4618      	mov	r0, r3
 8004ea6:	46bd      	mov	sp, r7
 8004ea8:	bc80      	pop	{r7}
 8004eaa:	4770      	bx	lr
 8004eac:	1ffff7ec 	.word	0x1ffff7ec

08004eb0 <HAL_GetUIDw2>:
 8004eb0:	b480      	push	{r7}
 8004eb2:	af00      	add	r7, sp, #0
 8004eb4:	4b02      	ldr	r3, [pc, #8]	@ (8004ec0 <HAL_GetUIDw2+0x10>)
 8004eb6:	681b      	ldr	r3, [r3, #0]
 8004eb8:	4618      	mov	r0, r3
 8004eba:	46bd      	mov	sp, r7
 8004ebc:	bc80      	pop	{r7}
 8004ebe:	4770      	bx	lr
 8004ec0:	1ffff7f0 	.word	0x1ffff7f0

08004ec4 <HAL_CAN_Init>:
 8004ec4:	b580      	push	{r7, lr}
 8004ec6:	b084      	sub	sp, #16
 8004ec8:	af00      	add	r7, sp, #0
 8004eca:	6078      	str	r0, [r7, #4]
 8004ecc:	687b      	ldr	r3, [r7, #4]
 8004ece:	2b00      	cmp	r3, #0
 8004ed0:	d101      	bne.n	8004ed6 <HAL_CAN_Init+0x12>
 8004ed2:	2301      	movs	r3, #1
 8004ed4:	e0ed      	b.n	80050b2 <HAL_CAN_Init+0x1ee>
 8004ed6:	687b      	ldr	r3, [r7, #4]
 8004ed8:	f893 3020 	ldrb.w	r3, [r3, #32]
 8004edc:	b2db      	uxtb	r3, r3
 8004ede:	2b00      	cmp	r3, #0
 8004ee0:	d102      	bne.n	8004ee8 <HAL_CAN_Init+0x24>
 8004ee2:	6878      	ldr	r0, [r7, #4]
 8004ee4:	f7ff fd18 	bl	8004918 <HAL_CAN_MspInit>
 8004ee8:	687b      	ldr	r3, [r7, #4]
 8004eea:	681b      	ldr	r3, [r3, #0]
 8004eec:	681a      	ldr	r2, [r3, #0]
 8004eee:	687b      	ldr	r3, [r7, #4]
 8004ef0:	681b      	ldr	r3, [r3, #0]
 8004ef2:	f042 0201 	orr.w	r2, r2, #1
 8004ef6:	601a      	str	r2, [r3, #0]
 8004ef8:	f7ff ff98 	bl	8004e2c <HAL_GetTick>
 8004efc:	60f8      	str	r0, [r7, #12]
 8004efe:	e012      	b.n	8004f26 <HAL_CAN_Init+0x62>
 8004f00:	f7ff ff94 	bl	8004e2c <HAL_GetTick>
 8004f04:	4602      	mov	r2, r0
 8004f06:	68fb      	ldr	r3, [r7, #12]
 8004f08:	1ad3      	subs	r3, r2, r3
 8004f0a:	2b0a      	cmp	r3, #10
 8004f0c:	d90b      	bls.n	8004f26 <HAL_CAN_Init+0x62>
 8004f0e:	687b      	ldr	r3, [r7, #4]
 8004f10:	6a5b      	ldr	r3, [r3, #36]	@ 0x24
 8004f12:	f443 3200 	orr.w	r2, r3, #131072	@ 0x20000
 8004f16:	687b      	ldr	r3, [r7, #4]
 8004f18:	625a      	str	r2, [r3, #36]	@ 0x24
 8004f1a:	687b      	ldr	r3, [r7, #4]
 8004f1c:	2205      	movs	r2, #5
 8004f1e:	f883 2020 	strb.w	r2, [r3, #32]
 8004f22:	2301      	movs	r3, #1
 8004f24:	e0c5      	b.n	80050b2 <HAL_CAN_Init+0x1ee>
 8004f26:	687b      	ldr	r3, [r7, #4]
 8004f28:	681b      	ldr	r3, [r3, #0]
 8004f2a:	685b      	ldr	r3, [r3, #4]
 8004f2c:	f003 0301 	and.w	r3, r3, #1
 8004f30:	2b00      	cmp	r3, #0
 8004f32:	d0e5      	beq.n	8004f00 <HAL_CAN_Init+0x3c>
 8004f34:	687b      	ldr	r3, [r7, #4]
 8004f36:	681b      	ldr	r3, [r3, #0]
 8004f38:	681a      	ldr	r2, [r3, #0]
 8004f3a:	687b      	ldr	r3, [r7, #4]
 8004f3c:	681b      	ldr	r3, [r3, #0]
 8004f3e:	f022 0202 	bic.w	r2, r2, #2
 8004f42:	601a      	str	r2, [r3, #0]
 8004f44:	f7ff ff72 	bl	8004e2c <HAL_GetTick>
 8004f48:	60f8      	str	r0, [r7, #12]
 8004f4a:	e012      	b.n	8004f72 <HAL_CAN_Init+0xae>
 8004f4c:	f7ff ff6e 	bl	8004e2c <HAL_GetTick>
 8004f50:	4602      	mov	r2, r0
 8004f52:	68fb      	ldr	r3, [r7, #12]
 8004f54:	1ad3      	subs	r3, r2, r3
 8004f56:	2b0a      	cmp	r3, #10
 8004f58:	d90b      	bls.n	8004f72 <HAL_CAN_Init+0xae>
 8004f5a:	687b      	ldr	r3, [r7, #4]
 8004f5c:	6a5b      	ldr	r3, [r3, #36]	@ 0x24
 8004f5e:	f443 3200 	orr.w	r2, r3, #131072	@ 0x20000
 8004f62:	687b      	ldr	r3, [r7, #4]
 8004f64:	625a      	str	r2, [r3, #36]	@ 0x24
 8004f66:	687b      	ldr	r3, [r7, #4]
 8004f68:	2205      	movs	r2, #5
 8004f6a:	f883 2020 	strb.w	r2, [r3, #32]
 8004f6e:	2301      	movs	r3, #1
 8004f70:	e09f      	b.n	80050b2 <HAL_CAN_Init+0x1ee>
 8004f72:	687b      	ldr	r3, [r7, #4]
 8004f74:	681b      	ldr	r3, [r3, #0]
 8004f76:	685b      	ldr	r3, [r3, #4]
 8004f78:	f003 0302 	and.w	r3, r3, #2
 8004f7c:	2b00      	cmp	r3, #0
 8004f7e:	d1e5      	bne.n	8004f4c <HAL_CAN_Init+0x88>
 8004f80:	687b      	ldr	r3, [r7, #4]
 8004f82:	7e1b      	ldrb	r3, [r3, #24]
 8004f84:	2b01      	cmp	r3, #1
 8004f86:	d108      	bne.n	8004f9a <HAL_CAN_Init+0xd6>
 8004f88:	687b      	ldr	r3, [r7, #4]
 8004f8a:	681b      	ldr	r3, [r3, #0]
 8004f8c:	681a      	ldr	r2, [r3, #0]
 8004f8e:	687b      	ldr	r3, [r7, #4]
 8004f90:	681b      	ldr	r3, [r3, #0]
 8004f92:	f042 0280 	orr.w	r2, r2, #128	@ 0x80
 8004f96:	601a      	str	r2, [r3, #0]
 8004f98:	e007      	b.n	8004faa <HAL_CAN_Init+0xe6>
 8004f9a:	687b      	ldr	r3, [r7, #4]
 8004f9c:	681b      	ldr	r3, [r3, #0]
 8004f9e:	681a      	ldr	r2, [r3, #0]
 8004fa0:	687b      	ldr	r3, [r7, #4]
 8004fa2:	681b      	ldr	r3, [r3, #0]
 8004fa4:	f022 0280 	bic.w	r2, r2, #128	@ 0x80
 8004fa8:	601a      	str	r2, [r3, #0]
 8004faa:	687b      	ldr	r3, [r7, #4]
 8004fac:	7e5b      	ldrb	r3, [r3, #25]
 8004fae:	2b01      	cmp	r3, #1
 8004fb0:	d108      	bne.n	8004fc4 <HAL_CAN_Init+0x100>
 8004fb2:	687b      	ldr	r3, [r7, #4]
 8004fb4:	681b      	ldr	r3, [r3, #0]
 8004fb6:	681a      	ldr	r2, [r3, #0]
 8004fb8:	687b      	ldr	r3, [r7, #4]
 8004fba:	681b      	ldr	r3, [r3, #0]
 8004fbc:	f042 0240 	orr.w	r2, r2, #64	@ 0x40
 8004fc0:	601a      	str	r2, [r3, #0]
 8004fc2:	e007      	b.n	8004fd4 <HAL_CAN_Init+0x110>
 8004fc4:	687b      	ldr	r3, [r7, #4]
 8004fc6:	681b      	ldr	r3, [r3, #0]
 8004fc8:	681a      	ldr	r2, [r3, #0]
 8004fca:	687b      	ldr	r3, [r7, #4]
 8004fcc:	681b      	ldr	r3, [r3, #0]
 8004fce:	f022 0240 	bic.w	r2, r2, #64	@ 0x40
 8004fd2:	601a      	str	r2, [r3, #0]
 8004fd4:	687b      	ldr	r3, [r7, #4]
 8004fd6:	7e9b      	ldrb	r3, [r3, #26]
 8004fd8:	2b01      	cmp	r3, #1
 8004fda:	d108      	bne.n	8004fee <HAL_CAN_Init+0x12a>
 8004fdc:	687b      	ldr	r3, [r7, #4]
 8004fde:	681b      	ldr	r3, [r3, #0]
 8004fe0:	681a      	ldr	r2, [r3, #0]
 8004fe2:	687b      	ldr	r3, [r7, #4]
 8004fe4:	681b      	ldr	r3, [r3, #0]
 8004fe6:	f042 0220 	orr.w	r2, r2, #32
 8004fea:	601a      	str	r2, [r3, #0]
 8004fec:	e007      	b.n	8004ffe <HAL_CAN_Init+0x13a>
 8004fee:	687b      	ldr	r3, [r7, #4]
 8004ff0:	681b      	ldr	r3, [r3, #0]
 8004ff2:	681a      	ldr	r2, [r3, #0]
 8004ff4:	687b      	ldr	r3, [r7, #4]
 8004ff6:	681b      	ldr	r3, [r3, #0]
 8004ff8:	f022 0220 	bic.w	r2, r2, #32
 8004ffc:	601a      	str	r2, [r3, #0]
 8004ffe:	687b      	ldr	r3, [r7, #4]
 8005000:	7edb      	ldrb	r3, [r3, #27]
 8005002:	2b01      	cmp	r3, #1
 8005004:	d108      	bne.n	8005018 <HAL_CAN_Init+0x154>
 8005006:	687b      	ldr	r3, [r7, #4]
 8005008:	681b      	ldr	r3, [r3, #0]
 800500a:	681a      	ldr	r2, [r3, #0]
 800500c:	687b      	ldr	r3, [r7, #4]
 800500e:	681b      	ldr	r3, [r3, #0]
 8005010:	f022 0210 	bic.w	r2, r2, #16
 8005014:	601a      	str	r2, [r3, #0]
 8005016:	e007      	b.n	8005028 <HAL_CAN_Init+0x164>
 8005018:	687b      	ldr	r3, [r7, #4]
 800501a:	681b      	ldr	r3, [r3, #0]
 800501c:	681a      	ldr	r2, [r3, #0]
 800501e:	687b      	ldr	r3, [r7, #4]
 8005020:	681b      	ldr	r3, [r3, #0]
 8005022:	f042 0210 	orr.w	r2, r2, #16
 8005026:	601a      	str	r2, [r3, #0]
 8005028:	687b      	ldr	r3, [r7, #4]
 800502a:	7f1b      	ldrb	r3, [r3, #28]
 800502c:	2b01      	cmp	r3, #1
 800502e:	d108      	bne.n	8005042 <HAL_CAN_Init+0x17e>
 8005030:	687b      	ldr	r3, [r7, #4]
 8005032:	681b      	ldr	r3, [r3, #0]
 8005034:	681a      	ldr	r2, [r3, #0]
 8005036:	687b      	ldr	r3, [r7, #4]
 8005038:	681b      	ldr	r3, [r3, #0]
 800503a:	f042 0208 	orr.w	r2, r2, #8
 800503e:	601a      	str	r2, [r3, #0]
 8005040:	e007      	b.n	8005052 <HAL_CAN_Init+0x18e>
 8005042:	687b      	ldr	r3, [r7, #4]
 8005044:	681b      	ldr	r3, [r3, #0]
 8005046:	681a      	ldr	r2, [r3, #0]
 8005048:	687b      	ldr	r3, [r7, #4]
 800504a:	681b      	ldr	r3, [r3, #0]
 800504c:	f022 0208 	bic.w	r2, r2, #8
 8005050:	601a      	str	r2, [r3, #0]
 8005052:	687b      	ldr	r3, [r7, #4]
 8005054:	7f5b      	ldrb	r3, [r3, #29]
 8005056:	2b01      	cmp	r3, #1
 8005058:	d108      	bne.n	800506c <HAL_CAN_Init+0x1a8>
 800505a:	687b      	ldr	r3, [r7, #4]
 800505c:	681b      	ldr	r3, [r3, #0]
 800505e:	681a      	ldr	r2, [r3, #0]
 8005060:	687b      	ldr	r3, [r7, #4]
 8005062:	681b      	ldr	r3, [r3, #0]
 8005064:	f042 0204 	orr.w	r2, r2, #4
 8005068:	601a      	str	r2, [r3, #0]
 800506a:	e007      	b.n	800507c <HAL_CAN_Init+0x1b8>
 800506c:	687b      	ldr	r3, [r7, #4]
 800506e:	681b      	ldr	r3, [r3, #0]
 8005070:	681a      	ldr	r2, [r3, #0]
 8005072:	687b      	ldr	r3, [r7, #4]
 8005074:	681b      	ldr	r3, [r3, #0]
 8005076:	f022 0204 	bic.w	r2, r2, #4
 800507a:	601a      	str	r2, [r3, #0]
 800507c:	687b      	ldr	r3, [r7, #4]
 800507e:	689a      	ldr	r2, [r3, #8]
 8005080:	687b      	ldr	r3, [r7, #4]
 8005082:	68db      	ldr	r3, [r3, #12]
 8005084:	431a      	orrs	r2, r3
 8005086:	687b      	ldr	r3, [r7, #4]
 8005088:	691b      	ldr	r3, [r3, #16]
 800508a:	431a      	orrs	r2, r3
 800508c:	687b      	ldr	r3, [r7, #4]
 800508e:	695b      	ldr	r3, [r3, #20]
 8005090:	ea42 0103 	orr.w	r1, r2, r3
 8005094:	687b      	ldr	r3, [r7, #4]
 8005096:	685b      	ldr	r3, [r3, #4]
 8005098:	1e5a      	subs	r2, r3, #1
 800509a:	687b      	ldr	r3, [r7, #4]
 800509c:	681b      	ldr	r3, [r3, #0]
 800509e:	430a      	orrs	r2, r1
 80050a0:	61da      	str	r2, [r3, #28]
 80050a2:	687b      	ldr	r3, [r7, #4]
 80050a4:	2200      	movs	r2, #0
 80050a6:	625a      	str	r2, [r3, #36]	@ 0x24
 80050a8:	687b      	ldr	r3, [r7, #4]
 80050aa:	2201      	movs	r2, #1
 80050ac:	f883 2020 	strb.w	r2, [r3, #32]
 80050b0:	2300      	movs	r3, #0
 80050b2:	4618      	mov	r0, r3
 80050b4:	3710      	adds	r7, #16
 80050b6:	46bd      	mov	sp, r7
 80050b8:	bd80      	pop	{r7, pc}

080050ba <HAL_CAN_ConfigFilter>:
 80050ba:	b480      	push	{r7}
 80050bc:	b087      	sub	sp, #28
 80050be:	af00      	add	r7, sp, #0
 80050c0:	6078      	str	r0, [r7, #4]
 80050c2:	6039      	str	r1, [r7, #0]
 80050c4:	687b      	ldr	r3, [r7, #4]
 80050c6:	681b      	ldr	r3, [r3, #0]
 80050c8:	617b      	str	r3, [r7, #20]
 80050ca:	687b      	ldr	r3, [r7, #4]
 80050cc:	f893 3020 	ldrb.w	r3, [r3, #32]
 80050d0:	74fb      	strb	r3, [r7, #19]
 80050d2:	7cfb      	ldrb	r3, [r7, #19]
 80050d4:	2b01      	cmp	r3, #1
 80050d6:	d003      	beq.n	80050e0 <HAL_CAN_ConfigFilter+0x26>
 80050d8:	7cfb      	ldrb	r3, [r7, #19]
 80050da:	2b02      	cmp	r3, #2
 80050dc:	f040 80aa 	bne.w	8005234 <HAL_CAN_ConfigFilter+0x17a>
 80050e0:	697b      	ldr	r3, [r7, #20]
 80050e2:	f8d3 3200 	ldr.w	r3, [r3, #512]	@ 0x200
 80050e6:	f043 0201 	orr.w	r2, r3, #1
 80050ea:	697b      	ldr	r3, [r7, #20]
 80050ec:	f8c3 2200 	str.w	r2, [r3, #512]	@ 0x200
 80050f0:	683b      	ldr	r3, [r7, #0]
 80050f2:	695b      	ldr	r3, [r3, #20]
 80050f4:	f003 031f 	and.w	r3, r3, #31
 80050f8:	2201      	movs	r2, #1
 80050fa:	fa02 f303 	lsl.w	r3, r2, r3
 80050fe:	60fb      	str	r3, [r7, #12]
 8005100:	697b      	ldr	r3, [r7, #20]
 8005102:	f8d3 221c 	ldr.w	r2, [r3, #540]	@ 0x21c
 8005106:	68fb      	ldr	r3, [r7, #12]
 8005108:	43db      	mvns	r3, r3
 800510a:	401a      	ands	r2, r3
 800510c:	697b      	ldr	r3, [r7, #20]
 800510e:	f8c3 221c 	str.w	r2, [r3, #540]	@ 0x21c
 8005112:	683b      	ldr	r3, [r7, #0]
 8005114:	69db      	ldr	r3, [r3, #28]
 8005116:	2b00      	cmp	r3, #0
 8005118:	d123      	bne.n	8005162 <HAL_CAN_ConfigFilter+0xa8>
 800511a:	697b      	ldr	r3, [r7, #20]
 800511c:	f8d3 220c 	ldr.w	r2, [r3, #524]	@ 0x20c
 8005120:	68fb      	ldr	r3, [r7, #12]
 8005122:	43db      	mvns	r3, r3
 8005124:	401a      	ands	r2, r3
 8005126:	697b      	ldr	r3, [r7, #20]
 8005128:	f8c3 220c 	str.w	r2, [r3, #524]	@ 0x20c
 800512c:	683b      	ldr	r3, [r7, #0]
 800512e:	68db      	ldr	r3, [r3, #12]
 8005130:	0419      	lsls	r1, r3, #16
 8005132:	683b      	ldr	r3, [r7, #0]
 8005134:	685b      	ldr	r3, [r3, #4]
 8005136:	b29b      	uxth	r3, r3
 8005138:	683a      	ldr	r2, [r7, #0]
 800513a:	6952      	ldr	r2, [r2, #20]
 800513c:	4319      	orrs	r1, r3
 800513e:	697b      	ldr	r3, [r7, #20]
 8005140:	3248      	adds	r2, #72	@ 0x48
 8005142:	f843 1032 	str.w	r1, [r3, r2, lsl #3]
 8005146:	683b      	ldr	r3, [r7, #0]
 8005148:	689b      	ldr	r3, [r3, #8]
 800514a:	0419      	lsls	r1, r3, #16
 800514c:	683b      	ldr	r3, [r7, #0]
 800514e:	681b      	ldr	r3, [r3, #0]
 8005150:	b29a      	uxth	r2, r3
 8005152:	683b      	ldr	r3, [r7, #0]
 8005154:	695b      	ldr	r3, [r3, #20]
 8005156:	430a      	orrs	r2, r1
 8005158:	6979      	ldr	r1, [r7, #20]
 800515a:	3348      	adds	r3, #72	@ 0x48
 800515c:	00db      	lsls	r3, r3, #3
 800515e:	440b      	add	r3, r1
 8005160:	605a      	str	r2, [r3, #4]
 8005162:	683b      	ldr	r3, [r7, #0]
 8005164:	69db      	ldr	r3, [r3, #28]
 8005166:	2b01      	cmp	r3, #1
 8005168:	d122      	bne.n	80051b0 <HAL_CAN_ConfigFilter+0xf6>
 800516a:	697b      	ldr	r3, [r7, #20]
 800516c:	f8d3 220c 	ldr.w	r2, [r3, #524]	@ 0x20c
 8005170:	68fb      	ldr	r3, [r7, #12]
 8005172:	431a      	orrs	r2, r3
 8005174:	697b      	ldr	r3, [r7, #20]
 8005176:	f8c3 220c 	str.w	r2, [r3, #524]	@ 0x20c
 800517a:	683b      	ldr	r3, [r7, #0]
 800517c:	681b      	ldr	r3, [r3, #0]
 800517e:	0419      	lsls	r1, r3, #16
 8005180:	683b      	ldr	r3, [r7, #0]
 8005182:	685b      	ldr	r3, [r3, #4]
 8005184:	b29b      	uxth	r3, r3
 8005186:	683a      	ldr	r2, [r7, #0]
 8005188:	6952      	ldr	r2, [r2, #20]
 800518a:	4319      	orrs	r1, r3
 800518c:	697b      	ldr	r3, [r7, #20]
 800518e:	3248      	adds	r2, #72	@ 0x48
 8005190:	f843 1032 	str.w	r1, [r3, r2, lsl #3]
 8005194:	683b      	ldr	r3, [r7, #0]
 8005196:	689b      	ldr	r3, [r3, #8]
 8005198:	0419      	lsls	r1, r3, #16
 800519a:	683b      	ldr	r3, [r7, #0]
 800519c:	68db      	ldr	r3, [r3, #12]
 800519e:	b29a      	uxth	r2, r3
 80051a0:	683b      	ldr	r3, [r7, #0]
 80051a2:	695b      	ldr	r3, [r3, #20]
 80051a4:	430a      	orrs	r2, r1
 80051a6:	6979      	ldr	r1, [r7, #20]
 80051a8:	3348      	adds	r3, #72	@ 0x48
 80051aa:	00db      	lsls	r3, r3, #3
 80051ac:	440b      	add	r3, r1
 80051ae:	605a      	str	r2, [r3, #4]
 80051b0:	683b      	ldr	r3, [r7, #0]
 80051b2:	699b      	ldr	r3, [r3, #24]
 80051b4:	2b00      	cmp	r3, #0
 80051b6:	d109      	bne.n	80051cc <HAL_CAN_ConfigFilter+0x112>
 80051b8:	697b      	ldr	r3, [r7, #20]
 80051ba:	f8d3 2204 	ldr.w	r2, [r3, #516]	@ 0x204
 80051be:	68fb      	ldr	r3, [r7, #12]
 80051c0:	43db      	mvns	r3, r3
 80051c2:	401a      	ands	r2, r3
 80051c4:	697b      	ldr	r3, [r7, #20]
 80051c6:	f8c3 2204 	str.w	r2, [r3, #516]	@ 0x204
 80051ca:	e007      	b.n	80051dc <HAL_CAN_ConfigFilter+0x122>
 80051cc:	697b      	ldr	r3, [r7, #20]
 80051ce:	f8d3 2204 	ldr.w	r2, [r3, #516]	@ 0x204
 80051d2:	68fb      	ldr	r3, [r7, #12]
 80051d4:	431a      	orrs	r2, r3
 80051d6:	697b      	ldr	r3, [r7, #20]
 80051d8:	f8c3 2204 	str.w	r2, [r3, #516]	@ 0x204
 80051dc:	683b      	ldr	r3, [r7, #0]
 80051de:	691b      	ldr	r3, [r3, #16]
 80051e0:	2b00      	cmp	r3, #0
 80051e2:	d109      	bne.n	80051f8 <HAL_CAN_ConfigFilter+0x13e>
 80051e4:	697b      	ldr	r3, [r7, #20]
 80051e6:	f8d3 2214 	ldr.w	r2, [r3, #532]	@ 0x214
 80051ea:	68fb      	ldr	r3, [r7, #12]
 80051ec:	43db      	mvns	r3, r3
 80051ee:	401a      	ands	r2, r3
 80051f0:	697b      	ldr	r3, [r7, #20]
 80051f2:	f8c3 2214 	str.w	r2, [r3, #532]	@ 0x214
 80051f6:	e007      	b.n	8005208 <HAL_CAN_ConfigFilter+0x14e>
 80051f8:	697b      	ldr	r3, [r7, #20]
 80051fa:	f8d3 2214 	ldr.w	r2, [r3, #532]	@ 0x214
 80051fe:	68fb      	ldr	r3, [r7, #12]
 8005200:	431a      	orrs	r2, r3
 8005202:	697b      	ldr	r3, [r7, #20]
 8005204:	f8c3 2214 	str.w	r2, [r3, #532]	@ 0x214
 8005208:	683b      	ldr	r3, [r7, #0]
 800520a:	6a1b      	ldr	r3, [r3, #32]
 800520c:	2b01      	cmp	r3, #1
 800520e:	d107      	bne.n	8005220 <HAL_CAN_ConfigFilter+0x166>
 8005210:	697b      	ldr	r3, [r7, #20]
 8005212:	f8d3 221c 	ldr.w	r2, [r3, #540]	@ 0x21c
 8005216:	68fb      	ldr	r3, [r7, #12]
 8005218:	431a      	orrs	r2, r3
 800521a:	697b      	ldr	r3, [r7, #20]
 800521c:	f8c3 221c 	str.w	r2, [r3, #540]	@ 0x21c
 8005220:	697b      	ldr	r3, [r7, #20]
 8005222:	f8d3 3200 	ldr.w	r3, [r3, #512]	@ 0x200
 8005226:	f023 0201 	bic.w	r2, r3, #1
 800522a:	697b      	ldr	r3, [r7, #20]
 800522c:	f8c3 2200 	str.w	r2, [r3, #512]	@ 0x200
 8005230:	2300      	movs	r3, #0
 8005232:	e006      	b.n	8005242 <HAL_CAN_ConfigFilter+0x188>
 8005234:	687b      	ldr	r3, [r7, #4]
 8005236:	6a5b      	ldr	r3, [r3, #36]	@ 0x24
 8005238:	f443 2280 	orr.w	r2, r3, #262144	@ 0x40000
 800523c:	687b      	ldr	r3, [r7, #4]
 800523e:	625a      	str	r2, [r3, #36]	@ 0x24
 8005240:	2301      	movs	r3, #1
 8005242:	4618      	mov	r0, r3
 8005244:	371c      	adds	r7, #28
 8005246:	46bd      	mov	sp, r7
 8005248:	bc80      	pop	{r7}
 800524a:	4770      	bx	lr

0800524c <HAL_CAN_Start>:
 800524c:	b580      	push	{r7, lr}
 800524e:	b084      	sub	sp, #16
 8005250:	af00      	add	r7, sp, #0
 8005252:	6078      	str	r0, [r7, #4]
 8005254:	687b      	ldr	r3, [r7, #4]
 8005256:	f893 3020 	ldrb.w	r3, [r3, #32]
 800525a:	b2db      	uxtb	r3, r3
 800525c:	2b01      	cmp	r3, #1
 800525e:	d12e      	bne.n	80052be <HAL_CAN_Start+0x72>
 8005260:	687b      	ldr	r3, [r7, #4]
 8005262:	2202      	movs	r2, #2
 8005264:	f883 2020 	strb.w	r2, [r3, #32]
 8005268:	687b      	ldr	r3, [r7, #4]
 800526a:	681b      	ldr	r3, [r3, #0]
 800526c:	681a      	ldr	r2, [r3, #0]
 800526e:	687b      	ldr	r3, [r7, #4]
 8005270:	681b      	ldr	r3, [r3, #0]
 8005272:	f022 0201 	bic.w	r2, r2, #1
 8005276:	601a      	str	r2, [r3, #0]
 8005278:	f7ff fdd8 	bl	8004e2c <HAL_GetTick>
 800527c:	60f8      	str	r0, [r7, #12]
 800527e:	e012      	b.n	80052a6 <HAL_CAN_Start+0x5a>
 8005280:	f7ff fdd4 	bl	8004e2c <HAL_GetTick>
 8005284:	4602      	mov	r2, r0
 8005286:	68fb      	ldr	r3, [r7, #12]
 8005288:	1ad3      	subs	r3, r2, r3
 800528a:	2b0a      	cmp	r3, #10
 800528c:	d90b      	bls.n	80052a6 <HAL_CAN_Start+0x5a>
 800528e:	687b      	ldr	r3, [r7, #4]
 8005290:	6a5b      	ldr	r3, [r3, #36]	@ 0x24
 8005292:	f443 3200 	orr.w	r2, r3, #131072	@ 0x20000
 8005296:	687b      	ldr	r3, [r7, #4]
 8005298:	625a      	str	r2, [r3, #36]	@ 0x24
 800529a:	687b      	ldr	r3, [r7, #4]
 800529c:	2205      	movs	r2, #5
 800529e:	f883 2020 	strb.w	r2, [r3, #32]
 80052a2:	2301      	movs	r3, #1
 80052a4:	e012      	b.n	80052cc <HAL_CAN_Start+0x80>
 80052a6:	687b      	ldr	r3, [r7, #4]
 80052a8:	681b      	ldr	r3, [r3, #0]
 80052aa:	685b      	ldr	r3, [r3, #4]
 80052ac:	f003 0301 	and.w	r3, r3, #1
 80052b0:	2b00      	cmp	r3, #0
 80052b2:	d1e5      	bne.n	8005280 <HAL_CAN_Start+0x34>
 80052b4:	687b      	ldr	r3, [r7, #4]
 80052b6:	2200      	movs	r2, #0
 80052b8:	625a      	str	r2, [r3, #36]	@ 0x24
 80052ba:	2300      	movs	r3, #0
 80052bc:	e006      	b.n	80052cc <HAL_CAN_Start+0x80>
 80052be:	687b      	ldr	r3, [r7, #4]
 80052c0:	6a5b      	ldr	r3, [r3, #36]	@ 0x24
 80052c2:	f443 2200 	orr.w	r2, r3, #524288	@ 0x80000
 80052c6:	687b      	ldr	r3, [r7, #4]
 80052c8:	625a      	str	r2, [r3, #36]	@ 0x24
 80052ca:	2301      	movs	r3, #1
 80052cc:	4618      	mov	r0, r3
 80052ce:	3710      	adds	r7, #16
 80052d0:	46bd      	mov	sp, r7
 80052d2:	bd80      	pop	{r7, pc}

080052d4 <HAL_CAN_AddTxMessage>:
 80052d4:	b480      	push	{r7}
 80052d6:	b089      	sub	sp, #36	@ 0x24
 80052d8:	af00      	add	r7, sp, #0
 80052da:	60f8      	str	r0, [r7, #12]
 80052dc:	60b9      	str	r1, [r7, #8]
 80052de:	607a      	str	r2, [r7, #4]
 80052e0:	603b      	str	r3, [r7, #0]
 80052e2:	68fb      	ldr	r3, [r7, #12]
 80052e4:	f893 3020 	ldrb.w	r3, [r3, #32]
 80052e8:	77fb      	strb	r3, [r7, #31]
 80052ea:	68fb      	ldr	r3, [r7, #12]
 80052ec:	681b      	ldr	r3, [r3, #0]
 80052ee:	689b      	ldr	r3, [r3, #8]
 80052f0:	61bb      	str	r3, [r7, #24]
 80052f2:	7ffb      	ldrb	r3, [r7, #31]
 80052f4:	2b01      	cmp	r3, #1
 80052f6:	d003      	beq.n	8005300 <HAL_CAN_AddTxMessage+0x2c>
 80052f8:	7ffb      	ldrb	r3, [r7, #31]
 80052fa:	2b02      	cmp	r3, #2
 80052fc:	f040 80ad 	bne.w	800545a <HAL_CAN_AddTxMessage+0x186>
 8005300:	69bb      	ldr	r3, [r7, #24]
 8005302:	f003 6380 	and.w	r3, r3, #67108864	@ 0x4000000
 8005306:	2b00      	cmp	r3, #0
 8005308:	d10a      	bne.n	8005320 <HAL_CAN_AddTxMessage+0x4c>
 800530a:	69bb      	ldr	r3, [r7, #24]
 800530c:	f003 6300 	and.w	r3, r3, #134217728	@ 0x8000000
 8005310:	2b00      	cmp	r3, #0
 8005312:	d105      	bne.n	8005320 <HAL_CAN_AddTxMessage+0x4c>
 8005314:	69bb      	ldr	r3, [r7, #24]
 8005316:	f003 5380 	and.w	r3, r3, #268435456	@ 0x10000000
 800531a:	2b00      	cmp	r3, #0
 800531c:	f000 8095 	beq.w	800544a <HAL_CAN_AddTxMessage+0x176>
 8005320:	69bb      	ldr	r3, [r7, #24]
 8005322:	0e1b      	lsrs	r3, r3, #24
 8005324:	f003 0303 	and.w	r3, r3, #3
 8005328:	617b      	str	r3, [r7, #20]
 800532a:	2201      	movs	r2, #1
 800532c:	697b      	ldr	r3, [r7, #20]
 800532e:	409a      	lsls	r2, r3
 8005330:	683b      	ldr	r3, [r7, #0]
 8005332:	601a      	str	r2, [r3, #0]
 8005334:	68bb      	ldr	r3, [r7, #8]
 8005336:	689b      	ldr	r3, [r3, #8]
 8005338:	2b00      	cmp	r3, #0
 800533a:	d10d      	bne.n	8005358 <HAL_CAN_AddTxMessage+0x84>
 800533c:	68bb      	ldr	r3, [r7, #8]
 800533e:	681b      	ldr	r3, [r3, #0]
 8005340:	055a      	lsls	r2, r3, #21
 8005342:	68bb      	ldr	r3, [r7, #8]
 8005344:	68db      	ldr	r3, [r3, #12]
 8005346:	68f9      	ldr	r1, [r7, #12]
 8005348:	6809      	ldr	r1, [r1, #0]
 800534a:	431a      	orrs	r2, r3
 800534c:	697b      	ldr	r3, [r7, #20]
 800534e:	3318      	adds	r3, #24
 8005350:	011b      	lsls	r3, r3, #4
 8005352:	440b      	add	r3, r1
 8005354:	601a      	str	r2, [r3, #0]
 8005356:	e00f      	b.n	8005378 <HAL_CAN_AddTxMessage+0xa4>
 8005358:	68bb      	ldr	r3, [r7, #8]
 800535a:	685b      	ldr	r3, [r3, #4]
 800535c:	00da      	lsls	r2, r3, #3
 800535e:	68bb      	ldr	r3, [r7, #8]
 8005360:	689b      	ldr	r3, [r3, #8]
 8005362:	431a      	orrs	r2, r3
 8005364:	68bb      	ldr	r3, [r7, #8]
 8005366:	68db      	ldr	r3, [r3, #12]
 8005368:	68f9      	ldr	r1, [r7, #12]
 800536a:	6809      	ldr	r1, [r1, #0]
 800536c:	431a      	orrs	r2, r3
 800536e:	697b      	ldr	r3, [r7, #20]
 8005370:	3318      	adds	r3, #24
 8005372:	011b      	lsls	r3, r3, #4
 8005374:	440b      	add	r3, r1
 8005376:	601a      	str	r2, [r3, #0]
 8005378:	68fb      	ldr	r3, [r7, #12]
 800537a:	6819      	ldr	r1, [r3, #0]
 800537c:	68bb      	ldr	r3, [r7, #8]
 800537e:	691a      	ldr	r2, [r3, #16]
 8005380:	697b      	ldr	r3, [r7, #20]
 8005382:	3318      	adds	r3, #24
 8005384:	011b      	lsls	r3, r3, #4
 8005386:	440b      	add	r3, r1
 8005388:	3304      	adds	r3, #4
 800538a:	601a      	str	r2, [r3, #0]
 800538c:	68bb      	ldr	r3, [r7, #8]
 800538e:	7d1b      	ldrb	r3, [r3, #20]
 8005390:	2b01      	cmp	r3, #1
 8005392:	d111      	bne.n	80053b8 <HAL_CAN_AddTxMessage+0xe4>
 8005394:	68fb      	ldr	r3, [r7, #12]
 8005396:	681a      	ldr	r2, [r3, #0]
 8005398:	697b      	ldr	r3, [r7, #20]
 800539a:	3318      	adds	r3, #24
 800539c:	011b      	lsls	r3, r3, #4
 800539e:	4413      	add	r3, r2
 80053a0:	3304      	adds	r3, #4
 80053a2:	681b      	ldr	r3, [r3, #0]
 80053a4:	68fa      	ldr	r2, [r7, #12]
 80053a6:	6811      	ldr	r1, [r2, #0]
 80053a8:	f443 7280 	orr.w	r2, r3, #256	@ 0x100
 80053ac:	697b      	ldr	r3, [r7, #20]
 80053ae:	3318      	adds	r3, #24
 80053b0:	011b      	lsls	r3, r3, #4
 80053b2:	440b      	add	r3, r1
 80053b4:	3304      	adds	r3, #4
 80053b6:	601a      	str	r2, [r3, #0]
 80053b8:	687b      	ldr	r3, [r7, #4]
 80053ba:	3307      	adds	r3, #7
 80053bc:	781b      	ldrb	r3, [r3, #0]
 80053be:	061a      	lsls	r2, r3, #24
 80053c0:	687b      	ldr	r3, [r7, #4]
 80053c2:	3306      	adds	r3, #6
 80053c4:	781b      	ldrb	r3, [r3, #0]
 80053c6:	041b      	lsls	r3, r3, #16
 80053c8:	431a      	orrs	r2, r3
 80053ca:	687b      	ldr	r3, [r7, #4]
 80053cc:	3305      	adds	r3, #5
 80053ce:	781b      	ldrb	r3, [r3, #0]
 80053d0:	021b      	lsls	r3, r3, #8
 80053d2:	4313      	orrs	r3, r2
 80053d4:	687a      	ldr	r2, [r7, #4]
 80053d6:	3204      	adds	r2, #4
 80053d8:	7812      	ldrb	r2, [r2, #0]
 80053da:	4610      	mov	r0, r2
 80053dc:	68fa      	ldr	r2, [r7, #12]
 80053de:	6811      	ldr	r1, [r2, #0]
 80053e0:	ea43 0200 	orr.w	r2, r3, r0
 80053e4:	697b      	ldr	r3, [r7, #20]
 80053e6:	011b      	lsls	r3, r3, #4
 80053e8:	440b      	add	r3, r1
 80053ea:	f503 73c6 	add.w	r3, r3, #396	@ 0x18c
 80053ee:	601a      	str	r2, [r3, #0]
 80053f0:	687b      	ldr	r3, [r7, #4]
 80053f2:	3303      	adds	r3, #3
 80053f4:	781b      	ldrb	r3, [r3, #0]
 80053f6:	061a      	lsls	r2, r3, #24
 80053f8:	687b      	ldr	r3, [r7, #4]
 80053fa:	3302      	adds	r3, #2
 80053fc:	781b      	ldrb	r3, [r3, #0]
 80053fe:	041b      	lsls	r3, r3, #16
 8005400:	431a      	orrs	r2, r3
 8005402:	687b      	ldr	r3, [r7, #4]
 8005404:	3301      	adds	r3, #1
 8005406:	781b      	ldrb	r3, [r3, #0]
 8005408:	021b      	lsls	r3, r3, #8
 800540a:	4313      	orrs	r3, r2
 800540c:	687a      	ldr	r2, [r7, #4]
 800540e:	7812      	ldrb	r2, [r2, #0]
 8005410:	4610      	mov	r0, r2
 8005412:	68fa      	ldr	r2, [r7, #12]
 8005414:	6811      	ldr	r1, [r2, #0]
 8005416:	ea43 0200 	orr.w	r2, r3, r0
 800541a:	697b      	ldr	r3, [r7, #20]
 800541c:	011b      	lsls	r3, r3, #4
 800541e:	440b      	add	r3, r1
 8005420:	f503 73c4 	add.w	r3, r3, #392	@ 0x188
 8005424:	601a      	str	r2, [r3, #0]
 8005426:	68fb      	ldr	r3, [r7, #12]
 8005428:	681a      	ldr	r2, [r3, #0]
 800542a:	697b      	ldr	r3, [r7, #20]
 800542c:	3318      	adds	r3, #24
 800542e:	011b      	lsls	r3, r3, #4
 8005430:	4413      	add	r3, r2
 8005432:	681b      	ldr	r3, [r3, #0]
 8005434:	68fa      	ldr	r2, [r7, #12]
 8005436:	6811      	ldr	r1, [r2, #0]
 8005438:	f043 0201 	orr.w	r2, r3, #1
 800543c:	697b      	ldr	r3, [r7, #20]
 800543e:	3318      	adds	r3, #24
 8005440:	011b      	lsls	r3, r3, #4
 8005442:	440b      	add	r3, r1
 8005444:	601a      	str	r2, [r3, #0]
 8005446:	2300      	movs	r3, #0
 8005448:	e00e      	b.n	8005468 <HAL_CAN_AddTxMessage+0x194>
 800544a:	68fb      	ldr	r3, [r7, #12]
 800544c:	6a5b      	ldr	r3, [r3, #36]	@ 0x24
 800544e:	f443 1200 	orr.w	r2, r3, #2097152	@ 0x200000
 8005452:	68fb      	ldr	r3, [r7, #12]
 8005454:	625a      	str	r2, [r3, #36]	@ 0x24
 8005456:	2301      	movs	r3, #1
 8005458:	e006      	b.n	8005468 <HAL_CAN_AddTxMessage+0x194>
 800545a:	68fb      	ldr	r3, [r7, #12]
 800545c:	6a5b      	ldr	r3, [r3, #36]	@ 0x24
 800545e:	f443 2280 	orr.w	r2, r3, #262144	@ 0x40000
 8005462:	68fb      	ldr	r3, [r7, #12]
 8005464:	625a      	str	r2, [r3, #36]	@ 0x24
 8005466:	2301      	movs	r3, #1
 8005468:	4618      	mov	r0, r3
 800546a:	3724      	adds	r7, #36	@ 0x24
 800546c:	46bd      	mov	sp, r7
 800546e:	bc80      	pop	{r7}
 8005470:	4770      	bx	lr

08005472 <HAL_CAN_AbortTxRequest>:
 8005472:	b480      	push	{r7}
 8005474:	b085      	sub	sp, #20
 8005476:	af00      	add	r7, sp, #0
 8005478:	6078      	str	r0, [r7, #4]
 800547a:	6039      	str	r1, [r7, #0]
 800547c:	687b      	ldr	r3, [r7, #4]
 800547e:	f893 3020 	ldrb.w	r3, [r3, #32]
 8005482:	73fb      	strb	r3, [r7, #15]
 8005484:	7bfb      	ldrb	r3, [r7, #15]
 8005486:	2b01      	cmp	r3, #1
 8005488:	d002      	beq.n	8005490 <HAL_CAN_AbortTxRequest+0x1e>
 800548a:	7bfb      	ldrb	r3, [r7, #15]
 800548c:	2b02      	cmp	r3, #2
 800548e:	d128      	bne.n	80054e2 <HAL_CAN_AbortTxRequest+0x70>
 8005490:	683b      	ldr	r3, [r7, #0]
 8005492:	f003 0301 	and.w	r3, r3, #1
 8005496:	2b00      	cmp	r3, #0
 8005498:	d007      	beq.n	80054aa <HAL_CAN_AbortTxRequest+0x38>
 800549a:	687b      	ldr	r3, [r7, #4]
 800549c:	681b      	ldr	r3, [r3, #0]
 800549e:	689a      	ldr	r2, [r3, #8]
 80054a0:	687b      	ldr	r3, [r7, #4]
 80054a2:	681b      	ldr	r3, [r3, #0]
 80054a4:	f042 0280 	orr.w	r2, r2, #128	@ 0x80
 80054a8:	609a      	str	r2, [r3, #8]
 80054aa:	683b      	ldr	r3, [r7, #0]
 80054ac:	f003 0302 	and.w	r3, r3, #2
 80054b0:	2b00      	cmp	r3, #0
 80054b2:	d007      	beq.n	80054c4 <HAL_CAN_AbortTxRequest+0x52>
 80054b4:	687b      	ldr	r3, [r7, #4]
 80054b6:	681b      	ldr	r3, [r3, #0]
 80054b8:	689a      	ldr	r2, [r3, #8]
 80054ba:	687b      	ldr	r3, [r7, #4]
 80054bc:	681b      	ldr	r3, [r3, #0]
 80054be:	f442 4200 	orr.w	r2, r2, #32768	@ 0x8000
 80054c2:	609a      	str	r2, [r3, #8]
 80054c4:	683b      	ldr	r3, [r7, #0]
 80054c6:	f003 0304 	and.w	r3, r3, #4
 80054ca:	2b00      	cmp	r3, #0
 80054cc:	d007      	beq.n	80054de <HAL_CAN_AbortTxRequest+0x6c>
 80054ce:	687b      	ldr	r3, [r7, #4]
 80054d0:	681b      	ldr	r3, [r3, #0]
 80054d2:	689a      	ldr	r2, [r3, #8]
 80054d4:	687b      	ldr	r3, [r7, #4]
 80054d6:	681b      	ldr	r3, [r3, #0]
 80054d8:	f442 0200 	orr.w	r2, r2, #8388608	@ 0x800000
 80054dc:	609a      	str	r2, [r3, #8]
 80054de:	2300      	movs	r3, #0
 80054e0:	e006      	b.n	80054f0 <HAL_CAN_AbortTxRequest+0x7e>
 80054e2:	687b      	ldr	r3, [r7, #4]
 80054e4:	6a5b      	ldr	r3, [r3, #36]	@ 0x24
 80054e6:	f443 2280 	orr.w	r2, r3, #262144	@ 0x40000
 80054ea:	687b      	ldr	r3, [r7, #4]
 80054ec:	625a      	str	r2, [r3, #36]	@ 0x24
 80054ee:	2301      	movs	r3, #1
 80054f0:	4618      	mov	r0, r3
 80054f2:	3714      	adds	r7, #20
 80054f4:	46bd      	mov	sp, r7
 80054f6:	bc80      	pop	{r7}
 80054f8:	4770      	bx	lr

080054fa <HAL_CAN_GetTxMailboxesFreeLevel>:
 80054fa:	b480      	push	{r7}
 80054fc:	b085      	sub	sp, #20
 80054fe:	af00      	add	r7, sp, #0
 8005500:	6078      	str	r0, [r7, #4]
 8005502:	2300      	movs	r3, #0
 8005504:	60fb      	str	r3, [r7, #12]
 8005506:	687b      	ldr	r3, [r7, #4]
 8005508:	f893 3020 	ldrb.w	r3, [r3, #32]
 800550c:	72fb      	strb	r3, [r7, #11]
 800550e:	7afb      	ldrb	r3, [r7, #11]
 8005510:	2b01      	cmp	r3, #1
 8005512:	d002      	beq.n	800551a <HAL_CAN_GetTxMailboxesFreeLevel+0x20>
 8005514:	7afb      	ldrb	r3, [r7, #11]
 8005516:	2b02      	cmp	r3, #2
 8005518:	d11d      	bne.n	8005556 <HAL_CAN_GetTxMailboxesFreeLevel+0x5c>
 800551a:	687b      	ldr	r3, [r7, #4]
 800551c:	681b      	ldr	r3, [r3, #0]
 800551e:	689b      	ldr	r3, [r3, #8]
 8005520:	f003 6380 	and.w	r3, r3, #67108864	@ 0x4000000
 8005524:	2b00      	cmp	r3, #0
 8005526:	d002      	beq.n	800552e <HAL_CAN_GetTxMailboxesFreeLevel+0x34>
 8005528:	68fb      	ldr	r3, [r7, #12]
 800552a:	3301      	adds	r3, #1
 800552c:	60fb      	str	r3, [r7, #12]
 800552e:	687b      	ldr	r3, [r7, #4]
 8005530:	681b      	ldr	r3, [r3, #0]
 8005532:	689b      	ldr	r3, [r3, #8]
 8005534:	f003 6300 	and.w	r3, r3, #134217728	@ 0x8000000
 8005538:	2b00      	cmp	r3, #0
 800553a:	d002      	beq.n	8005542 <HAL_CAN_GetTxMailboxesFreeLevel+0x48>
 800553c:	68fb      	ldr	r3, [r7, #12]
 800553e:	3301      	adds	r3, #1
 8005540:	60fb      	str	r3, [r7, #12]
 8005542:	687b      	ldr	r3, [r7, #4]
 8005544:	681b      	ldr	r3, [r3, #0]
 8005546:	689b      	ldr	r3, [r3, #8]
 8005548:	f003 5380 	and.w	r3, r3, #268435456	@ 0x10000000
 800554c:	2b00      	cmp	r3, #0
 800554e:	d002      	beq.n	8005556 <HAL_CAN_GetTxMailboxesFreeLevel+0x5c>
 8005550:	68fb      	ldr	r3, [r7, #12]
 8005552:	3301      	adds	r3, #1
 8005554:	60fb      	str	r3, [r7, #12]
 8005556:	68fb      	ldr	r3, [r7, #12]
 8005558:	4618      	mov	r0, r3
 800555a:	3714      	adds	r7, #20
 800555c:	46bd      	mov	sp, r7
 800555e:	bc80      	pop	{r7}
 8005560:	4770      	bx	lr

08005562 <HAL_CAN_GetRxMessage>:
 8005562:	b480      	push	{r7}
 8005564:	b087      	sub	sp, #28
 8005566:	af00      	add	r7, sp, #0
 8005568:	60f8      	str	r0, [r7, #12]
 800556a:	60b9      	str	r1, [r7, #8]
 800556c:	607a      	str	r2, [r7, #4]
 800556e:	603b      	str	r3, [r7, #0]
 8005570:	68fb      	ldr	r3, [r7, #12]
 8005572:	f893 3020 	ldrb.w	r3, [r3, #32]
 8005576:	75fb      	strb	r3, [r7, #23]
 8005578:	7dfb      	ldrb	r3, [r7, #23]
 800557a:	2b01      	cmp	r3, #1
 800557c:	d003      	beq.n	8005586 <HAL_CAN_GetRxMessage+0x24>
 800557e:	7dfb      	ldrb	r3, [r7, #23]
 8005580:	2b02      	cmp	r3, #2
 8005582:	f040 8103 	bne.w	800578c <HAL_CAN_GetRxMessage+0x22a>
 8005586:	68bb      	ldr	r3, [r7, #8]
 8005588:	2b00      	cmp	r3, #0
 800558a:	d10e      	bne.n	80055aa <HAL_CAN_GetRxMessage+0x48>
 800558c:	68fb      	ldr	r3, [r7, #12]
 800558e:	681b      	ldr	r3, [r3, #0]
 8005590:	68db      	ldr	r3, [r3, #12]
 8005592:	f003 0303 	and.w	r3, r3, #3
 8005596:	2b00      	cmp	r3, #0
 8005598:	d116      	bne.n	80055c8 <HAL_CAN_GetRxMessage+0x66>
 800559a:	68fb      	ldr	r3, [r7, #12]
 800559c:	6a5b      	ldr	r3, [r3, #36]	@ 0x24
 800559e:	f443 1200 	orr.w	r2, r3, #2097152	@ 0x200000
 80055a2:	68fb      	ldr	r3, [r7, #12]
 80055a4:	625a      	str	r2, [r3, #36]	@ 0x24
 80055a6:	2301      	movs	r3, #1
 80055a8:	e0f7      	b.n	800579a <HAL_CAN_GetRxMessage+0x238>
 80055aa:	68fb      	ldr	r3, [r7, #12]
 80055ac:	681b      	ldr	r3, [r3, #0]
 80055ae:	691b      	ldr	r3, [r3, #16]
 80055b0:	f003 0303 	and.w	r3, r3, #3
 80055b4:	2b00      	cmp	r3, #0
 80055b6:	d107      	bne.n	80055c8 <HAL_CAN_GetRxMessage+0x66>
 80055b8:	68fb      	ldr	r3, [r7, #12]
 80055ba:	6a5b      	ldr	r3, [r3, #36]	@ 0x24
 80055bc:	f443 1200 	orr.w	r2, r3, #2097152	@ 0x200000
 80055c0:	68fb      	ldr	r3, [r7, #12]
 80055c2:	625a      	str	r2, [r3, #36]	@ 0x24
 80055c4:	2301      	movs	r3, #1
 80055c6:	e0e8      	b.n	800579a <HAL_CAN_GetRxMessage+0x238>
 80055c8:	68fb      	ldr	r3, [r7, #12]
 80055ca:	681a      	ldr	r2, [r3, #0]
 80055cc:	68bb      	ldr	r3, [r7, #8]
 80055ce:	331b      	adds	r3, #27
 80055d0:	011b      	lsls	r3, r3, #4
 80055d2:	4413      	add	r3, r2
 80055d4:	681b      	ldr	r3, [r3, #0]
 80055d6:	f003 0204 	and.w	r2, r3, #4
 80055da:	687b      	ldr	r3, [r7, #4]
 80055dc:	609a      	str	r2, [r3, #8]
 80055de:	687b      	ldr	r3, [r7, #4]
 80055e0:	689b      	ldr	r3, [r3, #8]
 80055e2:	2b00      	cmp	r3, #0
 80055e4:	d10c      	bne.n	8005600 <HAL_CAN_GetRxMessage+0x9e>
 80055e6:	68fb      	ldr	r3, [r7, #12]
 80055e8:	681a      	ldr	r2, [r3, #0]
 80055ea:	68bb      	ldr	r3, [r7, #8]
 80055ec:	331b      	adds	r3, #27
 80055ee:	011b      	lsls	r3, r3, #4
 80055f0:	4413      	add	r3, r2
 80055f2:	681b      	ldr	r3, [r3, #0]
 80055f4:	0d5b      	lsrs	r3, r3, #21
 80055f6:	f3c3 020a 	ubfx	r2, r3, #0, #11
 80055fa:	687b      	ldr	r3, [r7, #4]
 80055fc:	601a      	str	r2, [r3, #0]
 80055fe:	e00b      	b.n	8005618 <HAL_CAN_GetRxMessage+0xb6>
 8005600:	68fb      	ldr	r3, [r7, #12]
 8005602:	681a      	ldr	r2, [r3, #0]
 8005604:	68bb      	ldr	r3, [r7, #8]
 8005606:	331b      	adds	r3, #27
 8005608:	011b      	lsls	r3, r3, #4
 800560a:	4413      	add	r3, r2
 800560c:	681b      	ldr	r3, [r3, #0]
 800560e:	08db      	lsrs	r3, r3, #3
 8005610:	f023 4260 	bic.w	r2, r3, #3758096384	@ 0xe0000000
 8005614:	687b      	ldr	r3, [r7, #4]
 8005616:	605a      	str	r2, [r3, #4]
 8005618:	68fb      	ldr	r3, [r7, #12]
 800561a:	681a      	ldr	r2, [r3, #0]
 800561c:	68bb      	ldr	r3, [r7, #8]
 800561e:	331b      	adds	r3, #27
 8005620:	011b      	lsls	r3, r3, #4
 8005622:	4413      	add	r3, r2
 8005624:	681b      	ldr	r3, [r3, #0]
 8005626:	f003 0202 	and.w	r2, r3, #2
 800562a:	687b      	ldr	r3, [r7, #4]
 800562c:	60da      	str	r2, [r3, #12]
 800562e:	68fb      	ldr	r3, [r7, #12]
 8005630:	681a      	ldr	r2, [r3, #0]
 8005632:	68bb      	ldr	r3, [r7, #8]
 8005634:	331b      	adds	r3, #27
 8005636:	011b      	lsls	r3, r3, #4
 8005638:	4413      	add	r3, r2
 800563a:	3304      	adds	r3, #4
 800563c:	681b      	ldr	r3, [r3, #0]
 800563e:	f003 0308 	and.w	r3, r3, #8
 8005642:	2b00      	cmp	r3, #0
 8005644:	d003      	beq.n	800564e <HAL_CAN_GetRxMessage+0xec>
 8005646:	687b      	ldr	r3, [r7, #4]
 8005648:	2208      	movs	r2, #8
 800564a:	611a      	str	r2, [r3, #16]
 800564c:	e00b      	b.n	8005666 <HAL_CAN_GetRxMessage+0x104>
 800564e:	68fb      	ldr	r3, [r7, #12]
 8005650:	681a      	ldr	r2, [r3, #0]
 8005652:	68bb      	ldr	r3, [r7, #8]
 8005654:	331b      	adds	r3, #27
 8005656:	011b      	lsls	r3, r3, #4
 8005658:	4413      	add	r3, r2
 800565a:	3304      	adds	r3, #4
 800565c:	681b      	ldr	r3, [r3, #0]
 800565e:	f003 020f 	and.w	r2, r3, #15
 8005662:	687b      	ldr	r3, [r7, #4]
 8005664:	611a      	str	r2, [r3, #16]
 8005666:	68fb      	ldr	r3, [r7, #12]
 8005668:	681a      	ldr	r2, [r3, #0]
 800566a:	68bb      	ldr	r3, [r7, #8]
 800566c:	331b      	adds	r3, #27
 800566e:	011b      	lsls	r3, r3, #4
 8005670:	4413      	add	r3, r2
 8005672:	3304      	adds	r3, #4
 8005674:	681b      	ldr	r3, [r3, #0]
 8005676:	0a1b      	lsrs	r3, r3, #8
 8005678:	b2da      	uxtb	r2, r3
 800567a:	687b      	ldr	r3, [r7, #4]
 800567c:	619a      	str	r2, [r3, #24]
 800567e:	68fb      	ldr	r3, [r7, #12]
 8005680:	681a      	ldr	r2, [r3, #0]
 8005682:	68bb      	ldr	r3, [r7, #8]
 8005684:	331b      	adds	r3, #27
 8005686:	011b      	lsls	r3, r3, #4
 8005688:	4413      	add	r3, r2
 800568a:	3304      	adds	r3, #4
 800568c:	681b      	ldr	r3, [r3, #0]
 800568e:	0c1b      	lsrs	r3, r3, #16
 8005690:	b29a      	uxth	r2, r3
 8005692:	687b      	ldr	r3, [r7, #4]
 8005694:	615a      	str	r2, [r3, #20]
 8005696:	68fb      	ldr	r3, [r7, #12]
 8005698:	681a      	ldr	r2, [r3, #0]
 800569a:	68bb      	ldr	r3, [r7, #8]
 800569c:	011b      	lsls	r3, r3, #4
 800569e:	4413      	add	r3, r2
 80056a0:	f503 73dc 	add.w	r3, r3, #440	@ 0x1b8
 80056a4:	681b      	ldr	r3, [r3, #0]
 80056a6:	b2da      	uxtb	r2, r3
 80056a8:	683b      	ldr	r3, [r7, #0]
 80056aa:	701a      	strb	r2, [r3, #0]
 80056ac:	68fb      	ldr	r3, [r7, #12]
 80056ae:	681a      	ldr	r2, [r3, #0]
 80056b0:	68bb      	ldr	r3, [r7, #8]
 80056b2:	011b      	lsls	r3, r3, #4
 80056b4:	4413      	add	r3, r2
 80056b6:	f503 73dc 	add.w	r3, r3, #440	@ 0x1b8
 80056ba:	681b      	ldr	r3, [r3, #0]
 80056bc:	0a1a      	lsrs	r2, r3, #8
 80056be:	683b      	ldr	r3, [r7, #0]
 80056c0:	3301      	adds	r3, #1
 80056c2:	b2d2      	uxtb	r2, r2
 80056c4:	701a      	strb	r2, [r3, #0]
 80056c6:	68fb      	ldr	r3, [r7, #12]
 80056c8:	681a      	ldr	r2, [r3, #0]
 80056ca:	68bb      	ldr	r3, [r7, #8]
 80056cc:	011b      	lsls	r3, r3, #4
 80056ce:	4413      	add	r3, r2
 80056d0:	f503 73dc 	add.w	r3, r3, #440	@ 0x1b8
 80056d4:	681b      	ldr	r3, [r3, #0]
 80056d6:	0c1a      	lsrs	r2, r3, #16
 80056d8:	683b      	ldr	r3, [r7, #0]
 80056da:	3302      	adds	r3, #2
 80056dc:	b2d2      	uxtb	r2, r2
 80056de:	701a      	strb	r2, [r3, #0]
 80056e0:	68fb      	ldr	r3, [r7, #12]
 80056e2:	681a      	ldr	r2, [r3, #0]
 80056e4:	68bb      	ldr	r3, [r7, #8]
 80056e6:	011b      	lsls	r3, r3, #4
 80056e8:	4413      	add	r3, r2
 80056ea:	f503 73dc 	add.w	r3, r3, #440	@ 0x1b8
 80056ee:	681b      	ldr	r3, [r3, #0]
 80056f0:	0e1a      	lsrs	r2, r3, #24
 80056f2:	683b      	ldr	r3, [r7, #0]
 80056f4:	3303      	adds	r3, #3
 80056f6:	b2d2      	uxtb	r2, r2
 80056f8:	701a      	strb	r2, [r3, #0]
 80056fa:	68fb      	ldr	r3, [r7, #12]
 80056fc:	681a      	ldr	r2, [r3, #0]
 80056fe:	68bb      	ldr	r3, [r7, #8]
 8005700:	011b      	lsls	r3, r3, #4
 8005702:	4413      	add	r3, r2
 8005704:	f503 73de 	add.w	r3, r3, #444	@ 0x1bc
 8005708:	681a      	ldr	r2, [r3, #0]
 800570a:	683b      	ldr	r3, [r7, #0]
 800570c:	3304      	adds	r3, #4
 800570e:	b2d2      	uxtb	r2, r2
 8005710:	701a      	strb	r2, [r3, #0]
 8005712:	68fb      	ldr	r3, [r7, #12]
 8005714:	681a      	ldr	r2, [r3, #0]
 8005716:	68bb      	ldr	r3, [r7, #8]
 8005718:	011b      	lsls	r3, r3, #4
 800571a:	4413      	add	r3, r2
 800571c:	f503 73de 	add.w	r3, r3, #444	@ 0x1bc
 8005720:	681b      	ldr	r3, [r3, #0]
 8005722:	0a1a      	lsrs	r2, r3, #8
 8005724:	683b      	ldr	r3, [r7, #0]
 8005726:	3305      	adds	r3, #5
 8005728:	b2d2      	uxtb	r2, r2
 800572a:	701a      	strb	r2, [r3, #0]
 800572c:	68fb      	ldr	r3, [r7, #12]
 800572e:	681a      	ldr	r2, [r3, #0]
 8005730:	68bb      	ldr	r3, [r7, #8]
 8005732:	011b      	lsls	r3, r3, #4
 8005734:	4413      	add	r3, r2
 8005736:	f503 73de 	add.w	r3, r3, #444	@ 0x1bc
 800573a:	681b      	ldr	r3, [r3, #0]
 800573c:	0c1a      	lsrs	r2, r3, #16
 800573e:	683b      	ldr	r3, [r7, #0]
 8005740:	3306      	adds	r3, #6
 8005742:	b2d2      	uxtb	r2, r2
 8005744:	701a      	strb	r2, [r3, #0]
 8005746:	68fb      	ldr	r3, [r7, #12]
 8005748:	681a      	ldr	r2, [r3, #0]
 800574a:	68bb      	ldr	r3, [r7, #8]
 800574c:	011b      	lsls	r3, r3, #4
 800574e:	4413      	add	r3, r2
 8005750:	f503 73de 	add.w	r3, r3, #444	@ 0x1bc
 8005754:	681b      	ldr	r3, [r3, #0]
 8005756:	0e1a      	lsrs	r2, r3, #24
 8005758:	683b      	ldr	r3, [r7, #0]
 800575a:	3307      	adds	r3, #7
 800575c:	b2d2      	uxtb	r2, r2
 800575e:	701a      	strb	r2, [r3, #0]
 8005760:	68bb      	ldr	r3, [r7, #8]
 8005762:	2b00      	cmp	r3, #0
 8005764:	d108      	bne.n	8005778 <HAL_CAN_GetRxMessage+0x216>
 8005766:	68fb      	ldr	r3, [r7, #12]
 8005768:	681b      	ldr	r3, [r3, #0]
 800576a:	68da      	ldr	r2, [r3, #12]
 800576c:	68fb      	ldr	r3, [r7, #12]
 800576e:	681b      	ldr	r3, [r3, #0]
 8005770:	f042 0220 	orr.w	r2, r2, #32
 8005774:	60da      	str	r2, [r3, #12]
 8005776:	e007      	b.n	8005788 <HAL_CAN_GetRxMessage+0x226>
 8005778:	68fb      	ldr	r3, [r7, #12]
 800577a:	681b      	ldr	r3, [r3, #0]
 800577c:	691a      	ldr	r2, [r3, #16]
 800577e:	68fb      	ldr	r3, [r7, #12]
 8005780:	681b      	ldr	r3, [r3, #0]
 8005782:	f042 0220 	orr.w	r2, r2, #32
 8005786:	611a      	str	r2, [r3, #16]
 8005788:	2300      	movs	r3, #0
 800578a:	e006      	b.n	800579a <HAL_CAN_GetRxMessage+0x238>
 800578c:	68fb      	ldr	r3, [r7, #12]
 800578e:	6a5b      	ldr	r3, [r3, #36]	@ 0x24
 8005790:	f443 2280 	orr.w	r2, r3, #262144	@ 0x40000
 8005794:	68fb      	ldr	r3, [r7, #12]
 8005796:	625a      	str	r2, [r3, #36]	@ 0x24
 8005798:	2301      	movs	r3, #1
 800579a:	4618      	mov	r0, r3
 800579c:	371c      	adds	r7, #28
 800579e:	46bd      	mov	sp, r7
 80057a0:	bc80      	pop	{r7}
 80057a2:	4770      	bx	lr

080057a4 <HAL_CAN_ActivateNotification>:
 80057a4:	b480      	push	{r7}
 80057a6:	b085      	sub	sp, #20
 80057a8:	af00      	add	r7, sp, #0
 80057aa:	6078      	str	r0, [r7, #4]
 80057ac:	6039      	str	r1, [r7, #0]
 80057ae:	687b      	ldr	r3, [r7, #4]
 80057b0:	f893 3020 	ldrb.w	r3, [r3, #32]
 80057b4:	73fb      	strb	r3, [r7, #15]
 80057b6:	7bfb      	ldrb	r3, [r7, #15]
 80057b8:	2b01      	cmp	r3, #1
 80057ba:	d002      	beq.n	80057c2 <HAL_CAN_ActivateNotification+0x1e>
 80057bc:	7bfb      	ldrb	r3, [r7, #15]
 80057be:	2b02      	cmp	r3, #2
 80057c0:	d109      	bne.n	80057d6 <HAL_CAN_ActivateNotification+0x32>
 80057c2:	687b      	ldr	r3, [r7, #4]
 80057c4:	681b      	ldr	r3, [r3, #0]
 80057c6:	6959      	ldr	r1, [r3, #20]
 80057c8:	687b      	ldr	r3, [r7, #4]
 80057ca:	681b      	ldr	r3, [r3, #0]
 80057cc:	683a      	ldr	r2, [r7, #0]
 80057ce:	430a      	orrs	r2, r1
 80057d0:	615a      	str	r2, [r3, #20]
 80057d2:	2300      	movs	r3, #0
 80057d4:	e006      	b.n	80057e4 <HAL_CAN_ActivateNotification+0x40>
 80057d6:	687b      	ldr	r3, [r7, #4]
 80057d8:	6a5b      	ldr	r3, [r3, #36]	@ 0x24
 80057da:	f443 2280 	orr.w	r2, r3, #262144	@ 0x40000
 80057de:	687b      	ldr	r3, [r7, #4]
 80057e0:	625a      	str	r2, [r3, #36]	@ 0x24
 80057e2:	2301      	movs	r3, #1
 80057e4:	4618      	mov	r0, r3
 80057e6:	3714      	adds	r7, #20
 80057e8:	46bd      	mov	sp, r7
 80057ea:	bc80      	pop	{r7}
 80057ec:	4770      	bx	lr

080057ee <HAL_CAN_IRQHandler>:
 80057ee:	b580      	push	{r7, lr}
 80057f0:	b08a      	sub	sp, #40	@ 0x28
 80057f2:	af00      	add	r7, sp, #0
 80057f4:	6078      	str	r0, [r7, #4]
 80057f6:	2300      	movs	r3, #0
 80057f8:	627b      	str	r3, [r7, #36]	@ 0x24
 80057fa:	687b      	ldr	r3, [r7, #4]
 80057fc:	681b      	ldr	r3, [r3, #0]
 80057fe:	695b      	ldr	r3, [r3, #20]
 8005800:	623b      	str	r3, [r7, #32]
 8005802:	687b      	ldr	r3, [r7, #4]
 8005804:	681b      	ldr	r3, [r3, #0]
 8005806:	685b      	ldr	r3, [r3, #4]
 8005808:	61fb      	str	r3, [r7, #28]
 800580a:	687b      	ldr	r3, [r7, #4]
 800580c:	681b      	ldr	r3, [r3, #0]
 800580e:	689b      	ldr	r3, [r3, #8]
 8005810:	61bb      	str	r3, [r7, #24]
 8005812:	687b      	ldr	r3, [r7, #4]
 8005814:	681b      	ldr	r3, [r3, #0]
 8005816:	68db      	ldr	r3, [r3, #12]
 8005818:	617b      	str	r3, [r7, #20]
 800581a:	687b      	ldr	r3, [r7, #4]
 800581c:	681b      	ldr	r3, [r3, #0]
 800581e:	691b      	ldr	r3, [r3, #16]
 8005820:	613b      	str	r3, [r7, #16]
 8005822:	687b      	ldr	r3, [r7, #4]
 8005824:	681b      	ldr	r3, [r3, #0]
 8005826:	699b      	ldr	r3, [r3, #24]
 8005828:	60fb      	str	r3, [r7, #12]
 800582a:	6a3b      	ldr	r3, [r7, #32]
 800582c:	f003 0301 	and.w	r3, r3, #1
 8005830:	2b00      	cmp	r3, #0
 8005832:	d07c      	beq.n	800592e <HAL_CAN_IRQHandler+0x140>
 8005834:	69bb      	ldr	r3, [r7, #24]
 8005836:	f003 0301 	and.w	r3, r3, #1
 800583a:	2b00      	cmp	r3, #0
 800583c:	d023      	beq.n	8005886 <HAL_CAN_IRQHandler+0x98>
 800583e:	687b      	ldr	r3, [r7, #4]
 8005840:	681b      	ldr	r3, [r3, #0]
 8005842:	2201      	movs	r2, #1
 8005844:	609a      	str	r2, [r3, #8]
 8005846:	69bb      	ldr	r3, [r7, #24]
 8005848:	f003 0302 	and.w	r3, r3, #2
 800584c:	2b00      	cmp	r3, #0
 800584e:	d003      	beq.n	8005858 <HAL_CAN_IRQHandler+0x6a>
 8005850:	6878      	ldr	r0, [r7, #4]
 8005852:	f000 f983 	bl	8005b5c <HAL_CAN_TxMailbox0CompleteCallback>
 8005856:	e016      	b.n	8005886 <HAL_CAN_IRQHandler+0x98>
 8005858:	69bb      	ldr	r3, [r7, #24]
 800585a:	f003 0304 	and.w	r3, r3, #4
 800585e:	2b00      	cmp	r3, #0
 8005860:	d004      	beq.n	800586c <HAL_CAN_IRQHandler+0x7e>
 8005862:	6a7b      	ldr	r3, [r7, #36]	@ 0x24
 8005864:	f443 6300 	orr.w	r3, r3, #2048	@ 0x800
 8005868:	627b      	str	r3, [r7, #36]	@ 0x24
 800586a:	e00c      	b.n	8005886 <HAL_CAN_IRQHandler+0x98>
 800586c:	69bb      	ldr	r3, [r7, #24]
 800586e:	f003 0308 	and.w	r3, r3, #8
 8005872:	2b00      	cmp	r3, #0
 8005874:	d004      	beq.n	8005880 <HAL_CAN_IRQHandler+0x92>
 8005876:	6a7b      	ldr	r3, [r7, #36]	@ 0x24
 8005878:	f443 5380 	orr.w	r3, r3, #4096	@ 0x1000
 800587c:	627b      	str	r3, [r7, #36]	@ 0x24
 800587e:	e002      	b.n	8005886 <HAL_CAN_IRQHandler+0x98>
 8005880:	6878      	ldr	r0, [r7, #4]
 8005882:	f000 f986 	bl	8005b92 <HAL_CAN_TxMailbox0AbortCallback>
 8005886:	69bb      	ldr	r3, [r7, #24]
 8005888:	f403 7380 	and.w	r3, r3, #256	@ 0x100
 800588c:	2b00      	cmp	r3, #0
 800588e:	d024      	beq.n	80058da <HAL_CAN_IRQHandler+0xec>
 8005890:	687b      	ldr	r3, [r7, #4]
 8005892:	681b      	ldr	r3, [r3, #0]
 8005894:	f44f 7280 	mov.w	r2, #256	@ 0x100
 8005898:	609a      	str	r2, [r3, #8]
 800589a:	69bb      	ldr	r3, [r7, #24]
 800589c:	f403 7300 	and.w	r3, r3, #512	@ 0x200
 80058a0:	2b00      	cmp	r3, #0
 80058a2:	d003      	beq.n	80058ac <HAL_CAN_IRQHandler+0xbe>
 80058a4:	6878      	ldr	r0, [r7, #4]
 80058a6:	f000 f962 	bl	8005b6e <HAL_CAN_TxMailbox1CompleteCallback>
 80058aa:	e016      	b.n	80058da <HAL_CAN_IRQHandler+0xec>
 80058ac:	69bb      	ldr	r3, [r7, #24]
 80058ae:	f403 6380 	and.w	r3, r3, #1024	@ 0x400
 80058b2:	2b00      	cmp	r3, #0
 80058b4:	d004      	beq.n	80058c0 <HAL_CAN_IRQHandler+0xd2>
 80058b6:	6a7b      	ldr	r3, [r7, #36]	@ 0x24
 80058b8:	f443 5300 	orr.w	r3, r3, #8192	@ 0x2000
 80058bc:	627b      	str	r3, [r7, #36]	@ 0x24
 80058be:	e00c      	b.n	80058da <HAL_CAN_IRQHandler+0xec>
 80058c0:	69bb      	ldr	r3, [r7, #24]
 80058c2:	f403 6300 	and.w	r3, r3, #2048	@ 0x800
 80058c6:	2b00      	cmp	r3, #0
 80058c8:	d004      	beq.n	80058d4 <HAL_CAN_IRQHandler+0xe6>
 80058ca:	6a7b      	ldr	r3, [r7, #36]	@ 0x24
 80058cc:	f443 4380 	orr.w	r3, r3, #16384	@ 0x4000
 80058d0:	627b      	str	r3, [r7, #36]	@ 0x24
 80058d2:	e002      	b.n	80058da <HAL_CAN_IRQHandler+0xec>
 80058d4:	6878      	ldr	r0, [r7, #4]
 80058d6:	f000 f965 	bl	8005ba4 <HAL_CAN_TxMailbox1AbortCallback>
 80058da:	69bb      	ldr	r3, [r7, #24]
 80058dc:	f403 3380 	and.w	r3, r3, #65536	@ 0x10000
 80058e0:	2b00      	cmp	r3, #0
 80058e2:	d024      	beq.n	800592e <HAL_CAN_IRQHandler+0x140>
 80058e4:	687b      	ldr	r3, [r7, #4]
 80058e6:	681b      	ldr	r3, [r3, #0]
 80058e8:	f44f 3280 	mov.w	r2, #65536	@ 0x10000
 80058ec:	609a      	str	r2, [r3, #8]
 80058ee:	69bb      	ldr	r3, [r7, #24]
 80058f0:	f403 3300 	and.w	r3, r3, #131072	@ 0x20000
 80058f4:	2b00      	cmp	r3, #0
 80058f6:	d003      	beq.n	8005900 <HAL_CAN_IRQHandler+0x112>
 80058f8:	6878      	ldr	r0, [r7, #4]
 80058fa:	f000 f941 	bl	8005b80 <HAL_CAN_TxMailbox2CompleteCallback>
 80058fe:	e016      	b.n	800592e <HAL_CAN_IRQHandler+0x140>
 8005900:	69bb      	ldr	r3, [r7, #24]
 8005902:	f403 2380 	and.w	r3, r3, #262144	@ 0x40000
 8005906:	2b00      	cmp	r3, #0
 8005908:	d004      	beq.n	8005914 <HAL_CAN_IRQHandler+0x126>
 800590a:	6a7b      	ldr	r3, [r7, #36]	@ 0x24
 800590c:	f443 4300 	orr.w	r3, r3, #32768	@ 0x8000
 8005910:	627b      	str	r3, [r7, #36]	@ 0x24
 8005912:	e00c      	b.n	800592e <HAL_CAN_IRQHandler+0x140>
 8005914:	69bb      	ldr	r3, [r7, #24]
 8005916:	f403 2300 	and.w	r3, r3, #524288	@ 0x80000
 800591a:	2b00      	cmp	r3, #0
 800591c:	d004      	beq.n	8005928 <HAL_CAN_IRQHandler+0x13a>
 800591e:	6a7b      	ldr	r3, [r7, #36]	@ 0x24
 8005920:	f443 3380 	orr.w	r3, r3, #65536	@ 0x10000
 8005924:	627b      	str	r3, [r7, #36]	@ 0x24
 8005926:	e002      	b.n	800592e <HAL_CAN_IRQHandler+0x140>
 8005928:	6878      	ldr	r0, [r7, #4]
 800592a:	f000 f944 	bl	8005bb6 <HAL_CAN_TxMailbox2AbortCallback>
 800592e:	6a3b      	ldr	r3, [r7, #32]
 8005930:	f003 0308 	and.w	r3, r3, #8
 8005934:	2b00      	cmp	r3, #0
 8005936:	d00c      	beq.n	8005952 <HAL_CAN_IRQHandler+0x164>
 8005938:	697b      	ldr	r3, [r7, #20]
 800593a:	f003 0310 	and.w	r3, r3, #16
 800593e:	2b00      	cmp	r3, #0
 8005940:	d007      	beq.n	8005952 <HAL_CAN_IRQHandler+0x164>
 8005942:	6a7b      	ldr	r3, [r7, #36]	@ 0x24
 8005944:	f443 7300 	orr.w	r3, r3, #512	@ 0x200
 8005948:	627b      	str	r3, [r7, #36]	@ 0x24
 800594a:	687b      	ldr	r3, [r7, #4]
 800594c:	681b      	ldr	r3, [r3, #0]
 800594e:	2210      	movs	r2, #16
 8005950:	60da      	str	r2, [r3, #12]
 8005952:	6a3b      	ldr	r3, [r7, #32]
 8005954:	f003 0304 	and.w	r3, r3, #4
 8005958:	2b00      	cmp	r3, #0
 800595a:	d00b      	beq.n	8005974 <HAL_CAN_IRQHandler+0x186>
 800595c:	697b      	ldr	r3, [r7, #20]
 800595e:	f003 0308 	and.w	r3, r3, #8
 8005962:	2b00      	cmp	r3, #0
 8005964:	d006      	beq.n	8005974 <HAL_CAN_IRQHandler+0x186>
 8005966:	687b      	ldr	r3, [r7, #4]
 8005968:	681b      	ldr	r3, [r3, #0]
 800596a:	2208      	movs	r2, #8
 800596c:	60da      	str	r2, [r3, #12]
 800596e:	6878      	ldr	r0, [r7, #4]
 8005970:	f000 f92a 	bl	8005bc8 <HAL_CAN_RxFifo0FullCallback>
 8005974:	6a3b      	ldr	r3, [r7, #32]
 8005976:	f003 0302 	and.w	r3, r3, #2
 800597a:	2b00      	cmp	r3, #0
 800597c:	d009      	beq.n	8005992 <HAL_CAN_IRQHandler+0x1a4>
 800597e:	687b      	ldr	r3, [r7, #4]
 8005980:	681b      	ldr	r3, [r3, #0]
 8005982:	68db      	ldr	r3, [r3, #12]
 8005984:	f003 0303 	and.w	r3, r3, #3
 8005988:	2b00      	cmp	r3, #0
 800598a:	d002      	beq.n	8005992 <HAL_CAN_IRQHandler+0x1a4>
 800598c:	6878      	ldr	r0, [r7, #4]
 800598e:	f7fc fbed 	bl	800216c <HAL_CAN_RxFifo0MsgPendingCallback>
 8005992:	6a3b      	ldr	r3, [r7, #32]
 8005994:	f003 0340 	and.w	r3, r3, #64	@ 0x40
 8005998:	2b00      	cmp	r3, #0
 800599a:	d00c      	beq.n	80059b6 <HAL_CAN_IRQHandler+0x1c8>
 800599c:	693b      	ldr	r3, [r7, #16]
 800599e:	f003 0310 	and.w	r3, r3, #16
 80059a2:	2b00      	cmp	r3, #0
 80059a4:	d007      	beq.n	80059b6 <HAL_CAN_IRQHandler+0x1c8>
 80059a6:	6a7b      	ldr	r3, [r7, #36]	@ 0x24
 80059a8:	f443 6380 	orr.w	r3, r3, #1024	@ 0x400
 80059ac:	627b      	str	r3, [r7, #36]	@ 0x24
 80059ae:	687b      	ldr	r3, [r7, #4]
 80059b0:	681b      	ldr	r3, [r3, #0]
 80059b2:	2210      	movs	r2, #16
 80059b4:	611a      	str	r2, [r3, #16]
 80059b6:	6a3b      	ldr	r3, [r7, #32]
 80059b8:	f003 0320 	and.w	r3, r3, #32
 80059bc:	2b00      	cmp	r3, #0
 80059be:	d00b      	beq.n	80059d8 <HAL_CAN_IRQHandler+0x1ea>
 80059c0:	693b      	ldr	r3, [r7, #16]
 80059c2:	f003 0308 	and.w	r3, r3, #8
 80059c6:	2b00      	cmp	r3, #0
 80059c8:	d006      	beq.n	80059d8 <HAL_CAN_IRQHandler+0x1ea>
 80059ca:	687b      	ldr	r3, [r7, #4]
 80059cc:	681b      	ldr	r3, [r3, #0]
 80059ce:	2208      	movs	r2, #8
 80059d0:	611a      	str	r2, [r3, #16]
 80059d2:	6878      	ldr	r0, [r7, #4]
 80059d4:	f000 f90a 	bl	8005bec <HAL_CAN_RxFifo1FullCallback>
 80059d8:	6a3b      	ldr	r3, [r7, #32]
 80059da:	f003 0310 	and.w	r3, r3, #16
 80059de:	2b00      	cmp	r3, #0
 80059e0:	d009      	beq.n	80059f6 <HAL_CAN_IRQHandler+0x208>
 80059e2:	687b      	ldr	r3, [r7, #4]
 80059e4:	681b      	ldr	r3, [r3, #0]
 80059e6:	691b      	ldr	r3, [r3, #16]
 80059e8:	f003 0303 	and.w	r3, r3, #3
 80059ec:	2b00      	cmp	r3, #0
 80059ee:	d002      	beq.n	80059f6 <HAL_CAN_IRQHandler+0x208>
 80059f0:	6878      	ldr	r0, [r7, #4]
 80059f2:	f000 f8f2 	bl	8005bda <HAL_CAN_RxFifo1MsgPendingCallback>
 80059f6:	6a3b      	ldr	r3, [r7, #32]
 80059f8:	f403 3300 	and.w	r3, r3, #131072	@ 0x20000
 80059fc:	2b00      	cmp	r3, #0
 80059fe:	d00b      	beq.n	8005a18 <HAL_CAN_IRQHandler+0x22a>
 8005a00:	69fb      	ldr	r3, [r7, #28]
 8005a02:	f003 0310 	and.w	r3, r3, #16
 8005a06:	2b00      	cmp	r3, #0
 8005a08:	d006      	beq.n	8005a18 <HAL_CAN_IRQHandler+0x22a>
 8005a0a:	687b      	ldr	r3, [r7, #4]
 8005a0c:	681b      	ldr	r3, [r3, #0]
 8005a0e:	2210      	movs	r2, #16
 8005a10:	605a      	str	r2, [r3, #4]
 8005a12:	6878      	ldr	r0, [r7, #4]
 8005a14:	f000 f8f3 	bl	8005bfe <HAL_CAN_SleepCallback>
 8005a18:	6a3b      	ldr	r3, [r7, #32]
 8005a1a:	f403 3380 	and.w	r3, r3, #65536	@ 0x10000
 8005a1e:	2b00      	cmp	r3, #0
 8005a20:	d00b      	beq.n	8005a3a <HAL_CAN_IRQHandler+0x24c>
 8005a22:	69fb      	ldr	r3, [r7, #28]
 8005a24:	f003 0308 	and.w	r3, r3, #8
 8005a28:	2b00      	cmp	r3, #0
 8005a2a:	d006      	beq.n	8005a3a <HAL_CAN_IRQHandler+0x24c>
 8005a2c:	687b      	ldr	r3, [r7, #4]
 8005a2e:	681b      	ldr	r3, [r3, #0]
 8005a30:	2208      	movs	r2, #8
 8005a32:	605a      	str	r2, [r3, #4]
 8005a34:	6878      	ldr	r0, [r7, #4]
 8005a36:	f000 f8eb 	bl	8005c10 <HAL_CAN_WakeUpFromRxMsgCallback>
 8005a3a:	6a3b      	ldr	r3, [r7, #32]
 8005a3c:	f403 4300 	and.w	r3, r3, #32768	@ 0x8000
 8005a40:	2b00      	cmp	r3, #0
 8005a42:	d07b      	beq.n	8005b3c <HAL_CAN_IRQHandler+0x34e>
 8005a44:	69fb      	ldr	r3, [r7, #28]
 8005a46:	f003 0304 	and.w	r3, r3, #4
 8005a4a:	2b00      	cmp	r3, #0
 8005a4c:	d072      	beq.n	8005b34 <HAL_CAN_IRQHandler+0x346>
 8005a4e:	6a3b      	ldr	r3, [r7, #32]
 8005a50:	f403 7380 	and.w	r3, r3, #256	@ 0x100
 8005a54:	2b00      	cmp	r3, #0
 8005a56:	d008      	beq.n	8005a6a <HAL_CAN_IRQHandler+0x27c>
 8005a58:	68fb      	ldr	r3, [r7, #12]
 8005a5a:	f003 0301 	and.w	r3, r3, #1
 8005a5e:	2b00      	cmp	r3, #0
 8005a60:	d003      	beq.n	8005a6a <HAL_CAN_IRQHandler+0x27c>
 8005a62:	6a7b      	ldr	r3, [r7, #36]	@ 0x24
 8005a64:	f043 0301 	orr.w	r3, r3, #1
 8005a68:	627b      	str	r3, [r7, #36]	@ 0x24
 8005a6a:	6a3b      	ldr	r3, [r7, #32]
 8005a6c:	f403 7300 	and.w	r3, r3, #512	@ 0x200
 8005a70:	2b00      	cmp	r3, #0
 8005a72:	d008      	beq.n	8005a86 <HAL_CAN_IRQHandler+0x298>
 8005a74:	68fb      	ldr	r3, [r7, #12]
 8005a76:	f003 0302 	and.w	r3, r3, #2
 8005a7a:	2b00      	cmp	r3, #0
 8005a7c:	d003      	beq.n	8005a86 <HAL_CAN_IRQHandler+0x298>
 8005a7e:	6a7b      	ldr	r3, [r7, #36]	@ 0x24
 8005a80:	f043 0302 	orr.w	r3, r3, #2
 8005a84:	627b      	str	r3, [r7, #36]	@ 0x24
 8005a86:	6a3b      	ldr	r3, [r7, #32]
 8005a88:	f403 6380 	and.w	r3, r3, #1024	@ 0x400
 8005a8c:	2b00      	cmp	r3, #0
 8005a8e:	d008      	beq.n	8005aa2 <HAL_CAN_IRQHandler+0x2b4>
 8005a90:	68fb      	ldr	r3, [r7, #12]
 8005a92:	f003 0304 	and.w	r3, r3, #4
 8005a96:	2b00      	cmp	r3, #0
 8005a98:	d003      	beq.n	8005aa2 <HAL_CAN_IRQHandler+0x2b4>
 8005a9a:	6a7b      	ldr	r3, [r7, #36]	@ 0x24
 8005a9c:	f043 0304 	orr.w	r3, r3, #4
 8005aa0:	627b      	str	r3, [r7, #36]	@ 0x24
 8005aa2:	6a3b      	ldr	r3, [r7, #32]
 8005aa4:	f403 6300 	and.w	r3, r3, #2048	@ 0x800
 8005aa8:	2b00      	cmp	r3, #0
 8005aaa:	d043      	beq.n	8005b34 <HAL_CAN_IRQHandler+0x346>
 8005aac:	68fb      	ldr	r3, [r7, #12]
 8005aae:	f003 0370 	and.w	r3, r3, #112	@ 0x70
 8005ab2:	2b00      	cmp	r3, #0
 8005ab4:	d03e      	beq.n	8005b34 <HAL_CAN_IRQHandler+0x346>
 8005ab6:	68fb      	ldr	r3, [r7, #12]
 8005ab8:	f003 0370 	and.w	r3, r3, #112	@ 0x70
 8005abc:	2b60      	cmp	r3, #96	@ 0x60
 8005abe:	d02b      	beq.n	8005b18 <HAL_CAN_IRQHandler+0x32a>
 8005ac0:	2b60      	cmp	r3, #96	@ 0x60
 8005ac2:	d82e      	bhi.n	8005b22 <HAL_CAN_IRQHandler+0x334>
 8005ac4:	2b50      	cmp	r3, #80	@ 0x50
 8005ac6:	d022      	beq.n	8005b0e <HAL_CAN_IRQHandler+0x320>
 8005ac8:	2b50      	cmp	r3, #80	@ 0x50
 8005aca:	d82a      	bhi.n	8005b22 <HAL_CAN_IRQHandler+0x334>
 8005acc:	2b40      	cmp	r3, #64	@ 0x40
 8005ace:	d019      	beq.n	8005b04 <HAL_CAN_IRQHandler+0x316>
 8005ad0:	2b40      	cmp	r3, #64	@ 0x40
 8005ad2:	d826      	bhi.n	8005b22 <HAL_CAN_IRQHandler+0x334>
 8005ad4:	2b30      	cmp	r3, #48	@ 0x30
 8005ad6:	d010      	beq.n	8005afa <HAL_CAN_IRQHandler+0x30c>
 8005ad8:	2b30      	cmp	r3, #48	@ 0x30
 8005ada:	d822      	bhi.n	8005b22 <HAL_CAN_IRQHandler+0x334>
 8005adc:	2b10      	cmp	r3, #16
 8005ade:	d002      	beq.n	8005ae6 <HAL_CAN_IRQHandler+0x2f8>
 8005ae0:	2b20      	cmp	r3, #32
 8005ae2:	d005      	beq.n	8005af0 <HAL_CAN_IRQHandler+0x302>
 8005ae4:	e01d      	b.n	8005b22 <HAL_CAN_IRQHandler+0x334>
 8005ae6:	6a7b      	ldr	r3, [r7, #36]	@ 0x24
 8005ae8:	f043 0308 	orr.w	r3, r3, #8
 8005aec:	627b      	str	r3, [r7, #36]	@ 0x24
 8005aee:	e019      	b.n	8005b24 <HAL_CAN_IRQHandler+0x336>
 8005af0:	6a7b      	ldr	r3, [r7, #36]	@ 0x24
 8005af2:	f043 0310 	orr.w	r3, r3, #16
 8005af6:	627b      	str	r3, [r7, #36]	@ 0x24
 8005af8:	e014      	b.n	8005b24 <HAL_CAN_IRQHandler+0x336>
 8005afa:	6a7b      	ldr	r3, [r7, #36]	@ 0x24
 8005afc:	f043 0320 	orr.w	r3, r3, #32
 8005b00:	627b      	str	r3, [r7, #36]	@ 0x24
 8005b02:	e00f      	b.n	8005b24 <HAL_CAN_IRQHandler+0x336>
 8005b04:	6a7b      	ldr	r3, [r7, #36]	@ 0x24
 8005b06:	f043 0340 	orr.w	r3, r3, #64	@ 0x40
 8005b0a:	627b      	str	r3, [r7, #36]	@ 0x24
 8005b0c:	e00a      	b.n	8005b24 <HAL_CAN_IRQHandler+0x336>
 8005b0e:	6a7b      	ldr	r3, [r7, #36]	@ 0x24
 8005b10:	f043 0380 	orr.w	r3, r3, #128	@ 0x80
 8005b14:	627b      	str	r3, [r7, #36]	@ 0x24
 8005b16:	e005      	b.n	8005b24 <HAL_CAN_IRQHandler+0x336>
 8005b18:	6a7b      	ldr	r3, [r7, #36]	@ 0x24
 8005b1a:	f443 7380 	orr.w	r3, r3, #256	@ 0x100
 8005b1e:	627b      	str	r3, [r7, #36]	@ 0x24
 8005b20:	e000      	b.n	8005b24 <HAL_CAN_IRQHandler+0x336>
 8005b22:	bf00      	nop
 8005b24:	687b      	ldr	r3, [r7, #4]
 8005b26:	681b      	ldr	r3, [r3, #0]
 8005b28:	699a      	ldr	r2, [r3, #24]
 8005b2a:	687b      	ldr	r3, [r7, #4]
 8005b2c:	681b      	ldr	r3, [r3, #0]
 8005b2e:	f022 0270 	bic.w	r2, r2, #112	@ 0x70
 8005b32:	619a      	str	r2, [r3, #24]
 8005b34:	687b      	ldr	r3, [r7, #4]
 8005b36:	681b      	ldr	r3, [r3, #0]
 8005b38:	2204      	movs	r2, #4
 8005b3a:	605a      	str	r2, [r3, #4]
 8005b3c:	6a7b      	ldr	r3, [r7, #36]	@ 0x24
 8005b3e:	2b00      	cmp	r3, #0
 8005b40:	d008      	beq.n	8005b54 <HAL_CAN_IRQHandler+0x366>
 8005b42:	687b      	ldr	r3, [r7, #4]
 8005b44:	6a5a      	ldr	r2, [r3, #36]	@ 0x24
 8005b46:	6a7b      	ldr	r3, [r7, #36]	@ 0x24
 8005b48:	431a      	orrs	r2, r3
 8005b4a:	687b      	ldr	r3, [r7, #4]
 8005b4c:	625a      	str	r2, [r3, #36]	@ 0x24
 8005b4e:	6878      	ldr	r0, [r7, #4]
 8005b50:	f000 f867 	bl	8005c22 <HAL_CAN_ErrorCallback>
 8005b54:	bf00      	nop
 8005b56:	3728      	adds	r7, #40	@ 0x28
 8005b58:	46bd      	mov	sp, r7
 8005b5a:	bd80      	pop	{r7, pc}

08005b5c <HAL_CAN_TxMailbox0CompleteCallback>:
 8005b5c:	b480      	push	{r7}
 8005b5e:	b083      	sub	sp, #12
 8005b60:	af00      	add	r7, sp, #0
 8005b62:	6078      	str	r0, [r7, #4]
 8005b64:	bf00      	nop
 8005b66:	370c      	adds	r7, #12
 8005b68:	46bd      	mov	sp, r7
 8005b6a:	bc80      	pop	{r7}
 8005b6c:	4770      	bx	lr

08005b6e <HAL_CAN_TxMailbox1CompleteCallback>:
 8005b6e:	b480      	push	{r7}
 8005b70:	b083      	sub	sp, #12
 8005b72:	af00      	add	r7, sp, #0
 8005b74:	6078      	str	r0, [r7, #4]
 8005b76:	bf00      	nop
 8005b78:	370c      	adds	r7, #12
 8005b7a:	46bd      	mov	sp, r7
 8005b7c:	bc80      	pop	{r7}
 8005b7e:	4770      	bx	lr

08005b80 <HAL_CAN_TxMailbox2CompleteCallback>:
 8005b80:	b480      	push	{r7}
 8005b82:	b083      	sub	sp, #12
 8005b84:	af00      	add	r7, sp, #0
 8005b86:	6078      	str	r0, [r7, #4]
 8005b88:	bf00      	nop
 8005b8a:	370c      	adds	r7, #12
 8005b8c:	46bd      	mov	sp, r7
 8005b8e:	bc80      	pop	{r7}
 8005b90:	4770      	bx	lr

08005b92 <HAL_CAN_TxMailbox0AbortCallback>:
 8005b92:	b480      	push	{r7}
 8005b94:	b083      	sub	sp, #12
 8005b96:	af00      	add	r7, sp, #0
 8005b98:	6078      	str	r0, [r7, #4]
 8005b9a:	bf00      	nop
 8005b9c:	370c      	adds	r7, #12
 8005b9e:	46bd      	mov	sp, r7
 8005ba0:	bc80      	pop	{r7}
 8005ba2:	4770      	bx	lr

08005ba4 <HAL_CAN_TxMailbox1AbortCallback>:
 8005ba4:	b480      	push	{r7}
 8005ba6:	b083      	sub	sp, #12
 8005ba8:	af00      	add	r7, sp, #0
 8005baa:	6078      	str	r0, [r7, #4]
 8005bac:	bf00      	nop
 8005bae:	370c      	adds	r7, #12
 8005bb0:	46bd      	mov	sp, r7
 8005bb2:	bc80      	pop	{r7}
 8005bb4:	4770      	bx	lr

08005bb6 <HAL_CAN_TxMailbox2AbortCallback>:
 8005bb6:	b480      	push	{r7}
 8005bb8:	b083      	sub	sp, #12
 8005bba:	af00      	add	r7, sp, #0
 8005bbc:	6078      	str	r0, [r7, #4]
 8005bbe:	bf00      	nop
 8005bc0:	370c      	adds	r7, #12
 8005bc2:	46bd      	mov	sp, r7
 8005bc4:	bc80      	pop	{r7}
 8005bc6:	4770      	bx	lr

08005bc8 <HAL_CAN_RxFifo0FullCallback>:
 8005bc8:	b480      	push	{r7}
 8005bca:	b083      	sub	sp, #12
 8005bcc:	af00      	add	r7, sp, #0
 8005bce:	6078      	str	r0, [r7, #4]
 8005bd0:	bf00      	nop
 8005bd2:	370c      	adds	r7, #12
 8005bd4:	46bd      	mov	sp, r7
 8005bd6:	bc80      	pop	{r7}
 8005bd8:	4770      	bx	lr

08005bda <HAL_CAN_RxFifo1MsgPendingCallback>:
 8005bda:	b480      	push	{r7}
 8005bdc:	b083      	sub	sp, #12
 8005bde:	af00      	add	r7, sp, #0
 8005be0:	6078      	str	r0, [r7, #4]
 8005be2:	bf00      	nop
 8005be4:	370c      	adds	r7, #12
 8005be6:	46bd      	mov	sp, r7
 8005be8:	bc80      	pop	{r7}
 8005bea:	4770      	bx	lr

08005bec <HAL_CAN_RxFifo1FullCallback>:
 8005bec:	b480      	push	{r7}
 8005bee:	b083      	sub	sp, #12
 8005bf0:	af00      	add	r7, sp, #0
 8005bf2:	6078      	str	r0, [r7, #4]
 8005bf4:	bf00      	nop
 8005bf6:	370c      	adds	r7, #12
 8005bf8:	46bd      	mov	sp, r7
 8005bfa:	bc80      	pop	{r7}
 8005bfc:	4770      	bx	lr

08005bfe <HAL_CAN_SleepCallback>:
 8005bfe:	b480      	push	{r7}
 8005c00:	b083      	sub	sp, #12
 8005c02:	af00      	add	r7, sp, #0
 8005c04:	6078      	str	r0, [r7, #4]
 8005c06:	bf00      	nop
 8005c08:	370c      	adds	r7, #12
 8005c0a:	46bd      	mov	sp, r7
 8005c0c:	bc80      	pop	{r7}
 8005c0e:	4770      	bx	lr

08005c10 <HAL_CAN_WakeUpFromRxMsgCallback>:
 8005c10:	b480      	push	{r7}
 8005c12:	b083      	sub	sp, #12
 8005c14:	af00      	add	r7, sp, #0
 8005c16:	6078      	str	r0, [r7, #4]
 8005c18:	bf00      	nop
 8005c1a:	370c      	adds	r7, #12
 8005c1c:	46bd      	mov	sp, r7
 8005c1e:	bc80      	pop	{r7}
 8005c20:	4770      	bx	lr

08005c22 <HAL_CAN_ErrorCallback>:
 8005c22:	b480      	push	{r7}
 8005c24:	b083      	sub	sp, #12
 8005c26:	af00      	add	r7, sp, #0
 8005c28:	6078      	str	r0, [r7, #4]
 8005c2a:	bf00      	nop
 8005c2c:	370c      	adds	r7, #12
 8005c2e:	46bd      	mov	sp, r7
 8005c30:	bc80      	pop	{r7}
 8005c32:	4770      	bx	lr

08005c34 <__NVIC_SetPriorityGrouping>:
 8005c34:	b480      	push	{r7}
 8005c36:	b085      	sub	sp, #20
 8005c38:	af00      	add	r7, sp, #0
 8005c3a:	6078      	str	r0, [r7, #4]
 8005c3c:	687b      	ldr	r3, [r7, #4]
 8005c3e:	f003 0307 	and.w	r3, r3, #7
 8005c42:	60fb      	str	r3, [r7, #12]
 8005c44:	4b0c      	ldr	r3, [pc, #48]	@ (8005c78 <__NVIC_SetPriorityGrouping+0x44>)
 8005c46:	68db      	ldr	r3, [r3, #12]
 8005c48:	60bb      	str	r3, [r7, #8]
 8005c4a:	68ba      	ldr	r2, [r7, #8]
 8005c4c:	f64f 03ff 	movw	r3, #63743	@ 0xf8ff
 8005c50:	4013      	ands	r3, r2
 8005c52:	60bb      	str	r3, [r7, #8]
 8005c54:	68fb      	ldr	r3, [r7, #12]
 8005c56:	021a      	lsls	r2, r3, #8
 8005c58:	68bb      	ldr	r3, [r7, #8]
 8005c5a:	4313      	orrs	r3, r2
 8005c5c:	f043 63bf 	orr.w	r3, r3, #100139008	@ 0x5f80000
 8005c60:	f443 3300 	orr.w	r3, r3, #131072	@ 0x20000
 8005c64:	60bb      	str	r3, [r7, #8]
 8005c66:	4a04      	ldr	r2, [pc, #16]	@ (8005c78 <__NVIC_SetPriorityGrouping+0x44>)
 8005c68:	68bb      	ldr	r3, [r7, #8]
 8005c6a:	60d3      	str	r3, [r2, #12]
 8005c6c:	bf00      	nop
 8005c6e:	3714      	adds	r7, #20
 8005c70:	46bd      	mov	sp, r7
 8005c72:	bc80      	pop	{r7}
 8005c74:	4770      	bx	lr
 8005c76:	bf00      	nop
 8005c78:	e000ed00 	.word	0xe000ed00

08005c7c <__NVIC_GetPriorityGrouping>:
 8005c7c:	b480      	push	{r7}
 8005c7e:	af00      	add	r7, sp, #0
 8005c80:	4b04      	ldr	r3, [pc, #16]	@ (8005c94 <__NVIC_GetPriorityGrouping+0x18>)
 8005c82:	68db      	ldr	r3, [r3, #12]
 8005c84:	0a1b      	lsrs	r3, r3, #8
 8005c86:	f003 0307 	and.w	r3, r3, #7
 8005c8a:	4618      	mov	r0, r3
 8005c8c:	46bd      	mov	sp, r7
 8005c8e:	bc80      	pop	{r7}
 8005c90:	4770      	bx	lr
 8005c92:	bf00      	nop
 8005c94:	e000ed00 	.word	0xe000ed00

08005c98 <__NVIC_EnableIRQ>:
 8005c98:	b480      	push	{r7}
 8005c9a:	b083      	sub	sp, #12
 8005c9c:	af00      	add	r7, sp, #0
 8005c9e:	4603      	mov	r3, r0
 8005ca0:	71fb      	strb	r3, [r7, #7]
 8005ca2:	f997 3007 	ldrsb.w	r3, [r7, #7]
 8005ca6:	2b00      	cmp	r3, #0
 8005ca8:	db0b      	blt.n	8005cc2 <__NVIC_EnableIRQ+0x2a>
 8005caa:	79fb      	ldrb	r3, [r7, #7]
 8005cac:	f003 021f 	and.w	r2, r3, #31
 8005cb0:	4906      	ldr	r1, [pc, #24]	@ (8005ccc <__NVIC_EnableIRQ+0x34>)
 8005cb2:	f997 3007 	ldrsb.w	r3, [r7, #7]
 8005cb6:	095b      	lsrs	r3, r3, #5
 8005cb8:	2001      	movs	r0, #1
 8005cba:	fa00 f202 	lsl.w	r2, r0, r2
 8005cbe:	f841 2023 	str.w	r2, [r1, r3, lsl #2]
 8005cc2:	bf00      	nop
 8005cc4:	370c      	adds	r7, #12
 8005cc6:	46bd      	mov	sp, r7
 8005cc8:	bc80      	pop	{r7}
 8005cca:	4770      	bx	lr
 8005ccc:	e000e100 	.word	0xe000e100

08005cd0 <__NVIC_SetPriority>:
 8005cd0:	b480      	push	{r7}
 8005cd2:	b083      	sub	sp, #12
 8005cd4:	af00      	add	r7, sp, #0
 8005cd6:	4603      	mov	r3, r0
 8005cd8:	6039      	str	r1, [r7, #0]
 8005cda:	71fb      	strb	r3, [r7, #7]
 8005cdc:	f997 3007 	ldrsb.w	r3, [r7, #7]
 8005ce0:	2b00      	cmp	r3, #0
 8005ce2:	db0a      	blt.n	8005cfa <__NVIC_SetPriority+0x2a>
 8005ce4:	683b      	ldr	r3, [r7, #0]
 8005ce6:	b2da      	uxtb	r2, r3
 8005ce8:	490c      	ldr	r1, [pc, #48]	@ (8005d1c <__NVIC_SetPriority+0x4c>)
 8005cea:	f997 3007 	ldrsb.w	r3, [r7, #7]
 8005cee:	0112      	lsls	r2, r2, #4
 8005cf0:	b2d2      	uxtb	r2, r2
 8005cf2:	440b      	add	r3, r1
 8005cf4:	f883 2300 	strb.w	r2, [r3, #768]	@ 0x300
 8005cf8:	e00a      	b.n	8005d10 <__NVIC_SetPriority+0x40>
 8005cfa:	683b      	ldr	r3, [r7, #0]
 8005cfc:	b2da      	uxtb	r2, r3
 8005cfe:	4908      	ldr	r1, [pc, #32]	@ (8005d20 <__NVIC_SetPriority+0x50>)
 8005d00:	79fb      	ldrb	r3, [r7, #7]
 8005d02:	f003 030f 	and.w	r3, r3, #15
 8005d06:	3b04      	subs	r3, #4
 8005d08:	0112      	lsls	r2, r2, #4
 8005d0a:	b2d2      	uxtb	r2, r2
 8005d0c:	440b      	add	r3, r1
 8005d0e:	761a      	strb	r2, [r3, #24]
 8005d10:	bf00      	nop
 8005d12:	370c      	adds	r7, #12
 8005d14:	46bd      	mov	sp, r7
 8005d16:	bc80      	pop	{r7}
 8005d18:	4770      	bx	lr
 8005d1a:	bf00      	nop
 8005d1c:	e000e100 	.word	0xe000e100
 8005d20:	e000ed00 	.word	0xe000ed00

08005d24 <NVIC_EncodePriority>:
 8005d24:	b480      	push	{r7}
 8005d26:	b089      	sub	sp, #36	@ 0x24
 8005d28:	af00      	add	r7, sp, #0
 8005d2a:	60f8      	str	r0, [r7, #12]
 8005d2c:	60b9      	str	r1, [r7, #8]
 8005d2e:	607a      	str	r2, [r7, #4]
 8005d30:	68fb      	ldr	r3, [r7, #12]
 8005d32:	f003 0307 	and.w	r3, r3, #7
 8005d36:	61fb      	str	r3, [r7, #28]
 8005d38:	69fb      	ldr	r3, [r7, #28]
 8005d3a:	f1c3 0307 	rsb	r3, r3, #7
 8005d3e:	2b04      	cmp	r3, #4
 8005d40:	bf28      	it	cs
 8005d42:	2304      	movcs	r3, #4
 8005d44:	61bb      	str	r3, [r7, #24]
 8005d46:	69fb      	ldr	r3, [r7, #28]
 8005d48:	3304      	adds	r3, #4
 8005d4a:	2b06      	cmp	r3, #6
 8005d4c:	d902      	bls.n	8005d54 <NVIC_EncodePriority+0x30>
 8005d4e:	69fb      	ldr	r3, [r7, #28]
 8005d50:	3b03      	subs	r3, #3
 8005d52:	e000      	b.n	8005d56 <NVIC_EncodePriority+0x32>
 8005d54:	2300      	movs	r3, #0
 8005d56:	617b      	str	r3, [r7, #20]
 8005d58:	f04f 32ff 	mov.w	r2, #4294967295
 8005d5c:	69bb      	ldr	r3, [r7, #24]
 8005d5e:	fa02 f303 	lsl.w	r3, r2, r3
 8005d62:	43da      	mvns	r2, r3
 8005d64:	68bb      	ldr	r3, [r7, #8]
 8005d66:	401a      	ands	r2, r3
 8005d68:	697b      	ldr	r3, [r7, #20]
 8005d6a:	409a      	lsls	r2, r3
 8005d6c:	f04f 31ff 	mov.w	r1, #4294967295
 8005d70:	697b      	ldr	r3, [r7, #20]
 8005d72:	fa01 f303 	lsl.w	r3, r1, r3
 8005d76:	43d9      	mvns	r1, r3
 8005d78:	687b      	ldr	r3, [r7, #4]
 8005d7a:	400b      	ands	r3, r1
 8005d7c:	4313      	orrs	r3, r2
 8005d7e:	4618      	mov	r0, r3
 8005d80:	3724      	adds	r7, #36	@ 0x24
 8005d82:	46bd      	mov	sp, r7
 8005d84:	bc80      	pop	{r7}
 8005d86:	4770      	bx	lr

08005d88 <__NVIC_SystemReset>:
 8005d88:	b480      	push	{r7}
 8005d8a:	af00      	add	r7, sp, #0
 8005d8c:	f3bf 8f4f 	dsb	sy
 8005d90:	bf00      	nop
 8005d92:	4b06      	ldr	r3, [pc, #24]	@ (8005dac <__NVIC_SystemReset+0x24>)
 8005d94:	68db      	ldr	r3, [r3, #12]
 8005d96:	f403 62e0 	and.w	r2, r3, #1792	@ 0x700
 8005d9a:	4904      	ldr	r1, [pc, #16]	@ (8005dac <__NVIC_SystemReset+0x24>)
 8005d9c:	4b04      	ldr	r3, [pc, #16]	@ (8005db0 <__NVIC_SystemReset+0x28>)
 8005d9e:	4313      	orrs	r3, r2
 8005da0:	60cb      	str	r3, [r1, #12]
 8005da2:	f3bf 8f4f 	dsb	sy
 8005da6:	bf00      	nop
 8005da8:	bf00      	nop
 8005daa:	e7fd      	b.n	8005da8 <__NVIC_SystemReset+0x20>
 8005dac:	e000ed00 	.word	0xe000ed00
 8005db0:	05fa0004 	.word	0x05fa0004

08005db4 <SysTick_Config>:
 8005db4:	b580      	push	{r7, lr}
 8005db6:	b082      	sub	sp, #8
 8005db8:	af00      	add	r7, sp, #0
 8005dba:	6078      	str	r0, [r7, #4]
 8005dbc:	687b      	ldr	r3, [r7, #4]
 8005dbe:	3b01      	subs	r3, #1
 8005dc0:	f1b3 7f80 	cmp.w	r3, #16777216	@ 0x1000000
 8005dc4:	d301      	bcc.n	8005dca <SysTick_Config+0x16>
 8005dc6:	2301      	movs	r3, #1
 8005dc8:	e00f      	b.n	8005dea <SysTick_Config+0x36>
 8005dca:	4a0a      	ldr	r2, [pc, #40]	@ (8005df4 <SysTick_Config+0x40>)
 8005dcc:	687b      	ldr	r3, [r7, #4]
 8005dce:	3b01      	subs	r3, #1
 8005dd0:	6053      	str	r3, [r2, #4]
 8005dd2:	210f      	movs	r1, #15
 8005dd4:	f04f 30ff 	mov.w	r0, #4294967295
 8005dd8:	f7ff ff7a 	bl	8005cd0 <__NVIC_SetPriority>
 8005ddc:	4b05      	ldr	r3, [pc, #20]	@ (8005df4 <SysTick_Config+0x40>)
 8005dde:	2200      	movs	r2, #0
 8005de0:	609a      	str	r2, [r3, #8]
 8005de2:	4b04      	ldr	r3, [pc, #16]	@ (8005df4 <SysTick_Config+0x40>)
 8005de4:	2207      	movs	r2, #7
 8005de6:	601a      	str	r2, [r3, #0]
 8005de8:	2300      	movs	r3, #0
 8005dea:	4618      	mov	r0, r3
 8005dec:	3708      	adds	r7, #8
 8005dee:	46bd      	mov	sp, r7
 8005df0:	bd80      	pop	{r7, pc}
 8005df2:	bf00      	nop
 8005df4:	e000e010 	.word	0xe000e010

08005df8 <HAL_NVIC_SetPriorityGrouping>:
 8005df8:	b580      	push	{r7, lr}
 8005dfa:	b082      	sub	sp, #8
 8005dfc:	af00      	add	r7, sp, #0
 8005dfe:	6078      	str	r0, [r7, #4]
 8005e00:	6878      	ldr	r0, [r7, #4]
 8005e02:	f7ff ff17 	bl	8005c34 <__NVIC_SetPriorityGrouping>
 8005e06:	bf00      	nop
 8005e08:	3708      	adds	r7, #8
 8005e0a:	46bd      	mov	sp, r7
 8005e0c:	bd80      	pop	{r7, pc}

08005e0e <HAL_NVIC_SetPriority>:
 8005e0e:	b580      	push	{r7, lr}
 8005e10:	b086      	sub	sp, #24
 8005e12:	af00      	add	r7, sp, #0
 8005e14:	4603      	mov	r3, r0
 8005e16:	60b9      	str	r1, [r7, #8]
 8005e18:	607a      	str	r2, [r7, #4]
 8005e1a:	73fb      	strb	r3, [r7, #15]
 8005e1c:	2300      	movs	r3, #0
 8005e1e:	617b      	str	r3, [r7, #20]
 8005e20:	f7ff ff2c 	bl	8005c7c <__NVIC_GetPriorityGrouping>
 8005e24:	6178      	str	r0, [r7, #20]
 8005e26:	687a      	ldr	r2, [r7, #4]
 8005e28:	68b9      	ldr	r1, [r7, #8]
 8005e2a:	6978      	ldr	r0, [r7, #20]
 8005e2c:	f7ff ff7a 	bl	8005d24 <NVIC_EncodePriority>
 8005e30:	4602      	mov	r2, r0
 8005e32:	f997 300f 	ldrsb.w	r3, [r7, #15]
 8005e36:	4611      	mov	r1, r2
 8005e38:	4618      	mov	r0, r3
 8005e3a:	f7ff ff49 	bl	8005cd0 <__NVIC_SetPriority>
 8005e3e:	bf00      	nop
 8005e40:	3718      	adds	r7, #24
 8005e42:	46bd      	mov	sp, r7
 8005e44:	bd80      	pop	{r7, pc}

08005e46 <HAL_NVIC_EnableIRQ>:
 8005e46:	b580      	push	{r7, lr}
 8005e48:	b082      	sub	sp, #8
 8005e4a:	af00      	add	r7, sp, #0
 8005e4c:	4603      	mov	r3, r0
 8005e4e:	71fb      	strb	r3, [r7, #7]
 8005e50:	f997 3007 	ldrsb.w	r3, [r7, #7]
 8005e54:	4618      	mov	r0, r3
 8005e56:	f7ff ff1f 	bl	8005c98 <__NVIC_EnableIRQ>
 8005e5a:	bf00      	nop
 8005e5c:	3708      	adds	r7, #8
 8005e5e:	46bd      	mov	sp, r7
 8005e60:	bd80      	pop	{r7, pc}

08005e62 <HAL_NVIC_SystemReset>:
 8005e62:	b580      	push	{r7, lr}
 8005e64:	af00      	add	r7, sp, #0
 8005e66:	f7ff ff8f 	bl	8005d88 <__NVIC_SystemReset>

08005e6a <HAL_SYSTICK_Config>:
 8005e6a:	b580      	push	{r7, lr}
 8005e6c:	b082      	sub	sp, #8
 8005e6e:	af00      	add	r7, sp, #0
 8005e70:	6078      	str	r0, [r7, #4]
 8005e72:	6878      	ldr	r0, [r7, #4]
 8005e74:	f7ff ff9e 	bl	8005db4 <SysTick_Config>
 8005e78:	4603      	mov	r3, r0
 8005e7a:	4618      	mov	r0, r3
 8005e7c:	3708      	adds	r7, #8
 8005e7e:	46bd      	mov	sp, r7
 8005e80:	bd80      	pop	{r7, pc}
	...

08005e84 <HAL_DMA_Init>:
 8005e84:	b480      	push	{r7}
 8005e86:	b085      	sub	sp, #20
 8005e88:	af00      	add	r7, sp, #0
 8005e8a:	6078      	str	r0, [r7, #4]
 8005e8c:	2300      	movs	r3, #0
 8005e8e:	60fb      	str	r3, [r7, #12]
 8005e90:	687b      	ldr	r3, [r7, #4]
 8005e92:	2b00      	cmp	r3, #0
 8005e94:	d101      	bne.n	8005e9a <HAL_DMA_Init+0x16>
 8005e96:	2301      	movs	r3, #1
 8005e98:	e043      	b.n	8005f22 <HAL_DMA_Init+0x9e>
 8005e9a:	687b      	ldr	r3, [r7, #4]
 8005e9c:	681b      	ldr	r3, [r3, #0]
 8005e9e:	461a      	mov	r2, r3
 8005ea0:	4b22      	ldr	r3, [pc, #136]	@ (8005f2c <HAL_DMA_Init+0xa8>)
 8005ea2:	4413      	add	r3, r2
 8005ea4:	4a22      	ldr	r2, [pc, #136]	@ (8005f30 <HAL_DMA_Init+0xac>)
 8005ea6:	fba2 2303 	umull	r2, r3, r2, r3
 8005eaa:	091b      	lsrs	r3, r3, #4
 8005eac:	009a      	lsls	r2, r3, #2
 8005eae:	687b      	ldr	r3, [r7, #4]
 8005eb0:	641a      	str	r2, [r3, #64]	@ 0x40
 8005eb2:	687b      	ldr	r3, [r7, #4]
 8005eb4:	4a1f      	ldr	r2, [pc, #124]	@ (8005f34 <HAL_DMA_Init+0xb0>)
 8005eb6:	63da      	str	r2, [r3, #60]	@ 0x3c
 8005eb8:	687b      	ldr	r3, [r7, #4]
 8005eba:	2202      	movs	r2, #2
 8005ebc:	f883 2021 	strb.w	r2, [r3, #33]	@ 0x21
 8005ec0:	687b      	ldr	r3, [r7, #4]
 8005ec2:	681b      	ldr	r3, [r3, #0]
 8005ec4:	681b      	ldr	r3, [r3, #0]
 8005ec6:	60fb      	str	r3, [r7, #12]
 8005ec8:	68fb      	ldr	r3, [r7, #12]
 8005eca:	f423 537f 	bic.w	r3, r3, #16320	@ 0x3fc0
 8005ece:	f023 0330 	bic.w	r3, r3, #48	@ 0x30
 8005ed2:	60fb      	str	r3, [r7, #12]
 8005ed4:	687b      	ldr	r3, [r7, #4]
 8005ed6:	685a      	ldr	r2, [r3, #4]
 8005ed8:	687b      	ldr	r3, [r7, #4]
 8005eda:	689b      	ldr	r3, [r3, #8]
 8005edc:	431a      	orrs	r2, r3
 8005ede:	687b      	ldr	r3, [r7, #4]
 8005ee0:	68db      	ldr	r3, [r3, #12]
 8005ee2:	431a      	orrs	r2, r3
 8005ee4:	687b      	ldr	r3, [r7, #4]
 8005ee6:	691b      	ldr	r3, [r3, #16]
 8005ee8:	431a      	orrs	r2, r3
 8005eea:	687b      	ldr	r3, [r7, #4]
 8005eec:	695b      	ldr	r3, [r3, #20]
 8005eee:	431a      	orrs	r2, r3
 8005ef0:	687b      	ldr	r3, [r7, #4]
 8005ef2:	699b      	ldr	r3, [r3, #24]
 8005ef4:	431a      	orrs	r2, r3
 8005ef6:	687b      	ldr	r3, [r7, #4]
 8005ef8:	69db      	ldr	r3, [r3, #28]
 8005efa:	4313      	orrs	r3, r2
 8005efc:	68fa      	ldr	r2, [r7, #12]
 8005efe:	4313      	orrs	r3, r2
 8005f00:	60fb      	str	r3, [r7, #12]
 8005f02:	687b      	ldr	r3, [r7, #4]
 8005f04:	681b      	ldr	r3, [r3, #0]
 8005f06:	68fa      	ldr	r2, [r7, #12]
 8005f08:	601a      	str	r2, [r3, #0]
 8005f0a:	687b      	ldr	r3, [r7, #4]
 8005f0c:	2200      	movs	r2, #0
 8005f0e:	639a      	str	r2, [r3, #56]	@ 0x38
 8005f10:	687b      	ldr	r3, [r7, #4]
 8005f12:	2201      	movs	r2, #1
 8005f14:	f883 2021 	strb.w	r2, [r3, #33]	@ 0x21
 8005f18:	687b      	ldr	r3, [r7, #4]
 8005f1a:	2200      	movs	r2, #0
 8005f1c:	f883 2020 	strb.w	r2, [r3, #32]
 8005f20:	2300      	movs	r3, #0
 8005f22:	4618      	mov	r0, r3
 8005f24:	3714      	adds	r7, #20
 8005f26:	46bd      	mov	sp, r7
 8005f28:	bc80      	pop	{r7}
 8005f2a:	4770      	bx	lr
 8005f2c:	bffdfff8 	.word	0xbffdfff8
 8005f30:	cccccccd 	.word	0xcccccccd
 8005f34:	40020000 	.word	0x40020000

08005f38 <HAL_DMA_Start_IT>:
 8005f38:	b580      	push	{r7, lr}
 8005f3a:	b086      	sub	sp, #24
 8005f3c:	af00      	add	r7, sp, #0
 8005f3e:	60f8      	str	r0, [r7, #12]
 8005f40:	60b9      	str	r1, [r7, #8]
 8005f42:	607a      	str	r2, [r7, #4]
 8005f44:	603b      	str	r3, [r7, #0]
 8005f46:	2300      	movs	r3, #0
 8005f48:	75fb      	strb	r3, [r7, #23]
 8005f4a:	68fb      	ldr	r3, [r7, #12]
 8005f4c:	f893 3020 	ldrb.w	r3, [r3, #32]
 8005f50:	2b01      	cmp	r3, #1
 8005f52:	d101      	bne.n	8005f58 <HAL_DMA_Start_IT+0x20>
 8005f54:	2302      	movs	r3, #2
 8005f56:	e04b      	b.n	8005ff0 <HAL_DMA_Start_IT+0xb8>
 8005f58:	68fb      	ldr	r3, [r7, #12]
 8005f5a:	2201      	movs	r2, #1
 8005f5c:	f883 2020 	strb.w	r2, [r3, #32]
 8005f60:	68fb      	ldr	r3, [r7, #12]
 8005f62:	f893 3021 	ldrb.w	r3, [r3, #33]	@ 0x21
 8005f66:	b2db      	uxtb	r3, r3
 8005f68:	2b01      	cmp	r3, #1
 8005f6a:	d13a      	bne.n	8005fe2 <HAL_DMA_Start_IT+0xaa>
 8005f6c:	68fb      	ldr	r3, [r7, #12]
 8005f6e:	2202      	movs	r2, #2
 8005f70:	f883 2021 	strb.w	r2, [r3, #33]	@ 0x21
 8005f74:	68fb      	ldr	r3, [r7, #12]
 8005f76:	2200      	movs	r2, #0
 8005f78:	639a      	str	r2, [r3, #56]	@ 0x38
 8005f7a:	68fb      	ldr	r3, [r7, #12]
 8005f7c:	681b      	ldr	r3, [r3, #0]
 8005f7e:	681a      	ldr	r2, [r3, #0]
 8005f80:	68fb      	ldr	r3, [r7, #12]
 8005f82:	681b      	ldr	r3, [r3, #0]
 8005f84:	f022 0201 	bic.w	r2, r2, #1
 8005f88:	601a      	str	r2, [r3, #0]
 8005f8a:	683b      	ldr	r3, [r7, #0]
 8005f8c:	687a      	ldr	r2, [r7, #4]
 8005f8e:	68b9      	ldr	r1, [r7, #8]
 8005f90:	68f8      	ldr	r0, [r7, #12]
 8005f92:	f000 f9eb 	bl	800636c <DMA_SetConfig>
 8005f96:	68fb      	ldr	r3, [r7, #12]
 8005f98:	6adb      	ldr	r3, [r3, #44]	@ 0x2c
 8005f9a:	2b00      	cmp	r3, #0
 8005f9c:	d008      	beq.n	8005fb0 <HAL_DMA_Start_IT+0x78>
 8005f9e:	68fb      	ldr	r3, [r7, #12]
 8005fa0:	681b      	ldr	r3, [r3, #0]
 8005fa2:	681a      	ldr	r2, [r3, #0]
 8005fa4:	68fb      	ldr	r3, [r7, #12]
 8005fa6:	681b      	ldr	r3, [r3, #0]
 8005fa8:	f042 020e 	orr.w	r2, r2, #14
 8005fac:	601a      	str	r2, [r3, #0]
 8005fae:	e00f      	b.n	8005fd0 <HAL_DMA_Start_IT+0x98>
 8005fb0:	68fb      	ldr	r3, [r7, #12]
 8005fb2:	681b      	ldr	r3, [r3, #0]
 8005fb4:	681a      	ldr	r2, [r3, #0]
 8005fb6:	68fb      	ldr	r3, [r7, #12]
 8005fb8:	681b      	ldr	r3, [r3, #0]
 8005fba:	f022 0204 	bic.w	r2, r2, #4
 8005fbe:	601a      	str	r2, [r3, #0]
 8005fc0:	68fb      	ldr	r3, [r7, #12]
 8005fc2:	681b      	ldr	r3, [r3, #0]
 8005fc4:	681a      	ldr	r2, [r3, #0]
 8005fc6:	68fb      	ldr	r3, [r7, #12]
 8005fc8:	681b      	ldr	r3, [r3, #0]
 8005fca:	f042 020a 	orr.w	r2, r2, #10
 8005fce:	601a      	str	r2, [r3, #0]
 8005fd0:	68fb      	ldr	r3, [r7, #12]
 8005fd2:	681b      	ldr	r3, [r3, #0]
 8005fd4:	681a      	ldr	r2, [r3, #0]
 8005fd6:	68fb      	ldr	r3, [r7, #12]
 8005fd8:	681b      	ldr	r3, [r3, #0]
 8005fda:	f042 0201 	orr.w	r2, r2, #1
 8005fde:	601a      	str	r2, [r3, #0]
 8005fe0:	e005      	b.n	8005fee <HAL_DMA_Start_IT+0xb6>
 8005fe2:	68fb      	ldr	r3, [r7, #12]
 8005fe4:	2200      	movs	r2, #0
 8005fe6:	f883 2020 	strb.w	r2, [r3, #32]
 8005fea:	2302      	movs	r3, #2
 8005fec:	75fb      	strb	r3, [r7, #23]
 8005fee:	7dfb      	ldrb	r3, [r7, #23]
 8005ff0:	4618      	mov	r0, r3
 8005ff2:	3718      	adds	r7, #24
 8005ff4:	46bd      	mov	sp, r7
 8005ff6:	bd80      	pop	{r7, pc}

08005ff8 <HAL_DMA_Abort>:
 8005ff8:	b480      	push	{r7}
 8005ffa:	b085      	sub	sp, #20
 8005ffc:	af00      	add	r7, sp, #0
 8005ffe:	6078      	str	r0, [r7, #4]
 8006000:	2300      	movs	r3, #0
 8006002:	73fb      	strb	r3, [r7, #15]
 8006004:	687b      	ldr	r3, [r7, #4]
 8006006:	f893 3021 	ldrb.w	r3, [r3, #33]	@ 0x21
 800600a:	b2db      	uxtb	r3, r3
 800600c:	2b02      	cmp	r3, #2
 800600e:	d008      	beq.n	8006022 <HAL_DMA_Abort+0x2a>
 8006010:	687b      	ldr	r3, [r7, #4]
 8006012:	2204      	movs	r2, #4
 8006014:	639a      	str	r2, [r3, #56]	@ 0x38
 8006016:	687b      	ldr	r3, [r7, #4]
 8006018:	2200      	movs	r2, #0
 800601a:	f883 2020 	strb.w	r2, [r3, #32]
 800601e:	2301      	movs	r3, #1
 8006020:	e020      	b.n	8006064 <HAL_DMA_Abort+0x6c>
 8006022:	687b      	ldr	r3, [r7, #4]
 8006024:	681b      	ldr	r3, [r3, #0]
 8006026:	681a      	ldr	r2, [r3, #0]
 8006028:	687b      	ldr	r3, [r7, #4]
 800602a:	681b      	ldr	r3, [r3, #0]
 800602c:	f022 020e 	bic.w	r2, r2, #14
 8006030:	601a      	str	r2, [r3, #0]
 8006032:	687b      	ldr	r3, [r7, #4]
 8006034:	681b      	ldr	r3, [r3, #0]
 8006036:	681a      	ldr	r2, [r3, #0]
 8006038:	687b      	ldr	r3, [r7, #4]
 800603a:	681b      	ldr	r3, [r3, #0]
 800603c:	f022 0201 	bic.w	r2, r2, #1
 8006040:	601a      	str	r2, [r3, #0]
 8006042:	687b      	ldr	r3, [r7, #4]
 8006044:	6c1a      	ldr	r2, [r3, #64]	@ 0x40
 8006046:	687b      	ldr	r3, [r7, #4]
 8006048:	6bdb      	ldr	r3, [r3, #60]	@ 0x3c
 800604a:	2101      	movs	r1, #1
 800604c:	fa01 f202 	lsl.w	r2, r1, r2
 8006050:	605a      	str	r2, [r3, #4]
 8006052:	687b      	ldr	r3, [r7, #4]
 8006054:	2201      	movs	r2, #1
 8006056:	f883 2021 	strb.w	r2, [r3, #33]	@ 0x21
 800605a:	687b      	ldr	r3, [r7, #4]
 800605c:	2200      	movs	r2, #0
 800605e:	f883 2020 	strb.w	r2, [r3, #32]
 8006062:	7bfb      	ldrb	r3, [r7, #15]
 8006064:	4618      	mov	r0, r3
 8006066:	3714      	adds	r7, #20
 8006068:	46bd      	mov	sp, r7
 800606a:	bc80      	pop	{r7}
 800606c:	4770      	bx	lr
	...

08006070 <HAL_DMA_Abort_IT>:
 8006070:	b580      	push	{r7, lr}
 8006072:	b084      	sub	sp, #16
 8006074:	af00      	add	r7, sp, #0
 8006076:	6078      	str	r0, [r7, #4]
 8006078:	2300      	movs	r3, #0
 800607a:	73fb      	strb	r3, [r7, #15]
 800607c:	687b      	ldr	r3, [r7, #4]
 800607e:	f893 3021 	ldrb.w	r3, [r3, #33]	@ 0x21
 8006082:	b2db      	uxtb	r3, r3
 8006084:	2b02      	cmp	r3, #2
 8006086:	d005      	beq.n	8006094 <HAL_DMA_Abort_IT+0x24>
 8006088:	687b      	ldr	r3, [r7, #4]
 800608a:	2204      	movs	r2, #4
 800608c:	639a      	str	r2, [r3, #56]	@ 0x38
 800608e:	2301      	movs	r3, #1
 8006090:	73fb      	strb	r3, [r7, #15]
 8006092:	e051      	b.n	8006138 <HAL_DMA_Abort_IT+0xc8>
 8006094:	687b      	ldr	r3, [r7, #4]
 8006096:	681b      	ldr	r3, [r3, #0]
 8006098:	681a      	ldr	r2, [r3, #0]
 800609a:	687b      	ldr	r3, [r7, #4]
 800609c:	681b      	ldr	r3, [r3, #0]
 800609e:	f022 020e 	bic.w	r2, r2, #14
 80060a2:	601a      	str	r2, [r3, #0]
 80060a4:	687b      	ldr	r3, [r7, #4]
 80060a6:	681b      	ldr	r3, [r3, #0]
 80060a8:	681a      	ldr	r2, [r3, #0]
 80060aa:	687b      	ldr	r3, [r7, #4]
 80060ac:	681b      	ldr	r3, [r3, #0]
 80060ae:	f022 0201 	bic.w	r2, r2, #1
 80060b2:	601a      	str	r2, [r3, #0]
 80060b4:	687b      	ldr	r3, [r7, #4]
 80060b6:	681b      	ldr	r3, [r3, #0]
 80060b8:	4a22      	ldr	r2, [pc, #136]	@ (8006144 <HAL_DMA_Abort_IT+0xd4>)
 80060ba:	4293      	cmp	r3, r2
 80060bc:	d029      	beq.n	8006112 <HAL_DMA_Abort_IT+0xa2>
 80060be:	687b      	ldr	r3, [r7, #4]
 80060c0:	681b      	ldr	r3, [r3, #0]
 80060c2:	4a21      	ldr	r2, [pc, #132]	@ (8006148 <HAL_DMA_Abort_IT+0xd8>)
 80060c4:	4293      	cmp	r3, r2
 80060c6:	d022      	beq.n	800610e <HAL_DMA_Abort_IT+0x9e>
 80060c8:	687b      	ldr	r3, [r7, #4]
 80060ca:	681b      	ldr	r3, [r3, #0]
 80060cc:	4a1f      	ldr	r2, [pc, #124]	@ (800614c <HAL_DMA_Abort_IT+0xdc>)
 80060ce:	4293      	cmp	r3, r2
 80060d0:	d01a      	beq.n	8006108 <HAL_DMA_Abort_IT+0x98>
 80060d2:	687b      	ldr	r3, [r7, #4]
 80060d4:	681b      	ldr	r3, [r3, #0]
 80060d6:	4a1e      	ldr	r2, [pc, #120]	@ (8006150 <HAL_DMA_Abort_IT+0xe0>)
 80060d8:	4293      	cmp	r3, r2
 80060da:	d012      	beq.n	8006102 <HAL_DMA_Abort_IT+0x92>
 80060dc:	687b      	ldr	r3, [r7, #4]
 80060de:	681b      	ldr	r3, [r3, #0]
 80060e0:	4a1c      	ldr	r2, [pc, #112]	@ (8006154 <HAL_DMA_Abort_IT+0xe4>)
 80060e2:	4293      	cmp	r3, r2
 80060e4:	d00a      	beq.n	80060fc <HAL_DMA_Abort_IT+0x8c>
 80060e6:	687b      	ldr	r3, [r7, #4]
 80060e8:	681b      	ldr	r3, [r3, #0]
 80060ea:	4a1b      	ldr	r2, [pc, #108]	@ (8006158 <HAL_DMA_Abort_IT+0xe8>)
 80060ec:	4293      	cmp	r3, r2
 80060ee:	d102      	bne.n	80060f6 <HAL_DMA_Abort_IT+0x86>
 80060f0:	f44f 1380 	mov.w	r3, #1048576	@ 0x100000
 80060f4:	e00e      	b.n	8006114 <HAL_DMA_Abort_IT+0xa4>
 80060f6:	f04f 7380 	mov.w	r3, #16777216	@ 0x1000000
 80060fa:	e00b      	b.n	8006114 <HAL_DMA_Abort_IT+0xa4>
 80060fc:	f44f 3380 	mov.w	r3, #65536	@ 0x10000
 8006100:	e008      	b.n	8006114 <HAL_DMA_Abort_IT+0xa4>
 8006102:	f44f 5380 	mov.w	r3, #4096	@ 0x1000
 8006106:	e005      	b.n	8006114 <HAL_DMA_Abort_IT+0xa4>
 8006108:	f44f 7380 	mov.w	r3, #256	@ 0x100
 800610c:	e002      	b.n	8006114 <HAL_DMA_Abort_IT+0xa4>
 800610e:	2310      	movs	r3, #16
 8006110:	e000      	b.n	8006114 <HAL_DMA_Abort_IT+0xa4>
 8006112:	2301      	movs	r3, #1
 8006114:	4a11      	ldr	r2, [pc, #68]	@ (800615c <HAL_DMA_Abort_IT+0xec>)
 8006116:	6053      	str	r3, [r2, #4]
 8006118:	687b      	ldr	r3, [r7, #4]
 800611a:	2201      	movs	r2, #1
 800611c:	f883 2021 	strb.w	r2, [r3, #33]	@ 0x21
 8006120:	687b      	ldr	r3, [r7, #4]
 8006122:	2200      	movs	r2, #0
 8006124:	f883 2020 	strb.w	r2, [r3, #32]
 8006128:	687b      	ldr	r3, [r7, #4]
 800612a:	6b5b      	ldr	r3, [r3, #52]	@ 0x34
 800612c:	2b00      	cmp	r3, #0
 800612e:	d003      	beq.n	8006138 <HAL_DMA_Abort_IT+0xc8>
 8006130:	687b      	ldr	r3, [r7, #4]
 8006132:	6b5b      	ldr	r3, [r3, #52]	@ 0x34
 8006134:	6878      	ldr	r0, [r7, #4]
 8006136:	4798      	blx	r3
 8006138:	7bfb      	ldrb	r3, [r7, #15]
 800613a:	4618      	mov	r0, r3
 800613c:	3710      	adds	r7, #16
 800613e:	46bd      	mov	sp, r7
 8006140:	bd80      	pop	{r7, pc}
 8006142:	bf00      	nop
 8006144:	40020008 	.word	0x40020008
 8006148:	4002001c 	.word	0x4002001c
 800614c:	40020030 	.word	0x40020030
 8006150:	40020044 	.word	0x40020044
 8006154:	40020058 	.word	0x40020058
 8006158:	4002006c 	.word	0x4002006c
 800615c:	40020000 	.word	0x40020000

08006160 <HAL_DMA_IRQHandler>:
 8006160:	b580      	push	{r7, lr}
 8006162:	b084      	sub	sp, #16
 8006164:	af00      	add	r7, sp, #0
 8006166:	6078      	str	r0, [r7, #4]
 8006168:	687b      	ldr	r3, [r7, #4]
 800616a:	6bdb      	ldr	r3, [r3, #60]	@ 0x3c
 800616c:	681b      	ldr	r3, [r3, #0]
 800616e:	60fb      	str	r3, [r7, #12]
 8006170:	687b      	ldr	r3, [r7, #4]
 8006172:	681b      	ldr	r3, [r3, #0]
 8006174:	681b      	ldr	r3, [r3, #0]
 8006176:	60bb      	str	r3, [r7, #8]
 8006178:	687b      	ldr	r3, [r7, #4]
 800617a:	6c1b      	ldr	r3, [r3, #64]	@ 0x40
 800617c:	2204      	movs	r2, #4
 800617e:	409a      	lsls	r2, r3
 8006180:	68fb      	ldr	r3, [r7, #12]
 8006182:	4013      	ands	r3, r2
 8006184:	2b00      	cmp	r3, #0
 8006186:	d04f      	beq.n	8006228 <HAL_DMA_IRQHandler+0xc8>
 8006188:	68bb      	ldr	r3, [r7, #8]
 800618a:	f003 0304 	and.w	r3, r3, #4
 800618e:	2b00      	cmp	r3, #0
 8006190:	d04a      	beq.n	8006228 <HAL_DMA_IRQHandler+0xc8>
 8006192:	687b      	ldr	r3, [r7, #4]
 8006194:	681b      	ldr	r3, [r3, #0]
 8006196:	681b      	ldr	r3, [r3, #0]
 8006198:	f003 0320 	and.w	r3, r3, #32
 800619c:	2b00      	cmp	r3, #0
 800619e:	d107      	bne.n	80061b0 <HAL_DMA_IRQHandler+0x50>
 80061a0:	687b      	ldr	r3, [r7, #4]
 80061a2:	681b      	ldr	r3, [r3, #0]
 80061a4:	681a      	ldr	r2, [r3, #0]
 80061a6:	687b      	ldr	r3, [r7, #4]
 80061a8:	681b      	ldr	r3, [r3, #0]
 80061aa:	f022 0204 	bic.w	r2, r2, #4
 80061ae:	601a      	str	r2, [r3, #0]
 80061b0:	687b      	ldr	r3, [r7, #4]
 80061b2:	681b      	ldr	r3, [r3, #0]
 80061b4:	4a66      	ldr	r2, [pc, #408]	@ (8006350 <HAL_DMA_IRQHandler+0x1f0>)
 80061b6:	4293      	cmp	r3, r2
 80061b8:	d029      	beq.n	800620e <HAL_DMA_IRQHandler+0xae>
 80061ba:	687b      	ldr	r3, [r7, #4]
 80061bc:	681b      	ldr	r3, [r3, #0]
 80061be:	4a65      	ldr	r2, [pc, #404]	@ (8006354 <HAL_DMA_IRQHandler+0x1f4>)
 80061c0:	4293      	cmp	r3, r2
 80061c2:	d022      	beq.n	800620a <HAL_DMA_IRQHandler+0xaa>
 80061c4:	687b      	ldr	r3, [r7, #4]
 80061c6:	681b      	ldr	r3, [r3, #0]
 80061c8:	4a63      	ldr	r2, [pc, #396]	@ (8006358 <HAL_DMA_IRQHandler+0x1f8>)
 80061ca:	4293      	cmp	r3, r2
 80061cc:	d01a      	beq.n	8006204 <HAL_DMA_IRQHandler+0xa4>
 80061ce:	687b      	ldr	r3, [r7, #4]
 80061d0:	681b      	ldr	r3, [r3, #0]
 80061d2:	4a62      	ldr	r2, [pc, #392]	@ (800635c <HAL_DMA_IRQHandler+0x1fc>)
 80061d4:	4293      	cmp	r3, r2
 80061d6:	d012      	beq.n	80061fe <HAL_DMA_IRQHandler+0x9e>
 80061d8:	687b      	ldr	r3, [r7, #4]
 80061da:	681b      	ldr	r3, [r3, #0]
 80061dc:	4a60      	ldr	r2, [pc, #384]	@ (8006360 <HAL_DMA_IRQHandler+0x200>)
 80061de:	4293      	cmp	r3, r2
 80061e0:	d00a      	beq.n	80061f8 <HAL_DMA_IRQHandler+0x98>
 80061e2:	687b      	ldr	r3, [r7, #4]
 80061e4:	681b      	ldr	r3, [r3, #0]
 80061e6:	4a5f      	ldr	r2, [pc, #380]	@ (8006364 <HAL_DMA_IRQHandler+0x204>)
 80061e8:	4293      	cmp	r3, r2
 80061ea:	d102      	bne.n	80061f2 <HAL_DMA_IRQHandler+0x92>
 80061ec:	f44f 0380 	mov.w	r3, #4194304	@ 0x400000
 80061f0:	e00e      	b.n	8006210 <HAL_DMA_IRQHandler+0xb0>
 80061f2:	f04f 6380 	mov.w	r3, #67108864	@ 0x4000000
 80061f6:	e00b      	b.n	8006210 <HAL_DMA_IRQHandler+0xb0>
 80061f8:	f44f 2380 	mov.w	r3, #262144	@ 0x40000
 80061fc:	e008      	b.n	8006210 <HAL_DMA_IRQHandler+0xb0>
 80061fe:	f44f 4380 	mov.w	r3, #16384	@ 0x4000
 8006202:	e005      	b.n	8006210 <HAL_DMA_IRQHandler+0xb0>
 8006204:	f44f 6380 	mov.w	r3, #1024	@ 0x400
 8006208:	e002      	b.n	8006210 <HAL_DMA_IRQHandler+0xb0>
 800620a:	2340      	movs	r3, #64	@ 0x40
 800620c:	e000      	b.n	8006210 <HAL_DMA_IRQHandler+0xb0>
 800620e:	2304      	movs	r3, #4
 8006210:	4a55      	ldr	r2, [pc, #340]	@ (8006368 <HAL_DMA_IRQHandler+0x208>)
 8006212:	6053      	str	r3, [r2, #4]
 8006214:	687b      	ldr	r3, [r7, #4]
 8006216:	6adb      	ldr	r3, [r3, #44]	@ 0x2c
 8006218:	2b00      	cmp	r3, #0
 800621a:	f000 8094 	beq.w	8006346 <HAL_DMA_IRQHandler+0x1e6>
 800621e:	687b      	ldr	r3, [r7, #4]
 8006220:	6adb      	ldr	r3, [r3, #44]	@ 0x2c
 8006222:	6878      	ldr	r0, [r7, #4]
 8006224:	4798      	blx	r3
 8006226:	e08e      	b.n	8006346 <HAL_DMA_IRQHandler+0x1e6>
 8006228:	687b      	ldr	r3, [r7, #4]
 800622a:	6c1b      	ldr	r3, [r3, #64]	@ 0x40
 800622c:	2202      	movs	r2, #2
 800622e:	409a      	lsls	r2, r3
 8006230:	68fb      	ldr	r3, [r7, #12]
 8006232:	4013      	ands	r3, r2
 8006234:	2b00      	cmp	r3, #0
 8006236:	d056      	beq.n	80062e6 <HAL_DMA_IRQHandler+0x186>
 8006238:	68bb      	ldr	r3, [r7, #8]
 800623a:	f003 0302 	and.w	r3, r3, #2
 800623e:	2b00      	cmp	r3, #0
 8006240:	d051      	beq.n	80062e6 <HAL_DMA_IRQHandler+0x186>
 8006242:	687b      	ldr	r3, [r7, #4]
 8006244:	681b      	ldr	r3, [r3, #0]
 8006246:	681b      	ldr	r3, [r3, #0]
 8006248:	f003 0320 	and.w	r3, r3, #32
 800624c:	2b00      	cmp	r3, #0
 800624e:	d10b      	bne.n	8006268 <HAL_DMA_IRQHandler+0x108>
 8006250:	687b      	ldr	r3, [r7, #4]
 8006252:	681b      	ldr	r3, [r3, #0]
 8006254:	681a      	ldr	r2, [r3, #0]
 8006256:	687b      	ldr	r3, [r7, #4]
 8006258:	681b      	ldr	r3, [r3, #0]
 800625a:	f022 020a 	bic.w	r2, r2, #10
 800625e:	601a      	str	r2, [r3, #0]
 8006260:	687b      	ldr	r3, [r7, #4]
 8006262:	2201      	movs	r2, #1
 8006264:	f883 2021 	strb.w	r2, [r3, #33]	@ 0x21
 8006268:	687b      	ldr	r3, [r7, #4]
 800626a:	681b      	ldr	r3, [r3, #0]
 800626c:	4a38      	ldr	r2, [pc, #224]	@ (8006350 <HAL_DMA_IRQHandler+0x1f0>)
 800626e:	4293      	cmp	r3, r2
 8006270:	d029      	beq.n	80062c6 <HAL_DMA_IRQHandler+0x166>
 8006272:	687b      	ldr	r3, [r7, #4]
 8006274:	681b      	ldr	r3, [r3, #0]
 8006276:	4a37      	ldr	r2, [pc, #220]	@ (8006354 <HAL_DMA_IRQHandler+0x1f4>)
 8006278:	4293      	cmp	r3, r2
 800627a:	d022      	beq.n	80062c2 <HAL_DMA_IRQHandler+0x162>
 800627c:	687b      	ldr	r3, [r7, #4]
 800627e:	681b      	ldr	r3, [r3, #0]
 8006280:	4a35      	ldr	r2, [pc, #212]	@ (8006358 <HAL_DMA_IRQHandler+0x1f8>)
 8006282:	4293      	cmp	r3, r2
 8006284:	d01a      	beq.n	80062bc <HAL_DMA_IRQHandler+0x15c>
 8006286:	687b      	ldr	r3, [r7, #4]
 8006288:	681b      	ldr	r3, [r3, #0]
 800628a:	4a34      	ldr	r2, [pc, #208]	@ (800635c <HAL_DMA_IRQHandler+0x1fc>)
 800628c:	4293      	cmp	r3, r2
 800628e:	d012      	beq.n	80062b6 <HAL_DMA_IRQHandler+0x156>
 8006290:	687b      	ldr	r3, [r7, #4]
 8006292:	681b      	ldr	r3, [r3, #0]
 8006294:	4a32      	ldr	r2, [pc, #200]	@ (8006360 <HAL_DMA_IRQHandler+0x200>)
 8006296:	4293      	cmp	r3, r2
 8006298:	d00a      	beq.n	80062b0 <HAL_DMA_IRQHandler+0x150>
 800629a:	687b      	ldr	r3, [r7, #4]
 800629c:	681b      	ldr	r3, [r3, #0]
 800629e:	4a31      	ldr	r2, [pc, #196]	@ (8006364 <HAL_DMA_IRQHandler+0x204>)
 80062a0:	4293      	cmp	r3, r2
 80062a2:	d102      	bne.n	80062aa <HAL_DMA_IRQHandler+0x14a>
 80062a4:	f44f 1300 	mov.w	r3, #2097152	@ 0x200000
 80062a8:	e00e      	b.n	80062c8 <HAL_DMA_IRQHandler+0x168>
 80062aa:	f04f 7300 	mov.w	r3, #33554432	@ 0x2000000
 80062ae:	e00b      	b.n	80062c8 <HAL_DMA_IRQHandler+0x168>
 80062b0:	f44f 3300 	mov.w	r3, #131072	@ 0x20000
 80062b4:	e008      	b.n	80062c8 <HAL_DMA_IRQHandler+0x168>
 80062b6:	f44f 5300 	mov.w	r3, #8192	@ 0x2000
 80062ba:	e005      	b.n	80062c8 <HAL_DMA_IRQHandler+0x168>
 80062bc:	f44f 7300 	mov.w	r3, #512	@ 0x200
 80062c0:	e002      	b.n	80062c8 <HAL_DMA_IRQHandler+0x168>
 80062c2:	2320      	movs	r3, #32
 80062c4:	e000      	b.n	80062c8 <HAL_DMA_IRQHandler+0x168>
 80062c6:	2302      	movs	r3, #2
 80062c8:	4a27      	ldr	r2, [pc, #156]	@ (8006368 <HAL_DMA_IRQHandler+0x208>)
 80062ca:	6053      	str	r3, [r2, #4]
 80062cc:	687b      	ldr	r3, [r7, #4]
 80062ce:	2200      	movs	r2, #0
 80062d0:	f883 2020 	strb.w	r2, [r3, #32]
 80062d4:	687b      	ldr	r3, [r7, #4]
 80062d6:	6a9b      	ldr	r3, [r3, #40]	@ 0x28
 80062d8:	2b00      	cmp	r3, #0
 80062da:	d034      	beq.n	8006346 <HAL_DMA_IRQHandler+0x1e6>
 80062dc:	687b      	ldr	r3, [r7, #4]
 80062de:	6a9b      	ldr	r3, [r3, #40]	@ 0x28
 80062e0:	6878      	ldr	r0, [r7, #4]
 80062e2:	4798      	blx	r3
 80062e4:	e02f      	b.n	8006346 <HAL_DMA_IRQHandler+0x1e6>
 80062e6:	687b      	ldr	r3, [r7, #4]
 80062e8:	6c1b      	ldr	r3, [r3, #64]	@ 0x40
 80062ea:	2208      	movs	r2, #8
 80062ec:	409a      	lsls	r2, r3
 80062ee:	68fb      	ldr	r3, [r7, #12]
 80062f0:	4013      	ands	r3, r2
 80062f2:	2b00      	cmp	r3, #0
 80062f4:	d028      	beq.n	8006348 <HAL_DMA_IRQHandler+0x1e8>
 80062f6:	68bb      	ldr	r3, [r7, #8]
 80062f8:	f003 0308 	and.w	r3, r3, #8
 80062fc:	2b00      	cmp	r3, #0
 80062fe:	d023      	beq.n	8006348 <HAL_DMA_IRQHandler+0x1e8>
 8006300:	687b      	ldr	r3, [r7, #4]
 8006302:	681b      	ldr	r3, [r3, #0]
 8006304:	681a      	ldr	r2, [r3, #0]
 8006306:	687b      	ldr	r3, [r7, #4]
 8006308:	681b      	ldr	r3, [r3, #0]
 800630a:	f022 020e 	bic.w	r2, r2, #14
 800630e:	601a      	str	r2, [r3, #0]
 8006310:	687b      	ldr	r3, [r7, #4]
 8006312:	6c1a      	ldr	r2, [r3, #64]	@ 0x40
 8006314:	687b      	ldr	r3, [r7, #4]
 8006316:	6bdb      	ldr	r3, [r3, #60]	@ 0x3c
 8006318:	2101      	movs	r1, #1
 800631a:	fa01 f202 	lsl.w	r2, r1, r2
 800631e:	605a      	str	r2, [r3, #4]
 8006320:	687b      	ldr	r3, [r7, #4]
 8006322:	2201      	movs	r2, #1
 8006324:	639a      	str	r2, [r3, #56]	@ 0x38
 8006326:	687b      	ldr	r3, [r7, #4]
 8006328:	2201      	movs	r2, #1
 800632a:	f883 2021 	strb.w	r2, [r3, #33]	@ 0x21
 800632e:	687b      	ldr	r3, [r7, #4]
 8006330:	2200      	movs	r2, #0
 8006332:	f883 2020 	strb.w	r2, [r3, #32]
 8006336:	687b      	ldr	r3, [r7, #4]
 8006338:	6b1b      	ldr	r3, [r3, #48]	@ 0x30
 800633a:	2b00      	cmp	r3, #0
 800633c:	d004      	beq.n	8006348 <HAL_DMA_IRQHandler+0x1e8>
 800633e:	687b      	ldr	r3, [r7, #4]
 8006340:	6b1b      	ldr	r3, [r3, #48]	@ 0x30
 8006342:	6878      	ldr	r0, [r7, #4]
 8006344:	4798      	blx	r3
 8006346:	bf00      	nop
 8006348:	bf00      	nop
 800634a:	3710      	adds	r7, #16
 800634c:	46bd      	mov	sp, r7
 800634e:	bd80      	pop	{r7, pc}
 8006350:	40020008 	.word	0x40020008
 8006354:	4002001c 	.word	0x4002001c
 8006358:	40020030 	.word	0x40020030
 800635c:	40020044 	.word	0x40020044
 8006360:	40020058 	.word	0x40020058
 8006364:	4002006c 	.word	0x4002006c
 8006368:	40020000 	.word	0x40020000

0800636c <DMA_SetConfig>:
 800636c:	b480      	push	{r7}
 800636e:	b085      	sub	sp, #20
 8006370:	af00      	add	r7, sp, #0
 8006372:	60f8      	str	r0, [r7, #12]
 8006374:	60b9      	str	r1, [r7, #8]
 8006376:	607a      	str	r2, [r7, #4]
 8006378:	603b      	str	r3, [r7, #0]
 800637a:	68fb      	ldr	r3, [r7, #12]
 800637c:	6c1a      	ldr	r2, [r3, #64]	@ 0x40
 800637e:	68fb      	ldr	r3, [r7, #12]
 8006380:	6bdb      	ldr	r3, [r3, #60]	@ 0x3c
 8006382:	2101      	movs	r1, #1
 8006384:	fa01 f202 	lsl.w	r2, r1, r2
 8006388:	605a      	str	r2, [r3, #4]
 800638a:	68fb      	ldr	r3, [r7, #12]
 800638c:	681b      	ldr	r3, [r3, #0]
 800638e:	683a      	ldr	r2, [r7, #0]
 8006390:	605a      	str	r2, [r3, #4]
 8006392:	68fb      	ldr	r3, [r7, #12]
 8006394:	685b      	ldr	r3, [r3, #4]
 8006396:	2b10      	cmp	r3, #16
 8006398:	d108      	bne.n	80063ac <DMA_SetConfig+0x40>
 800639a:	68fb      	ldr	r3, [r7, #12]
 800639c:	681b      	ldr	r3, [r3, #0]
 800639e:	687a      	ldr	r2, [r7, #4]
 80063a0:	609a      	str	r2, [r3, #8]
 80063a2:	68fb      	ldr	r3, [r7, #12]
 80063a4:	681b      	ldr	r3, [r3, #0]
 80063a6:	68ba      	ldr	r2, [r7, #8]
 80063a8:	60da      	str	r2, [r3, #12]
 80063aa:	e007      	b.n	80063bc <DMA_SetConfig+0x50>
 80063ac:	68fb      	ldr	r3, [r7, #12]
 80063ae:	681b      	ldr	r3, [r3, #0]
 80063b0:	68ba      	ldr	r2, [r7, #8]
 80063b2:	609a      	str	r2, [r3, #8]
 80063b4:	68fb      	ldr	r3, [r7, #12]
 80063b6:	681b      	ldr	r3, [r3, #0]
 80063b8:	687a      	ldr	r2, [r7, #4]
 80063ba:	60da      	str	r2, [r3, #12]
 80063bc:	bf00      	nop
 80063be:	3714      	adds	r7, #20
 80063c0:	46bd      	mov	sp, r7
 80063c2:	bc80      	pop	{r7}
 80063c4:	4770      	bx	lr
	...

080063c8 <HAL_FLASH_Program>:
 80063c8:	b5f0      	push	{r4, r5, r6, r7, lr}
 80063ca:	b087      	sub	sp, #28
 80063cc:	af00      	add	r7, sp, #0
 80063ce:	60f8      	str	r0, [r7, #12]
 80063d0:	60b9      	str	r1, [r7, #8]
 80063d2:	e9c7 2300 	strd	r2, r3, [r7]
 80063d6:	2301      	movs	r3, #1
 80063d8:	75fb      	strb	r3, [r7, #23]
 80063da:	2300      	movs	r3, #0
 80063dc:	75bb      	strb	r3, [r7, #22]
 80063de:	2300      	movs	r3, #0
 80063e0:	757b      	strb	r3, [r7, #21]
 80063e2:	4b2f      	ldr	r3, [pc, #188]	@ (80064a0 <HAL_FLASH_Program+0xd8>)
 80063e4:	7e1b      	ldrb	r3, [r3, #24]
 80063e6:	2b01      	cmp	r3, #1
 80063e8:	d101      	bne.n	80063ee <HAL_FLASH_Program+0x26>
 80063ea:	2302      	movs	r3, #2
 80063ec:	e054      	b.n	8006498 <HAL_FLASH_Program+0xd0>
 80063ee:	4b2c      	ldr	r3, [pc, #176]	@ (80064a0 <HAL_FLASH_Program+0xd8>)
 80063f0:	2201      	movs	r2, #1
 80063f2:	761a      	strb	r2, [r3, #24]
 80063f4:	f24c 3050 	movw	r0, #50000	@ 0xc350
 80063f8:	f000 f8a8 	bl	800654c <FLASH_WaitForLastOperation>
 80063fc:	4603      	mov	r3, r0
 80063fe:	75fb      	strb	r3, [r7, #23]
 8006400:	7dfb      	ldrb	r3, [r7, #23]
 8006402:	2b00      	cmp	r3, #0
 8006404:	d144      	bne.n	8006490 <HAL_FLASH_Program+0xc8>
 8006406:	68fb      	ldr	r3, [r7, #12]
 8006408:	2b01      	cmp	r3, #1
 800640a:	d102      	bne.n	8006412 <HAL_FLASH_Program+0x4a>
 800640c:	2301      	movs	r3, #1
 800640e:	757b      	strb	r3, [r7, #21]
 8006410:	e007      	b.n	8006422 <HAL_FLASH_Program+0x5a>
 8006412:	68fb      	ldr	r3, [r7, #12]
 8006414:	2b02      	cmp	r3, #2
 8006416:	d102      	bne.n	800641e <HAL_FLASH_Program+0x56>
 8006418:	2302      	movs	r3, #2
 800641a:	757b      	strb	r3, [r7, #21]
 800641c:	e001      	b.n	8006422 <HAL_FLASH_Program+0x5a>
 800641e:	2304      	movs	r3, #4
 8006420:	757b      	strb	r3, [r7, #21]
 8006422:	2300      	movs	r3, #0
 8006424:	75bb      	strb	r3, [r7, #22]
 8006426:	e02d      	b.n	8006484 <HAL_FLASH_Program+0xbc>
 8006428:	7dbb      	ldrb	r3, [r7, #22]
 800642a:	005a      	lsls	r2, r3, #1
 800642c:	68bb      	ldr	r3, [r7, #8]
 800642e:	eb02 0c03 	add.w	ip, r2, r3
 8006432:	7dbb      	ldrb	r3, [r7, #22]
 8006434:	0119      	lsls	r1, r3, #4
 8006436:	e9d7 2300 	ldrd	r2, r3, [r7]
 800643a:	f1c1 0620 	rsb	r6, r1, #32
 800643e:	f1a1 0020 	sub.w	r0, r1, #32
 8006442:	fa22 f401 	lsr.w	r4, r2, r1
 8006446:	fa03 f606 	lsl.w	r6, r3, r6
 800644a:	4334      	orrs	r4, r6
 800644c:	fa23 f000 	lsr.w	r0, r3, r0
 8006450:	4304      	orrs	r4, r0
 8006452:	fa23 f501 	lsr.w	r5, r3, r1
 8006456:	b2a3      	uxth	r3, r4
 8006458:	4619      	mov	r1, r3
 800645a:	4660      	mov	r0, ip
 800645c:	f000 f85a 	bl	8006514 <FLASH_Program_HalfWord>
 8006460:	f24c 3050 	movw	r0, #50000	@ 0xc350
 8006464:	f000 f872 	bl	800654c <FLASH_WaitForLastOperation>
 8006468:	4603      	mov	r3, r0
 800646a:	75fb      	strb	r3, [r7, #23]
 800646c:	4b0d      	ldr	r3, [pc, #52]	@ (80064a4 <HAL_FLASH_Program+0xdc>)
 800646e:	691b      	ldr	r3, [r3, #16]
 8006470:	4a0c      	ldr	r2, [pc, #48]	@ (80064a4 <HAL_FLASH_Program+0xdc>)
 8006472:	f023 0301 	bic.w	r3, r3, #1
 8006476:	6113      	str	r3, [r2, #16]
 8006478:	7dfb      	ldrb	r3, [r7, #23]
 800647a:	2b00      	cmp	r3, #0
 800647c:	d107      	bne.n	800648e <HAL_FLASH_Program+0xc6>
 800647e:	7dbb      	ldrb	r3, [r7, #22]
 8006480:	3301      	adds	r3, #1
 8006482:	75bb      	strb	r3, [r7, #22]
 8006484:	7dba      	ldrb	r2, [r7, #22]
 8006486:	7d7b      	ldrb	r3, [r7, #21]
 8006488:	429a      	cmp	r2, r3
 800648a:	d3cd      	bcc.n	8006428 <HAL_FLASH_Program+0x60>
 800648c:	e000      	b.n	8006490 <HAL_FLASH_Program+0xc8>
 800648e:	bf00      	nop
 8006490:	4b03      	ldr	r3, [pc, #12]	@ (80064a0 <HAL_FLASH_Program+0xd8>)
 8006492:	2200      	movs	r2, #0
 8006494:	761a      	strb	r2, [r3, #24]
 8006496:	7dfb      	ldrb	r3, [r7, #23]
 8006498:	4618      	mov	r0, r3
 800649a:	371c      	adds	r7, #28
 800649c:	46bd      	mov	sp, r7
 800649e:	bdf0      	pop	{r4, r5, r6, r7, pc}
 80064a0:	200007d8 	.word	0x200007d8
 80064a4:	40022000 	.word	0x40022000

080064a8 <HAL_FLASH_Unlock>:
 80064a8:	b480      	push	{r7}
 80064aa:	b083      	sub	sp, #12
 80064ac:	af00      	add	r7, sp, #0
 80064ae:	2300      	movs	r3, #0
 80064b0:	71fb      	strb	r3, [r7, #7]
 80064b2:	4b0d      	ldr	r3, [pc, #52]	@ (80064e8 <HAL_FLASH_Unlock+0x40>)
 80064b4:	691b      	ldr	r3, [r3, #16]
 80064b6:	f003 0380 	and.w	r3, r3, #128	@ 0x80
 80064ba:	2b00      	cmp	r3, #0
 80064bc:	d00d      	beq.n	80064da <HAL_FLASH_Unlock+0x32>
 80064be:	4b0a      	ldr	r3, [pc, #40]	@ (80064e8 <HAL_FLASH_Unlock+0x40>)
 80064c0:	4a0a      	ldr	r2, [pc, #40]	@ (80064ec <HAL_FLASH_Unlock+0x44>)
 80064c2:	605a      	str	r2, [r3, #4]
 80064c4:	4b08      	ldr	r3, [pc, #32]	@ (80064e8 <HAL_FLASH_Unlock+0x40>)
 80064c6:	4a0a      	ldr	r2, [pc, #40]	@ (80064f0 <HAL_FLASH_Unlock+0x48>)
 80064c8:	605a      	str	r2, [r3, #4]
 80064ca:	4b07      	ldr	r3, [pc, #28]	@ (80064e8 <HAL_FLASH_Unlock+0x40>)
 80064cc:	691b      	ldr	r3, [r3, #16]
 80064ce:	f003 0380 	and.w	r3, r3, #128	@ 0x80
 80064d2:	2b00      	cmp	r3, #0
 80064d4:	d001      	beq.n	80064da <HAL_FLASH_Unlock+0x32>
 80064d6:	2301      	movs	r3, #1
 80064d8:	71fb      	strb	r3, [r7, #7]
 80064da:	79fb      	ldrb	r3, [r7, #7]
 80064dc:	4618      	mov	r0, r3
 80064de:	370c      	adds	r7, #12
 80064e0:	46bd      	mov	sp, r7
 80064e2:	bc80      	pop	{r7}
 80064e4:	4770      	bx	lr
 80064e6:	bf00      	nop
 80064e8:	40022000 	.word	0x40022000
 80064ec:	45670123 	.word	0x45670123
 80064f0:	cdef89ab 	.word	0xcdef89ab

080064f4 <HAL_FLASH_Lock>:
 80064f4:	b480      	push	{r7}
 80064f6:	af00      	add	r7, sp, #0
 80064f8:	4b05      	ldr	r3, [pc, #20]	@ (8006510 <HAL_FLASH_Lock+0x1c>)
 80064fa:	691b      	ldr	r3, [r3, #16]
 80064fc:	4a04      	ldr	r2, [pc, #16]	@ (8006510 <HAL_FLASH_Lock+0x1c>)
 80064fe:	f043 0380 	orr.w	r3, r3, #128	@ 0x80
 8006502:	6113      	str	r3, [r2, #16]
 8006504:	2300      	movs	r3, #0
 8006506:	4618      	mov	r0, r3
 8006508:	46bd      	mov	sp, r7
 800650a:	bc80      	pop	{r7}
 800650c:	4770      	bx	lr
 800650e:	bf00      	nop
 8006510:	40022000 	.word	0x40022000

08006514 <FLASH_Program_HalfWord>:
 8006514:	b480      	push	{r7}
 8006516:	b083      	sub	sp, #12
 8006518:	af00      	add	r7, sp, #0
 800651a:	6078      	str	r0, [r7, #4]
 800651c:	460b      	mov	r3, r1
 800651e:	807b      	strh	r3, [r7, #2]
 8006520:	4b08      	ldr	r3, [pc, #32]	@ (8006544 <FLASH_Program_HalfWord+0x30>)
 8006522:	2200      	movs	r2, #0
 8006524:	61da      	str	r2, [r3, #28]
 8006526:	4b08      	ldr	r3, [pc, #32]	@ (8006548 <FLASH_Program_HalfWord+0x34>)
 8006528:	691b      	ldr	r3, [r3, #16]
 800652a:	4a07      	ldr	r2, [pc, #28]	@ (8006548 <FLASH_Program_HalfWord+0x34>)
 800652c:	f043 0301 	orr.w	r3, r3, #1
 8006530:	6113      	str	r3, [r2, #16]
 8006532:	687b      	ldr	r3, [r7, #4]
 8006534:	887a      	ldrh	r2, [r7, #2]
 8006536:	801a      	strh	r2, [r3, #0]
 8006538:	bf00      	nop
 800653a:	370c      	adds	r7, #12
 800653c:	46bd      	mov	sp, r7
 800653e:	bc80      	pop	{r7}
 8006540:	4770      	bx	lr
 8006542:	bf00      	nop
 8006544:	200007d8 	.word	0x200007d8
 8006548:	40022000 	.word	0x40022000

0800654c <FLASH_WaitForLastOperation>:
 800654c:	b580      	push	{r7, lr}
 800654e:	b084      	sub	sp, #16
 8006550:	af00      	add	r7, sp, #0
 8006552:	6078      	str	r0, [r7, #4]
 8006554:	f7fe fc6a 	bl	8004e2c <HAL_GetTick>
 8006558:	60f8      	str	r0, [r7, #12]
 800655a:	e010      	b.n	800657e <FLASH_WaitForLastOperation+0x32>
 800655c:	687b      	ldr	r3, [r7, #4]
 800655e:	f1b3 3fff 	cmp.w	r3, #4294967295
 8006562:	d00c      	beq.n	800657e <FLASH_WaitForLastOperation+0x32>
 8006564:	687b      	ldr	r3, [r7, #4]
 8006566:	2b00      	cmp	r3, #0
 8006568:	d007      	beq.n	800657a <FLASH_WaitForLastOperation+0x2e>
 800656a:	f7fe fc5f 	bl	8004e2c <HAL_GetTick>
 800656e:	4602      	mov	r2, r0
 8006570:	68fb      	ldr	r3, [r7, #12]
 8006572:	1ad3      	subs	r3, r2, r3
 8006574:	687a      	ldr	r2, [r7, #4]
 8006576:	429a      	cmp	r2, r3
 8006578:	d201      	bcs.n	800657e <FLASH_WaitForLastOperation+0x32>
 800657a:	2303      	movs	r3, #3
 800657c:	e025      	b.n	80065ca <FLASH_WaitForLastOperation+0x7e>
 800657e:	4b15      	ldr	r3, [pc, #84]	@ (80065d4 <FLASH_WaitForLastOperation+0x88>)
 8006580:	68db      	ldr	r3, [r3, #12]
 8006582:	f003 0301 	and.w	r3, r3, #1
 8006586:	2b00      	cmp	r3, #0
 8006588:	d1e8      	bne.n	800655c <FLASH_WaitForLastOperation+0x10>
 800658a:	4b12      	ldr	r3, [pc, #72]	@ (80065d4 <FLASH_WaitForLastOperation+0x88>)
 800658c:	68db      	ldr	r3, [r3, #12]
 800658e:	f003 0320 	and.w	r3, r3, #32
 8006592:	2b00      	cmp	r3, #0
 8006594:	d002      	beq.n	800659c <FLASH_WaitForLastOperation+0x50>
 8006596:	4b0f      	ldr	r3, [pc, #60]	@ (80065d4 <FLASH_WaitForLastOperation+0x88>)
 8006598:	2220      	movs	r2, #32
 800659a:	60da      	str	r2, [r3, #12]
 800659c:	4b0d      	ldr	r3, [pc, #52]	@ (80065d4 <FLASH_WaitForLastOperation+0x88>)
 800659e:	68db      	ldr	r3, [r3, #12]
 80065a0:	f003 0310 	and.w	r3, r3, #16
 80065a4:	2b00      	cmp	r3, #0
 80065a6:	d10b      	bne.n	80065c0 <FLASH_WaitForLastOperation+0x74>
 80065a8:	4b0a      	ldr	r3, [pc, #40]	@ (80065d4 <FLASH_WaitForLastOperation+0x88>)
 80065aa:	69db      	ldr	r3, [r3, #28]
 80065ac:	f003 0301 	and.w	r3, r3, #1
 80065b0:	2b00      	cmp	r3, #0
 80065b2:	d105      	bne.n	80065c0 <FLASH_WaitForLastOperation+0x74>
 80065b4:	4b07      	ldr	r3, [pc, #28]	@ (80065d4 <FLASH_WaitForLastOperation+0x88>)
 80065b6:	68db      	ldr	r3, [r3, #12]
 80065b8:	f003 0304 	and.w	r3, r3, #4
 80065bc:	2b00      	cmp	r3, #0
 80065be:	d003      	beq.n	80065c8 <FLASH_WaitForLastOperation+0x7c>
 80065c0:	f000 f80a 	bl	80065d8 <FLASH_SetErrorCode>
 80065c4:	2301      	movs	r3, #1
 80065c6:	e000      	b.n	80065ca <FLASH_WaitForLastOperation+0x7e>
 80065c8:	2300      	movs	r3, #0
 80065ca:	4618      	mov	r0, r3
 80065cc:	3710      	adds	r7, #16
 80065ce:	46bd      	mov	sp, r7
 80065d0:	bd80      	pop	{r7, pc}
 80065d2:	bf00      	nop
 80065d4:	40022000 	.word	0x40022000

080065d8 <FLASH_SetErrorCode>:
 80065d8:	b480      	push	{r7}
 80065da:	b083      	sub	sp, #12
 80065dc:	af00      	add	r7, sp, #0
 80065de:	2300      	movs	r3, #0
 80065e0:	607b      	str	r3, [r7, #4]
 80065e2:	4b23      	ldr	r3, [pc, #140]	@ (8006670 <FLASH_SetErrorCode+0x98>)
 80065e4:	68db      	ldr	r3, [r3, #12]
 80065e6:	f003 0310 	and.w	r3, r3, #16
 80065ea:	2b00      	cmp	r3, #0
 80065ec:	d009      	beq.n	8006602 <FLASH_SetErrorCode+0x2a>
 80065ee:	4b21      	ldr	r3, [pc, #132]	@ (8006674 <FLASH_SetErrorCode+0x9c>)
 80065f0:	69db      	ldr	r3, [r3, #28]
 80065f2:	f043 0302 	orr.w	r3, r3, #2
 80065f6:	4a1f      	ldr	r2, [pc, #124]	@ (8006674 <FLASH_SetErrorCode+0x9c>)
 80065f8:	61d3      	str	r3, [r2, #28]
 80065fa:	687b      	ldr	r3, [r7, #4]
 80065fc:	f043 0310 	orr.w	r3, r3, #16
 8006600:	607b      	str	r3, [r7, #4]
 8006602:	4b1b      	ldr	r3, [pc, #108]	@ (8006670 <FLASH_SetErrorCode+0x98>)
 8006604:	68db      	ldr	r3, [r3, #12]
 8006606:	f003 0304 	and.w	r3, r3, #4
 800660a:	2b00      	cmp	r3, #0
 800660c:	d009      	beq.n	8006622 <FLASH_SetErrorCode+0x4a>
 800660e:	4b19      	ldr	r3, [pc, #100]	@ (8006674 <FLASH_SetErrorCode+0x9c>)
 8006610:	69db      	ldr	r3, [r3, #28]
 8006612:	f043 0301 	orr.w	r3, r3, #1
 8006616:	4a17      	ldr	r2, [pc, #92]	@ (8006674 <FLASH_SetErrorCode+0x9c>)
 8006618:	61d3      	str	r3, [r2, #28]
 800661a:	687b      	ldr	r3, [r7, #4]
 800661c:	f043 0304 	orr.w	r3, r3, #4
 8006620:	607b      	str	r3, [r7, #4]
 8006622:	4b13      	ldr	r3, [pc, #76]	@ (8006670 <FLASH_SetErrorCode+0x98>)
 8006624:	69db      	ldr	r3, [r3, #28]
 8006626:	f003 0301 	and.w	r3, r3, #1
 800662a:	2b00      	cmp	r3, #0
 800662c:	d00b      	beq.n	8006646 <FLASH_SetErrorCode+0x6e>
 800662e:	4b11      	ldr	r3, [pc, #68]	@ (8006674 <FLASH_SetErrorCode+0x9c>)
 8006630:	69db      	ldr	r3, [r3, #28]
 8006632:	f043 0304 	orr.w	r3, r3, #4
 8006636:	4a0f      	ldr	r2, [pc, #60]	@ (8006674 <FLASH_SetErrorCode+0x9c>)
 8006638:	61d3      	str	r3, [r2, #28]
 800663a:	4b0d      	ldr	r3, [pc, #52]	@ (8006670 <FLASH_SetErrorCode+0x98>)
 800663c:	69db      	ldr	r3, [r3, #28]
 800663e:	4a0c      	ldr	r2, [pc, #48]	@ (8006670 <FLASH_SetErrorCode+0x98>)
 8006640:	f023 0301 	bic.w	r3, r3, #1
 8006644:	61d3      	str	r3, [r2, #28]
 8006646:	687b      	ldr	r3, [r7, #4]
 8006648:	f240 1201 	movw	r2, #257	@ 0x101
 800664c:	4293      	cmp	r3, r2
 800664e:	d106      	bne.n	800665e <FLASH_SetErrorCode+0x86>
 8006650:	4b07      	ldr	r3, [pc, #28]	@ (8006670 <FLASH_SetErrorCode+0x98>)
 8006652:	69db      	ldr	r3, [r3, #28]
 8006654:	4a06      	ldr	r2, [pc, #24]	@ (8006670 <FLASH_SetErrorCode+0x98>)
 8006656:	f023 0301 	bic.w	r3, r3, #1
 800665a:	61d3      	str	r3, [r2, #28]
 800665c:	e002      	b.n	8006664 <FLASH_SetErrorCode+0x8c>
 800665e:	4a04      	ldr	r2, [pc, #16]	@ (8006670 <FLASH_SetErrorCode+0x98>)
 8006660:	687b      	ldr	r3, [r7, #4]
 8006662:	60d3      	str	r3, [r2, #12]
 8006664:	bf00      	nop
 8006666:	370c      	adds	r7, #12
 8006668:	46bd      	mov	sp, r7
 800666a:	bc80      	pop	{r7}
 800666c:	4770      	bx	lr
 800666e:	bf00      	nop
 8006670:	40022000 	.word	0x40022000
 8006674:	200007d8 	.word	0x200007d8

08006678 <HAL_FLASHEx_Erase>:
 8006678:	b580      	push	{r7, lr}
 800667a:	b084      	sub	sp, #16
 800667c:	af00      	add	r7, sp, #0
 800667e:	6078      	str	r0, [r7, #4]
 8006680:	6039      	str	r1, [r7, #0]
 8006682:	2301      	movs	r3, #1
 8006684:	73fb      	strb	r3, [r7, #15]
 8006686:	2300      	movs	r3, #0
 8006688:	60bb      	str	r3, [r7, #8]
 800668a:	4b2f      	ldr	r3, [pc, #188]	@ (8006748 <HAL_FLASHEx_Erase+0xd0>)
 800668c:	7e1b      	ldrb	r3, [r3, #24]
 800668e:	2b01      	cmp	r3, #1
 8006690:	d101      	bne.n	8006696 <HAL_FLASHEx_Erase+0x1e>
 8006692:	2302      	movs	r3, #2
 8006694:	e053      	b.n	800673e <HAL_FLASHEx_Erase+0xc6>
 8006696:	4b2c      	ldr	r3, [pc, #176]	@ (8006748 <HAL_FLASHEx_Erase+0xd0>)
 8006698:	2201      	movs	r2, #1
 800669a:	761a      	strb	r2, [r3, #24]
 800669c:	687b      	ldr	r3, [r7, #4]
 800669e:	681b      	ldr	r3, [r3, #0]
 80066a0:	2b02      	cmp	r3, #2
 80066a2:	d116      	bne.n	80066d2 <HAL_FLASHEx_Erase+0x5a>
 80066a4:	f24c 3050 	movw	r0, #50000	@ 0xc350
 80066a8:	f7ff ff50 	bl	800654c <FLASH_WaitForLastOperation>
 80066ac:	4603      	mov	r3, r0
 80066ae:	2b00      	cmp	r3, #0
 80066b0:	d141      	bne.n	8006736 <HAL_FLASHEx_Erase+0xbe>
 80066b2:	2001      	movs	r0, #1
 80066b4:	f000 f84c 	bl	8006750 <FLASH_MassErase>
 80066b8:	f24c 3050 	movw	r0, #50000	@ 0xc350
 80066bc:	f7ff ff46 	bl	800654c <FLASH_WaitForLastOperation>
 80066c0:	4603      	mov	r3, r0
 80066c2:	73fb      	strb	r3, [r7, #15]
 80066c4:	4b21      	ldr	r3, [pc, #132]	@ (800674c <HAL_FLASHEx_Erase+0xd4>)
 80066c6:	691b      	ldr	r3, [r3, #16]
 80066c8:	4a20      	ldr	r2, [pc, #128]	@ (800674c <HAL_FLASHEx_Erase+0xd4>)
 80066ca:	f023 0304 	bic.w	r3, r3, #4
 80066ce:	6113      	str	r3, [r2, #16]
 80066d0:	e031      	b.n	8006736 <HAL_FLASHEx_Erase+0xbe>
 80066d2:	f24c 3050 	movw	r0, #50000	@ 0xc350
 80066d6:	f7ff ff39 	bl	800654c <FLASH_WaitForLastOperation>
 80066da:	4603      	mov	r3, r0
 80066dc:	2b00      	cmp	r3, #0
 80066de:	d12a      	bne.n	8006736 <HAL_FLASHEx_Erase+0xbe>
 80066e0:	683b      	ldr	r3, [r7, #0]
 80066e2:	f04f 32ff 	mov.w	r2, #4294967295
 80066e6:	601a      	str	r2, [r3, #0]
 80066e8:	687b      	ldr	r3, [r7, #4]
 80066ea:	689b      	ldr	r3, [r3, #8]
 80066ec:	60bb      	str	r3, [r7, #8]
 80066ee:	e019      	b.n	8006724 <HAL_FLASHEx_Erase+0xac>
 80066f0:	68b8      	ldr	r0, [r7, #8]
 80066f2:	f000 f849 	bl	8006788 <FLASH_PageErase>
 80066f6:	f24c 3050 	movw	r0, #50000	@ 0xc350
 80066fa:	f7ff ff27 	bl	800654c <FLASH_WaitForLastOperation>
 80066fe:	4603      	mov	r3, r0
 8006700:	73fb      	strb	r3, [r7, #15]
 8006702:	4b12      	ldr	r3, [pc, #72]	@ (800674c <HAL_FLASHEx_Erase+0xd4>)
 8006704:	691b      	ldr	r3, [r3, #16]
 8006706:	4a11      	ldr	r2, [pc, #68]	@ (800674c <HAL_FLASHEx_Erase+0xd4>)
 8006708:	f023 0302 	bic.w	r3, r3, #2
 800670c:	6113      	str	r3, [r2, #16]
 800670e:	7bfb      	ldrb	r3, [r7, #15]
 8006710:	2b00      	cmp	r3, #0
 8006712:	d003      	beq.n	800671c <HAL_FLASHEx_Erase+0xa4>
 8006714:	683b      	ldr	r3, [r7, #0]
 8006716:	68ba      	ldr	r2, [r7, #8]
 8006718:	601a      	str	r2, [r3, #0]
 800671a:	e00c      	b.n	8006736 <HAL_FLASHEx_Erase+0xbe>
 800671c:	68bb      	ldr	r3, [r7, #8]
 800671e:	f503 6380 	add.w	r3, r3, #1024	@ 0x400
 8006722:	60bb      	str	r3, [r7, #8]
 8006724:	687b      	ldr	r3, [r7, #4]
 8006726:	68db      	ldr	r3, [r3, #12]
 8006728:	029a      	lsls	r2, r3, #10
 800672a:	687b      	ldr	r3, [r7, #4]
 800672c:	689b      	ldr	r3, [r3, #8]
 800672e:	4413      	add	r3, r2
 8006730:	68ba      	ldr	r2, [r7, #8]
 8006732:	429a      	cmp	r2, r3
 8006734:	d3dc      	bcc.n	80066f0 <HAL_FLASHEx_Erase+0x78>
 8006736:	4b04      	ldr	r3, [pc, #16]	@ (8006748 <HAL_FLASHEx_Erase+0xd0>)
 8006738:	2200      	movs	r2, #0
 800673a:	761a      	strb	r2, [r3, #24]
 800673c:	7bfb      	ldrb	r3, [r7, #15]
 800673e:	4618      	mov	r0, r3
 8006740:	3710      	adds	r7, #16
 8006742:	46bd      	mov	sp, r7
 8006744:	bd80      	pop	{r7, pc}
 8006746:	bf00      	nop
 8006748:	200007d8 	.word	0x200007d8
 800674c:	40022000 	.word	0x40022000

08006750 <FLASH_MassErase>:
 8006750:	b480      	push	{r7}
 8006752:	b083      	sub	sp, #12
 8006754:	af00      	add	r7, sp, #0
 8006756:	6078      	str	r0, [r7, #4]
 8006758:	4b09      	ldr	r3, [pc, #36]	@ (8006780 <FLASH_MassErase+0x30>)
 800675a:	2200      	movs	r2, #0
 800675c:	61da      	str	r2, [r3, #28]
 800675e:	4b09      	ldr	r3, [pc, #36]	@ (8006784 <FLASH_MassErase+0x34>)
 8006760:	691b      	ldr	r3, [r3, #16]
 8006762:	4a08      	ldr	r2, [pc, #32]	@ (8006784 <FLASH_MassErase+0x34>)
 8006764:	f043 0304 	orr.w	r3, r3, #4
 8006768:	6113      	str	r3, [r2, #16]
 800676a:	4b06      	ldr	r3, [pc, #24]	@ (8006784 <FLASH_MassErase+0x34>)
 800676c:	691b      	ldr	r3, [r3, #16]
 800676e:	4a05      	ldr	r2, [pc, #20]	@ (8006784 <FLASH_MassErase+0x34>)
 8006770:	f043 0340 	orr.w	r3, r3, #64	@ 0x40
 8006774:	6113      	str	r3, [r2, #16]
 8006776:	bf00      	nop
 8006778:	370c      	adds	r7, #12
 800677a:	46bd      	mov	sp, r7
 800677c:	bc80      	pop	{r7}
 800677e:	4770      	bx	lr
 8006780:	200007d8 	.word	0x200007d8
 8006784:	40022000 	.word	0x40022000

08006788 <FLASH_PageErase>:
 8006788:	b480      	push	{r7}
 800678a:	b083      	sub	sp, #12
 800678c:	af00      	add	r7, sp, #0
 800678e:	6078      	str	r0, [r7, #4]
 8006790:	4b0b      	ldr	r3, [pc, #44]	@ (80067c0 <FLASH_PageErase+0x38>)
 8006792:	2200      	movs	r2, #0
 8006794:	61da      	str	r2, [r3, #28]
 8006796:	4b0b      	ldr	r3, [pc, #44]	@ (80067c4 <FLASH_PageErase+0x3c>)
 8006798:	691b      	ldr	r3, [r3, #16]
 800679a:	4a0a      	ldr	r2, [pc, #40]	@ (80067c4 <FLASH_PageErase+0x3c>)
 800679c:	f043 0302 	orr.w	r3, r3, #2
 80067a0:	6113      	str	r3, [r2, #16]
 80067a2:	4a08      	ldr	r2, [pc, #32]	@ (80067c4 <FLASH_PageErase+0x3c>)
 80067a4:	687b      	ldr	r3, [r7, #4]
 80067a6:	6153      	str	r3, [r2, #20]
 80067a8:	4b06      	ldr	r3, [pc, #24]	@ (80067c4 <FLASH_PageErase+0x3c>)
 80067aa:	691b      	ldr	r3, [r3, #16]
 80067ac:	4a05      	ldr	r2, [pc, #20]	@ (80067c4 <FLASH_PageErase+0x3c>)
 80067ae:	f043 0340 	orr.w	r3, r3, #64	@ 0x40
 80067b2:	6113      	str	r3, [r2, #16]
 80067b4:	bf00      	nop
 80067b6:	370c      	adds	r7, #12
 80067b8:	46bd      	mov	sp, r7
 80067ba:	bc80      	pop	{r7}
 80067bc:	4770      	bx	lr
 80067be:	bf00      	nop
 80067c0:	200007d8 	.word	0x200007d8
 80067c4:	40022000 	.word	0x40022000

080067c8 <HAL_GPIO_Init>:
 80067c8:	b480      	push	{r7}
 80067ca:	b08b      	sub	sp, #44	@ 0x2c
 80067cc:	af00      	add	r7, sp, #0
 80067ce:	6078      	str	r0, [r7, #4]
 80067d0:	6039      	str	r1, [r7, #0]
 80067d2:	2300      	movs	r3, #0
 80067d4:	627b      	str	r3, [r7, #36]	@ 0x24
 80067d6:	2300      	movs	r3, #0
 80067d8:	623b      	str	r3, [r7, #32]
 80067da:	e169      	b.n	8006ab0 <HAL_GPIO_Init+0x2e8>
 80067dc:	2201      	movs	r2, #1
 80067de:	6a7b      	ldr	r3, [r7, #36]	@ 0x24
 80067e0:	fa02 f303 	lsl.w	r3, r2, r3
 80067e4:	61fb      	str	r3, [r7, #28]
 80067e6:	683b      	ldr	r3, [r7, #0]
 80067e8:	681b      	ldr	r3, [r3, #0]
 80067ea:	69fa      	ldr	r2, [r7, #28]
 80067ec:	4013      	ands	r3, r2
 80067ee:	61bb      	str	r3, [r7, #24]
 80067f0:	69ba      	ldr	r2, [r7, #24]
 80067f2:	69fb      	ldr	r3, [r7, #28]
 80067f4:	429a      	cmp	r2, r3
 80067f6:	f040 8158 	bne.w	8006aaa <HAL_GPIO_Init+0x2e2>
 80067fa:	683b      	ldr	r3, [r7, #0]
 80067fc:	685b      	ldr	r3, [r3, #4]
 80067fe:	4a9a      	ldr	r2, [pc, #616]	@ (8006a68 <HAL_GPIO_Init+0x2a0>)
 8006800:	4293      	cmp	r3, r2
 8006802:	d05e      	beq.n	80068c2 <HAL_GPIO_Init+0xfa>
 8006804:	4a98      	ldr	r2, [pc, #608]	@ (8006a68 <HAL_GPIO_Init+0x2a0>)
 8006806:	4293      	cmp	r3, r2
 8006808:	d875      	bhi.n	80068f6 <HAL_GPIO_Init+0x12e>
 800680a:	4a98      	ldr	r2, [pc, #608]	@ (8006a6c <HAL_GPIO_Init+0x2a4>)
 800680c:	4293      	cmp	r3, r2
 800680e:	d058      	beq.n	80068c2 <HAL_GPIO_Init+0xfa>
 8006810:	4a96      	ldr	r2, [pc, #600]	@ (8006a6c <HAL_GPIO_Init+0x2a4>)
 8006812:	4293      	cmp	r3, r2
 8006814:	d86f      	bhi.n	80068f6 <HAL_GPIO_Init+0x12e>
 8006816:	4a96      	ldr	r2, [pc, #600]	@ (8006a70 <HAL_GPIO_Init+0x2a8>)
 8006818:	4293      	cmp	r3, r2
 800681a:	d052      	beq.n	80068c2 <HAL_GPIO_Init+0xfa>
 800681c:	4a94      	ldr	r2, [pc, #592]	@ (8006a70 <HAL_GPIO_Init+0x2a8>)
 800681e:	4293      	cmp	r3, r2
 8006820:	d869      	bhi.n	80068f6 <HAL_GPIO_Init+0x12e>
 8006822:	4a94      	ldr	r2, [pc, #592]	@ (8006a74 <HAL_GPIO_Init+0x2ac>)
 8006824:	4293      	cmp	r3, r2
 8006826:	d04c      	beq.n	80068c2 <HAL_GPIO_Init+0xfa>
 8006828:	4a92      	ldr	r2, [pc, #584]	@ (8006a74 <HAL_GPIO_Init+0x2ac>)
 800682a:	4293      	cmp	r3, r2
 800682c:	d863      	bhi.n	80068f6 <HAL_GPIO_Init+0x12e>
 800682e:	4a92      	ldr	r2, [pc, #584]	@ (8006a78 <HAL_GPIO_Init+0x2b0>)
 8006830:	4293      	cmp	r3, r2
 8006832:	d046      	beq.n	80068c2 <HAL_GPIO_Init+0xfa>
 8006834:	4a90      	ldr	r2, [pc, #576]	@ (8006a78 <HAL_GPIO_Init+0x2b0>)
 8006836:	4293      	cmp	r3, r2
 8006838:	d85d      	bhi.n	80068f6 <HAL_GPIO_Init+0x12e>
 800683a:	2b12      	cmp	r3, #18
 800683c:	d82a      	bhi.n	8006894 <HAL_GPIO_Init+0xcc>
 800683e:	2b12      	cmp	r3, #18
 8006840:	d859      	bhi.n	80068f6 <HAL_GPIO_Init+0x12e>
 8006842:	a201      	add	r2, pc, #4	@ (adr r2, 8006848 <HAL_GPIO_Init+0x80>)
 8006844:	f852 f023 	ldr.w	pc, [r2, r3, lsl #2]
 8006848:	080068c3 	.word	0x080068c3
 800684c:	0800689d 	.word	0x0800689d
 8006850:	080068af 	.word	0x080068af
 8006854:	080068f1 	.word	0x080068f1
 8006858:	080068f7 	.word	0x080068f7
 800685c:	080068f7 	.word	0x080068f7
 8006860:	080068f7 	.word	0x080068f7
 8006864:	080068f7 	.word	0x080068f7
 8006868:	080068f7 	.word	0x080068f7
 800686c:	080068f7 	.word	0x080068f7
 8006870:	080068f7 	.word	0x080068f7
 8006874:	080068f7 	.word	0x080068f7
 8006878:	080068f7 	.word	0x080068f7
 800687c:	080068f7 	.word	0x080068f7
 8006880:	080068f7 	.word	0x080068f7
 8006884:	080068f7 	.word	0x080068f7
 8006888:	080068f7 	.word	0x080068f7
 800688c:	080068a5 	.word	0x080068a5
 8006890:	080068b9 	.word	0x080068b9
 8006894:	4a79      	ldr	r2, [pc, #484]	@ (8006a7c <HAL_GPIO_Init+0x2b4>)
 8006896:	4293      	cmp	r3, r2
 8006898:	d013      	beq.n	80068c2 <HAL_GPIO_Init+0xfa>
 800689a:	e02c      	b.n	80068f6 <HAL_GPIO_Init+0x12e>
 800689c:	683b      	ldr	r3, [r7, #0]
 800689e:	68db      	ldr	r3, [r3, #12]
 80068a0:	623b      	str	r3, [r7, #32]
 80068a2:	e029      	b.n	80068f8 <HAL_GPIO_Init+0x130>
 80068a4:	683b      	ldr	r3, [r7, #0]
 80068a6:	68db      	ldr	r3, [r3, #12]
 80068a8:	3304      	adds	r3, #4
 80068aa:	623b      	str	r3, [r7, #32]
 80068ac:	e024      	b.n	80068f8 <HAL_GPIO_Init+0x130>
 80068ae:	683b      	ldr	r3, [r7, #0]
 80068b0:	68db      	ldr	r3, [r3, #12]
 80068b2:	3308      	adds	r3, #8
 80068b4:	623b      	str	r3, [r7, #32]
 80068b6:	e01f      	b.n	80068f8 <HAL_GPIO_Init+0x130>
 80068b8:	683b      	ldr	r3, [r7, #0]
 80068ba:	68db      	ldr	r3, [r3, #12]
 80068bc:	330c      	adds	r3, #12
 80068be:	623b      	str	r3, [r7, #32]
 80068c0:	e01a      	b.n	80068f8 <HAL_GPIO_Init+0x130>
 80068c2:	683b      	ldr	r3, [r7, #0]
 80068c4:	689b      	ldr	r3, [r3, #8]
 80068c6:	2b00      	cmp	r3, #0
 80068c8:	d102      	bne.n	80068d0 <HAL_GPIO_Init+0x108>
 80068ca:	2304      	movs	r3, #4
 80068cc:	623b      	str	r3, [r7, #32]
 80068ce:	e013      	b.n	80068f8 <HAL_GPIO_Init+0x130>
 80068d0:	683b      	ldr	r3, [r7, #0]
 80068d2:	689b      	ldr	r3, [r3, #8]
 80068d4:	2b01      	cmp	r3, #1
 80068d6:	d105      	bne.n	80068e4 <HAL_GPIO_Init+0x11c>
 80068d8:	2308      	movs	r3, #8
 80068da:	623b      	str	r3, [r7, #32]
 80068dc:	687b      	ldr	r3, [r7, #4]
 80068de:	69fa      	ldr	r2, [r7, #28]
 80068e0:	611a      	str	r2, [r3, #16]
 80068e2:	e009      	b.n	80068f8 <HAL_GPIO_Init+0x130>
 80068e4:	2308      	movs	r3, #8
 80068e6:	623b      	str	r3, [r7, #32]
 80068e8:	687b      	ldr	r3, [r7, #4]
 80068ea:	69fa      	ldr	r2, [r7, #28]
 80068ec:	615a      	str	r2, [r3, #20]
 80068ee:	e003      	b.n	80068f8 <HAL_GPIO_Init+0x130>
 80068f0:	2300      	movs	r3, #0
 80068f2:	623b      	str	r3, [r7, #32]
 80068f4:	e000      	b.n	80068f8 <HAL_GPIO_Init+0x130>
 80068f6:	bf00      	nop
 80068f8:	69bb      	ldr	r3, [r7, #24]
 80068fa:	2bff      	cmp	r3, #255	@ 0xff
 80068fc:	d801      	bhi.n	8006902 <HAL_GPIO_Init+0x13a>
 80068fe:	687b      	ldr	r3, [r7, #4]
 8006900:	e001      	b.n	8006906 <HAL_GPIO_Init+0x13e>
 8006902:	687b      	ldr	r3, [r7, #4]
 8006904:	3304      	adds	r3, #4
 8006906:	617b      	str	r3, [r7, #20]
 8006908:	69bb      	ldr	r3, [r7, #24]
 800690a:	2bff      	cmp	r3, #255	@ 0xff
 800690c:	d802      	bhi.n	8006914 <HAL_GPIO_Init+0x14c>
 800690e:	6a7b      	ldr	r3, [r7, #36]	@ 0x24
 8006910:	009b      	lsls	r3, r3, #2
 8006912:	e002      	b.n	800691a <HAL_GPIO_Init+0x152>
 8006914:	6a7b      	ldr	r3, [r7, #36]	@ 0x24
 8006916:	3b08      	subs	r3, #8
 8006918:	009b      	lsls	r3, r3, #2
 800691a:	613b      	str	r3, [r7, #16]
 800691c:	697b      	ldr	r3, [r7, #20]
 800691e:	681a      	ldr	r2, [r3, #0]
 8006920:	210f      	movs	r1, #15
 8006922:	693b      	ldr	r3, [r7, #16]
 8006924:	fa01 f303 	lsl.w	r3, r1, r3
 8006928:	43db      	mvns	r3, r3
 800692a:	401a      	ands	r2, r3
 800692c:	6a39      	ldr	r1, [r7, #32]
 800692e:	693b      	ldr	r3, [r7, #16]
 8006930:	fa01 f303 	lsl.w	r3, r1, r3
 8006934:	431a      	orrs	r2, r3
 8006936:	697b      	ldr	r3, [r7, #20]
 8006938:	601a      	str	r2, [r3, #0]
 800693a:	683b      	ldr	r3, [r7, #0]
 800693c:	685b      	ldr	r3, [r3, #4]
 800693e:	f003 5380 	and.w	r3, r3, #268435456	@ 0x10000000
 8006942:	2b00      	cmp	r3, #0
 8006944:	f000 80b1 	beq.w	8006aaa <HAL_GPIO_Init+0x2e2>
 8006948:	4b4d      	ldr	r3, [pc, #308]	@ (8006a80 <HAL_GPIO_Init+0x2b8>)
 800694a:	699b      	ldr	r3, [r3, #24]
 800694c:	4a4c      	ldr	r2, [pc, #304]	@ (8006a80 <HAL_GPIO_Init+0x2b8>)
 800694e:	f043 0301 	orr.w	r3, r3, #1
 8006952:	6193      	str	r3, [r2, #24]
 8006954:	4b4a      	ldr	r3, [pc, #296]	@ (8006a80 <HAL_GPIO_Init+0x2b8>)
 8006956:	699b      	ldr	r3, [r3, #24]
 8006958:	f003 0301 	and.w	r3, r3, #1
 800695c:	60bb      	str	r3, [r7, #8]
 800695e:	68bb      	ldr	r3, [r7, #8]
 8006960:	4a48      	ldr	r2, [pc, #288]	@ (8006a84 <HAL_GPIO_Init+0x2bc>)
 8006962:	6a7b      	ldr	r3, [r7, #36]	@ 0x24
 8006964:	089b      	lsrs	r3, r3, #2
 8006966:	3302      	adds	r3, #2
 8006968:	f852 3023 	ldr.w	r3, [r2, r3, lsl #2]
 800696c:	60fb      	str	r3, [r7, #12]
 800696e:	6a7b      	ldr	r3, [r7, #36]	@ 0x24
 8006970:	f003 0303 	and.w	r3, r3, #3
 8006974:	009b      	lsls	r3, r3, #2
 8006976:	220f      	movs	r2, #15
 8006978:	fa02 f303 	lsl.w	r3, r2, r3
 800697c:	43db      	mvns	r3, r3
 800697e:	68fa      	ldr	r2, [r7, #12]
 8006980:	4013      	ands	r3, r2
 8006982:	60fb      	str	r3, [r7, #12]
 8006984:	687b      	ldr	r3, [r7, #4]
 8006986:	4a40      	ldr	r2, [pc, #256]	@ (8006a88 <HAL_GPIO_Init+0x2c0>)
 8006988:	4293      	cmp	r3, r2
 800698a:	d013      	beq.n	80069b4 <HAL_GPIO_Init+0x1ec>
 800698c:	687b      	ldr	r3, [r7, #4]
 800698e:	4a3f      	ldr	r2, [pc, #252]	@ (8006a8c <HAL_GPIO_Init+0x2c4>)
 8006990:	4293      	cmp	r3, r2
 8006992:	d00d      	beq.n	80069b0 <HAL_GPIO_Init+0x1e8>
 8006994:	687b      	ldr	r3, [r7, #4]
 8006996:	4a3e      	ldr	r2, [pc, #248]	@ (8006a90 <HAL_GPIO_Init+0x2c8>)
 8006998:	4293      	cmp	r3, r2
 800699a:	d007      	beq.n	80069ac <HAL_GPIO_Init+0x1e4>
 800699c:	687b      	ldr	r3, [r7, #4]
 800699e:	4a3d      	ldr	r2, [pc, #244]	@ (8006a94 <HAL_GPIO_Init+0x2cc>)
 80069a0:	4293      	cmp	r3, r2
 80069a2:	d101      	bne.n	80069a8 <HAL_GPIO_Init+0x1e0>
 80069a4:	2303      	movs	r3, #3
 80069a6:	e006      	b.n	80069b6 <HAL_GPIO_Init+0x1ee>
 80069a8:	2304      	movs	r3, #4
 80069aa:	e004      	b.n	80069b6 <HAL_GPIO_Init+0x1ee>
 80069ac:	2302      	movs	r3, #2
 80069ae:	e002      	b.n	80069b6 <HAL_GPIO_Init+0x1ee>
 80069b0:	2301      	movs	r3, #1
 80069b2:	e000      	b.n	80069b6 <HAL_GPIO_Init+0x1ee>
 80069b4:	2300      	movs	r3, #0
 80069b6:	6a7a      	ldr	r2, [r7, #36]	@ 0x24
 80069b8:	f002 0203 	and.w	r2, r2, #3
 80069bc:	0092      	lsls	r2, r2, #2
 80069be:	4093      	lsls	r3, r2
 80069c0:	68fa      	ldr	r2, [r7, #12]
 80069c2:	4313      	orrs	r3, r2
 80069c4:	60fb      	str	r3, [r7, #12]
 80069c6:	492f      	ldr	r1, [pc, #188]	@ (8006a84 <HAL_GPIO_Init+0x2bc>)
 80069c8:	6a7b      	ldr	r3, [r7, #36]	@ 0x24
 80069ca:	089b      	lsrs	r3, r3, #2
 80069cc:	3302      	adds	r3, #2
 80069ce:	68fa      	ldr	r2, [r7, #12]
 80069d0:	f841 2023 	str.w	r2, [r1, r3, lsl #2]
 80069d4:	683b      	ldr	r3, [r7, #0]
 80069d6:	685b      	ldr	r3, [r3, #4]
 80069d8:	f403 1380 	and.w	r3, r3, #1048576	@ 0x100000
 80069dc:	2b00      	cmp	r3, #0
 80069de:	d006      	beq.n	80069ee <HAL_GPIO_Init+0x226>
 80069e0:	4b2d      	ldr	r3, [pc, #180]	@ (8006a98 <HAL_GPIO_Init+0x2d0>)
 80069e2:	689a      	ldr	r2, [r3, #8]
 80069e4:	492c      	ldr	r1, [pc, #176]	@ (8006a98 <HAL_GPIO_Init+0x2d0>)
 80069e6:	69bb      	ldr	r3, [r7, #24]
 80069e8:	4313      	orrs	r3, r2
 80069ea:	608b      	str	r3, [r1, #8]
 80069ec:	e006      	b.n	80069fc <HAL_GPIO_Init+0x234>
 80069ee:	4b2a      	ldr	r3, [pc, #168]	@ (8006a98 <HAL_GPIO_Init+0x2d0>)
 80069f0:	689a      	ldr	r2, [r3, #8]
 80069f2:	69bb      	ldr	r3, [r7, #24]
 80069f4:	43db      	mvns	r3, r3
 80069f6:	4928      	ldr	r1, [pc, #160]	@ (8006a98 <HAL_GPIO_Init+0x2d0>)
 80069f8:	4013      	ands	r3, r2
 80069fa:	608b      	str	r3, [r1, #8]
 80069fc:	683b      	ldr	r3, [r7, #0]
 80069fe:	685b      	ldr	r3, [r3, #4]
 8006a00:	f403 1300 	and.w	r3, r3, #2097152	@ 0x200000
 8006a04:	2b00      	cmp	r3, #0
 8006a06:	d006      	beq.n	8006a16 <HAL_GPIO_Init+0x24e>
 8006a08:	4b23      	ldr	r3, [pc, #140]	@ (8006a98 <HAL_GPIO_Init+0x2d0>)
 8006a0a:	68da      	ldr	r2, [r3, #12]
 8006a0c:	4922      	ldr	r1, [pc, #136]	@ (8006a98 <HAL_GPIO_Init+0x2d0>)
 8006a0e:	69bb      	ldr	r3, [r7, #24]
 8006a10:	4313      	orrs	r3, r2
 8006a12:	60cb      	str	r3, [r1, #12]
 8006a14:	e006      	b.n	8006a24 <HAL_GPIO_Init+0x25c>
 8006a16:	4b20      	ldr	r3, [pc, #128]	@ (8006a98 <HAL_GPIO_Init+0x2d0>)
 8006a18:	68da      	ldr	r2, [r3, #12]
 8006a1a:	69bb      	ldr	r3, [r7, #24]
 8006a1c:	43db      	mvns	r3, r3
 8006a1e:	491e      	ldr	r1, [pc, #120]	@ (8006a98 <HAL_GPIO_Init+0x2d0>)
 8006a20:	4013      	ands	r3, r2
 8006a22:	60cb      	str	r3, [r1, #12]
 8006a24:	683b      	ldr	r3, [r7, #0]
 8006a26:	685b      	ldr	r3, [r3, #4]
 8006a28:	f403 3300 	and.w	r3, r3, #131072	@ 0x20000
 8006a2c:	2b00      	cmp	r3, #0
 8006a2e:	d006      	beq.n	8006a3e <HAL_GPIO_Init+0x276>
 8006a30:	4b19      	ldr	r3, [pc, #100]	@ (8006a98 <HAL_GPIO_Init+0x2d0>)
 8006a32:	685a      	ldr	r2, [r3, #4]
 8006a34:	4918      	ldr	r1, [pc, #96]	@ (8006a98 <HAL_GPIO_Init+0x2d0>)
 8006a36:	69bb      	ldr	r3, [r7, #24]
 8006a38:	4313      	orrs	r3, r2
 8006a3a:	604b      	str	r3, [r1, #4]
 8006a3c:	e006      	b.n	8006a4c <HAL_GPIO_Init+0x284>
 8006a3e:	4b16      	ldr	r3, [pc, #88]	@ (8006a98 <HAL_GPIO_Init+0x2d0>)
 8006a40:	685a      	ldr	r2, [r3, #4]
 8006a42:	69bb      	ldr	r3, [r7, #24]
 8006a44:	43db      	mvns	r3, r3
 8006a46:	4914      	ldr	r1, [pc, #80]	@ (8006a98 <HAL_GPIO_Init+0x2d0>)
 8006a48:	4013      	ands	r3, r2
 8006a4a:	604b      	str	r3, [r1, #4]
 8006a4c:	683b      	ldr	r3, [r7, #0]
 8006a4e:	685b      	ldr	r3, [r3, #4]
 8006a50:	f403 3380 	and.w	r3, r3, #65536	@ 0x10000
 8006a54:	2b00      	cmp	r3, #0
 8006a56:	d021      	beq.n	8006a9c <HAL_GPIO_Init+0x2d4>
 8006a58:	4b0f      	ldr	r3, [pc, #60]	@ (8006a98 <HAL_GPIO_Init+0x2d0>)
 8006a5a:	681a      	ldr	r2, [r3, #0]
 8006a5c:	490e      	ldr	r1, [pc, #56]	@ (8006a98 <HAL_GPIO_Init+0x2d0>)
 8006a5e:	69bb      	ldr	r3, [r7, #24]
 8006a60:	4313      	orrs	r3, r2
 8006a62:	600b      	str	r3, [r1, #0]
 8006a64:	e021      	b.n	8006aaa <HAL_GPIO_Init+0x2e2>
 8006a66:	bf00      	nop
 8006a68:	10320000 	.word	0x10320000
 8006a6c:	10310000 	.word	0x10310000
 8006a70:	10220000 	.word	0x10220000
 8006a74:	10210000 	.word	0x10210000
 8006a78:	10120000 	.word	0x10120000
 8006a7c:	10110000 	.word	0x10110000
 8006a80:	40021000 	.word	0x40021000
 8006a84:	40010000 	.word	0x40010000
 8006a88:	40010800 	.word	0x40010800
 8006a8c:	40010c00 	.word	0x40010c00
 8006a90:	40011000 	.word	0x40011000
 8006a94:	40011400 	.word	0x40011400
 8006a98:	40010400 	.word	0x40010400
 8006a9c:	4b0b      	ldr	r3, [pc, #44]	@ (8006acc <HAL_GPIO_Init+0x304>)
 8006a9e:	681a      	ldr	r2, [r3, #0]
 8006aa0:	69bb      	ldr	r3, [r7, #24]
 8006aa2:	43db      	mvns	r3, r3
 8006aa4:	4909      	ldr	r1, [pc, #36]	@ (8006acc <HAL_GPIO_Init+0x304>)
 8006aa6:	4013      	ands	r3, r2
 8006aa8:	600b      	str	r3, [r1, #0]
 8006aaa:	6a7b      	ldr	r3, [r7, #36]	@ 0x24
 8006aac:	3301      	adds	r3, #1
 8006aae:	627b      	str	r3, [r7, #36]	@ 0x24
 8006ab0:	683b      	ldr	r3, [r7, #0]
 8006ab2:	681a      	ldr	r2, [r3, #0]
 8006ab4:	6a7b      	ldr	r3, [r7, #36]	@ 0x24
 8006ab6:	fa22 f303 	lsr.w	r3, r2, r3
 8006aba:	2b00      	cmp	r3, #0
 8006abc:	f47f ae8e 	bne.w	80067dc <HAL_GPIO_Init+0x14>
 8006ac0:	bf00      	nop
 8006ac2:	bf00      	nop
 8006ac4:	372c      	adds	r7, #44	@ 0x2c
 8006ac6:	46bd      	mov	sp, r7
 8006ac8:	bc80      	pop	{r7}
 8006aca:	4770      	bx	lr
 8006acc:	40010400 	.word	0x40010400

08006ad0 <HAL_GPIO_ReadPin>:
 8006ad0:	b480      	push	{r7}
 8006ad2:	b085      	sub	sp, #20
 8006ad4:	af00      	add	r7, sp, #0
 8006ad6:	6078      	str	r0, [r7, #4]
 8006ad8:	460b      	mov	r3, r1
 8006ada:	807b      	strh	r3, [r7, #2]
 8006adc:	687b      	ldr	r3, [r7, #4]
 8006ade:	689a      	ldr	r2, [r3, #8]
 8006ae0:	887b      	ldrh	r3, [r7, #2]
 8006ae2:	4013      	ands	r3, r2
 8006ae4:	2b00      	cmp	r3, #0
 8006ae6:	d002      	beq.n	8006aee <HAL_GPIO_ReadPin+0x1e>
 8006ae8:	2301      	movs	r3, #1
 8006aea:	73fb      	strb	r3, [r7, #15]
 8006aec:	e001      	b.n	8006af2 <HAL_GPIO_ReadPin+0x22>
 8006aee:	2300      	movs	r3, #0
 8006af0:	73fb      	strb	r3, [r7, #15]
 8006af2:	7bfb      	ldrb	r3, [r7, #15]
 8006af4:	4618      	mov	r0, r3
 8006af6:	3714      	adds	r7, #20
 8006af8:	46bd      	mov	sp, r7
 8006afa:	bc80      	pop	{r7}
 8006afc:	4770      	bx	lr

08006afe <HAL_GPIO_WritePin>:
 8006afe:	b480      	push	{r7}
 8006b00:	b083      	sub	sp, #12
 8006b02:	af00      	add	r7, sp, #0
 8006b04:	6078      	str	r0, [r7, #4]
 8006b06:	460b      	mov	r3, r1
 8006b08:	807b      	strh	r3, [r7, #2]
 8006b0a:	4613      	mov	r3, r2
 8006b0c:	707b      	strb	r3, [r7, #1]
 8006b0e:	787b      	ldrb	r3, [r7, #1]
 8006b10:	2b00      	cmp	r3, #0
 8006b12:	d003      	beq.n	8006b1c <HAL_GPIO_WritePin+0x1e>
 8006b14:	887a      	ldrh	r2, [r7, #2]
 8006b16:	687b      	ldr	r3, [r7, #4]
 8006b18:	611a      	str	r2, [r3, #16]
 8006b1a:	e003      	b.n	8006b24 <HAL_GPIO_WritePin+0x26>
 8006b1c:	887b      	ldrh	r3, [r7, #2]
 8006b1e:	041a      	lsls	r2, r3, #16
 8006b20:	687b      	ldr	r3, [r7, #4]
 8006b22:	611a      	str	r2, [r3, #16]
 8006b24:	bf00      	nop
 8006b26:	370c      	adds	r7, #12
 8006b28:	46bd      	mov	sp, r7
 8006b2a:	bc80      	pop	{r7}
 8006b2c:	4770      	bx	lr

08006b2e <HAL_GPIO_TogglePin>:
 8006b2e:	b480      	push	{r7}
 8006b30:	b085      	sub	sp, #20
 8006b32:	af00      	add	r7, sp, #0
 8006b34:	6078      	str	r0, [r7, #4]
 8006b36:	460b      	mov	r3, r1
 8006b38:	807b      	strh	r3, [r7, #2]
 8006b3a:	687b      	ldr	r3, [r7, #4]
 8006b3c:	68db      	ldr	r3, [r3, #12]
 8006b3e:	60fb      	str	r3, [r7, #12]
 8006b40:	887a      	ldrh	r2, [r7, #2]
 8006b42:	68fb      	ldr	r3, [r7, #12]
 8006b44:	4013      	ands	r3, r2
 8006b46:	041a      	lsls	r2, r3, #16
 8006b48:	68fb      	ldr	r3, [r7, #12]
 8006b4a:	43d9      	mvns	r1, r3
 8006b4c:	887b      	ldrh	r3, [r7, #2]
 8006b4e:	400b      	ands	r3, r1
 8006b50:	431a      	orrs	r2, r3
 8006b52:	687b      	ldr	r3, [r7, #4]
 8006b54:	611a      	str	r2, [r3, #16]
 8006b56:	bf00      	nop
 8006b58:	3714      	adds	r7, #20
 8006b5a:	46bd      	mov	sp, r7
 8006b5c:	bc80      	pop	{r7}
 8006b5e:	4770      	bx	lr

08006b60 <HAL_GPIO_EXTI_IRQHandler>:
 8006b60:	b580      	push	{r7, lr}
 8006b62:	b082      	sub	sp, #8
 8006b64:	af00      	add	r7, sp, #0
 8006b66:	4603      	mov	r3, r0
 8006b68:	80fb      	strh	r3, [r7, #6]
 8006b6a:	4b08      	ldr	r3, [pc, #32]	@ (8006b8c <HAL_GPIO_EXTI_IRQHandler+0x2c>)
 8006b6c:	695a      	ldr	r2, [r3, #20]
 8006b6e:	88fb      	ldrh	r3, [r7, #6]
 8006b70:	4013      	ands	r3, r2
 8006b72:	2b00      	cmp	r3, #0
 8006b74:	d006      	beq.n	8006b84 <HAL_GPIO_EXTI_IRQHandler+0x24>
 8006b76:	4a05      	ldr	r2, [pc, #20]	@ (8006b8c <HAL_GPIO_EXTI_IRQHandler+0x2c>)
 8006b78:	88fb      	ldrh	r3, [r7, #6]
 8006b7a:	6153      	str	r3, [r2, #20]
 8006b7c:	88fb      	ldrh	r3, [r7, #6]
 8006b7e:	4618      	mov	r0, r3
 8006b80:	f7fb f9da 	bl	8001f38 <HAL_GPIO_EXTI_Callback>
 8006b84:	bf00      	nop
 8006b86:	3708      	adds	r7, #8
 8006b88:	46bd      	mov	sp, r7
 8006b8a:	bd80      	pop	{r7, pc}
 8006b8c:	40010400 	.word	0x40010400

08006b90 <HAL_IWDG_Init>:
 8006b90:	b580      	push	{r7, lr}
 8006b92:	b084      	sub	sp, #16
 8006b94:	af00      	add	r7, sp, #0
 8006b96:	6078      	str	r0, [r7, #4]
 8006b98:	687b      	ldr	r3, [r7, #4]
 8006b9a:	2b00      	cmp	r3, #0
 8006b9c:	d101      	bne.n	8006ba2 <HAL_IWDG_Init+0x12>
 8006b9e:	2301      	movs	r3, #1
 8006ba0:	e036      	b.n	8006c10 <HAL_IWDG_Init+0x80>
 8006ba2:	687b      	ldr	r3, [r7, #4]
 8006ba4:	681b      	ldr	r3, [r3, #0]
 8006ba6:	f64c 42cc 	movw	r2, #52428	@ 0xcccc
 8006baa:	601a      	str	r2, [r3, #0]
 8006bac:	687b      	ldr	r3, [r7, #4]
 8006bae:	681b      	ldr	r3, [r3, #0]
 8006bb0:	f245 5255 	movw	r2, #21845	@ 0x5555
 8006bb4:	601a      	str	r2, [r3, #0]
 8006bb6:	687b      	ldr	r3, [r7, #4]
 8006bb8:	681b      	ldr	r3, [r3, #0]
 8006bba:	687a      	ldr	r2, [r7, #4]
 8006bbc:	6852      	ldr	r2, [r2, #4]
 8006bbe:	605a      	str	r2, [r3, #4]
 8006bc0:	687b      	ldr	r3, [r7, #4]
 8006bc2:	681b      	ldr	r3, [r3, #0]
 8006bc4:	687a      	ldr	r2, [r7, #4]
 8006bc6:	6892      	ldr	r2, [r2, #8]
 8006bc8:	609a      	str	r2, [r3, #8]
 8006bca:	f7fe f92f 	bl	8004e2c <HAL_GetTick>
 8006bce:	60f8      	str	r0, [r7, #12]
 8006bd0:	e011      	b.n	8006bf6 <HAL_IWDG_Init+0x66>
 8006bd2:	f7fe f92b 	bl	8004e2c <HAL_GetTick>
 8006bd6:	4602      	mov	r2, r0
 8006bd8:	68fb      	ldr	r3, [r7, #12]
 8006bda:	1ad3      	subs	r3, r2, r3
 8006bdc:	f241 323c 	movw	r2, #4924	@ 0x133c
 8006be0:	4293      	cmp	r3, r2
 8006be2:	d908      	bls.n	8006bf6 <HAL_IWDG_Init+0x66>
 8006be4:	687b      	ldr	r3, [r7, #4]
 8006be6:	681b      	ldr	r3, [r3, #0]
 8006be8:	68db      	ldr	r3, [r3, #12]
 8006bea:	f003 0303 	and.w	r3, r3, #3
 8006bee:	2b00      	cmp	r3, #0
 8006bf0:	d001      	beq.n	8006bf6 <HAL_IWDG_Init+0x66>
 8006bf2:	2303      	movs	r3, #3
 8006bf4:	e00c      	b.n	8006c10 <HAL_IWDG_Init+0x80>
 8006bf6:	687b      	ldr	r3, [r7, #4]
 8006bf8:	681b      	ldr	r3, [r3, #0]
 8006bfa:	68db      	ldr	r3, [r3, #12]
 8006bfc:	f003 0303 	and.w	r3, r3, #3
 8006c00:	2b00      	cmp	r3, #0
 8006c02:	d1e6      	bne.n	8006bd2 <HAL_IWDG_Init+0x42>
 8006c04:	687b      	ldr	r3, [r7, #4]
 8006c06:	681b      	ldr	r3, [r3, #0]
 8006c08:	f64a 22aa 	movw	r2, #43690	@ 0xaaaa
 8006c0c:	601a      	str	r2, [r3, #0]
 8006c0e:	2300      	movs	r3, #0
 8006c10:	4618      	mov	r0, r3
 8006c12:	3710      	adds	r7, #16
 8006c14:	46bd      	mov	sp, r7
 8006c16:	bd80      	pop	{r7, pc}

08006c18 <HAL_IWDG_Refresh>:
 8006c18:	b480      	push	{r7}
 8006c1a:	b083      	sub	sp, #12
 8006c1c:	af00      	add	r7, sp, #0
 8006c1e:	6078      	str	r0, [r7, #4]
 8006c20:	687b      	ldr	r3, [r7, #4]
 8006c22:	681b      	ldr	r3, [r3, #0]
 8006c24:	f64a 22aa 	movw	r2, #43690	@ 0xaaaa
 8006c28:	601a      	str	r2, [r3, #0]
 8006c2a:	2300      	movs	r3, #0
 8006c2c:	4618      	mov	r0, r3
 8006c2e:	370c      	adds	r7, #12
 8006c30:	46bd      	mov	sp, r7
 8006c32:	bc80      	pop	{r7}
 8006c34:	4770      	bx	lr
	...

08006c38 <HAL_RCC_OscConfig>:
 8006c38:	b580      	push	{r7, lr}
 8006c3a:	b086      	sub	sp, #24
 8006c3c:	af00      	add	r7, sp, #0
 8006c3e:	6078      	str	r0, [r7, #4]
 8006c40:	687b      	ldr	r3, [r7, #4]
 8006c42:	2b00      	cmp	r3, #0
 8006c44:	d101      	bne.n	8006c4a <HAL_RCC_OscConfig+0x12>
 8006c46:	2301      	movs	r3, #1
 8006c48:	e272      	b.n	8007130 <HAL_RCC_OscConfig+0x4f8>
 8006c4a:	687b      	ldr	r3, [r7, #4]
 8006c4c:	681b      	ldr	r3, [r3, #0]
 8006c4e:	f003 0301 	and.w	r3, r3, #1
 8006c52:	2b00      	cmp	r3, #0
 8006c54:	f000 8087 	beq.w	8006d66 <HAL_RCC_OscConfig+0x12e>
 8006c58:	4b92      	ldr	r3, [pc, #584]	@ (8006ea4 <HAL_RCC_OscConfig+0x26c>)
 8006c5a:	685b      	ldr	r3, [r3, #4]
 8006c5c:	f003 030c 	and.w	r3, r3, #12
 8006c60:	2b04      	cmp	r3, #4
 8006c62:	d00c      	beq.n	8006c7e <HAL_RCC_OscConfig+0x46>
 8006c64:	4b8f      	ldr	r3, [pc, #572]	@ (8006ea4 <HAL_RCC_OscConfig+0x26c>)
 8006c66:	685b      	ldr	r3, [r3, #4]
 8006c68:	f003 030c 	and.w	r3, r3, #12
 8006c6c:	2b08      	cmp	r3, #8
 8006c6e:	d112      	bne.n	8006c96 <HAL_RCC_OscConfig+0x5e>
 8006c70:	4b8c      	ldr	r3, [pc, #560]	@ (8006ea4 <HAL_RCC_OscConfig+0x26c>)
 8006c72:	685b      	ldr	r3, [r3, #4]
 8006c74:	f403 3380 	and.w	r3, r3, #65536	@ 0x10000
 8006c78:	f5b3 3f80 	cmp.w	r3, #65536	@ 0x10000
 8006c7c:	d10b      	bne.n	8006c96 <HAL_RCC_OscConfig+0x5e>
 8006c7e:	4b89      	ldr	r3, [pc, #548]	@ (8006ea4 <HAL_RCC_OscConfig+0x26c>)
 8006c80:	681b      	ldr	r3, [r3, #0]
 8006c82:	f403 3300 	and.w	r3, r3, #131072	@ 0x20000
 8006c86:	2b00      	cmp	r3, #0
 8006c88:	d06c      	beq.n	8006d64 <HAL_RCC_OscConfig+0x12c>
 8006c8a:	687b      	ldr	r3, [r7, #4]
 8006c8c:	685b      	ldr	r3, [r3, #4]
 8006c8e:	2b00      	cmp	r3, #0
 8006c90:	d168      	bne.n	8006d64 <HAL_RCC_OscConfig+0x12c>
 8006c92:	2301      	movs	r3, #1
 8006c94:	e24c      	b.n	8007130 <HAL_RCC_OscConfig+0x4f8>
 8006c96:	687b      	ldr	r3, [r7, #4]
 8006c98:	685b      	ldr	r3, [r3, #4]
 8006c9a:	f5b3 3f80 	cmp.w	r3, #65536	@ 0x10000
 8006c9e:	d106      	bne.n	8006cae <HAL_RCC_OscConfig+0x76>
 8006ca0:	4b80      	ldr	r3, [pc, #512]	@ (8006ea4 <HAL_RCC_OscConfig+0x26c>)
 8006ca2:	681b      	ldr	r3, [r3, #0]
 8006ca4:	4a7f      	ldr	r2, [pc, #508]	@ (8006ea4 <HAL_RCC_OscConfig+0x26c>)
 8006ca6:	f443 3380 	orr.w	r3, r3, #65536	@ 0x10000
 8006caa:	6013      	str	r3, [r2, #0]
 8006cac:	e02e      	b.n	8006d0c <HAL_RCC_OscConfig+0xd4>
 8006cae:	687b      	ldr	r3, [r7, #4]
 8006cb0:	685b      	ldr	r3, [r3, #4]
 8006cb2:	2b00      	cmp	r3, #0
 8006cb4:	d10c      	bne.n	8006cd0 <HAL_RCC_OscConfig+0x98>
 8006cb6:	4b7b      	ldr	r3, [pc, #492]	@ (8006ea4 <HAL_RCC_OscConfig+0x26c>)
 8006cb8:	681b      	ldr	r3, [r3, #0]
 8006cba:	4a7a      	ldr	r2, [pc, #488]	@ (8006ea4 <HAL_RCC_OscConfig+0x26c>)
 8006cbc:	f423 3380 	bic.w	r3, r3, #65536	@ 0x10000
 8006cc0:	6013      	str	r3, [r2, #0]
 8006cc2:	4b78      	ldr	r3, [pc, #480]	@ (8006ea4 <HAL_RCC_OscConfig+0x26c>)
 8006cc4:	681b      	ldr	r3, [r3, #0]
 8006cc6:	4a77      	ldr	r2, [pc, #476]	@ (8006ea4 <HAL_RCC_OscConfig+0x26c>)
 8006cc8:	f423 2380 	bic.w	r3, r3, #262144	@ 0x40000
 8006ccc:	6013      	str	r3, [r2, #0]
 8006cce:	e01d      	b.n	8006d0c <HAL_RCC_OscConfig+0xd4>
 8006cd0:	687b      	ldr	r3, [r7, #4]
 8006cd2:	685b      	ldr	r3, [r3, #4]
 8006cd4:	f5b3 2fa0 	cmp.w	r3, #327680	@ 0x50000
 8006cd8:	d10c      	bne.n	8006cf4 <HAL_RCC_OscConfig+0xbc>
 8006cda:	4b72      	ldr	r3, [pc, #456]	@ (8006ea4 <HAL_RCC_OscConfig+0x26c>)
 8006cdc:	681b      	ldr	r3, [r3, #0]
 8006cde:	4a71      	ldr	r2, [pc, #452]	@ (8006ea4 <HAL_RCC_OscConfig+0x26c>)
 8006ce0:	f443 2380 	orr.w	r3, r3, #262144	@ 0x40000
 8006ce4:	6013      	str	r3, [r2, #0]
 8006ce6:	4b6f      	ldr	r3, [pc, #444]	@ (8006ea4 <HAL_RCC_OscConfig+0x26c>)
 8006ce8:	681b      	ldr	r3, [r3, #0]
 8006cea:	4a6e      	ldr	r2, [pc, #440]	@ (8006ea4 <HAL_RCC_OscConfig+0x26c>)
 8006cec:	f443 3380 	orr.w	r3, r3, #65536	@ 0x10000
 8006cf0:	6013      	str	r3, [r2, #0]
 8006cf2:	e00b      	b.n	8006d0c <HAL_RCC_OscConfig+0xd4>
 8006cf4:	4b6b      	ldr	r3, [pc, #428]	@ (8006ea4 <HAL_RCC_OscConfig+0x26c>)
 8006cf6:	681b      	ldr	r3, [r3, #0]
 8006cf8:	4a6a      	ldr	r2, [pc, #424]	@ (8006ea4 <HAL_RCC_OscConfig+0x26c>)
 8006cfa:	f423 3380 	bic.w	r3, r3, #65536	@ 0x10000
 8006cfe:	6013      	str	r3, [r2, #0]
 8006d00:	4b68      	ldr	r3, [pc, #416]	@ (8006ea4 <HAL_RCC_OscConfig+0x26c>)
 8006d02:	681b      	ldr	r3, [r3, #0]
 8006d04:	4a67      	ldr	r2, [pc, #412]	@ (8006ea4 <HAL_RCC_OscConfig+0x26c>)
 8006d06:	f423 2380 	bic.w	r3, r3, #262144	@ 0x40000
 8006d0a:	6013      	str	r3, [r2, #0]
 8006d0c:	687b      	ldr	r3, [r7, #4]
 8006d0e:	685b      	ldr	r3, [r3, #4]
 8006d10:	2b00      	cmp	r3, #0
 8006d12:	d013      	beq.n	8006d3c <HAL_RCC_OscConfig+0x104>
 8006d14:	f7fe f88a 	bl	8004e2c <HAL_GetTick>
 8006d18:	6138      	str	r0, [r7, #16]
 8006d1a:	e008      	b.n	8006d2e <HAL_RCC_OscConfig+0xf6>
 8006d1c:	f7fe f886 	bl	8004e2c <HAL_GetTick>
 8006d20:	4602      	mov	r2, r0
 8006d22:	693b      	ldr	r3, [r7, #16]
 8006d24:	1ad3      	subs	r3, r2, r3
 8006d26:	2b64      	cmp	r3, #100	@ 0x64
 8006d28:	d901      	bls.n	8006d2e <HAL_RCC_OscConfig+0xf6>
 8006d2a:	2303      	movs	r3, #3
 8006d2c:	e200      	b.n	8007130 <HAL_RCC_OscConfig+0x4f8>
 8006d2e:	4b5d      	ldr	r3, [pc, #372]	@ (8006ea4 <HAL_RCC_OscConfig+0x26c>)
 8006d30:	681b      	ldr	r3, [r3, #0]
 8006d32:	f403 3300 	and.w	r3, r3, #131072	@ 0x20000
 8006d36:	2b00      	cmp	r3, #0
 8006d38:	d0f0      	beq.n	8006d1c <HAL_RCC_OscConfig+0xe4>
 8006d3a:	e014      	b.n	8006d66 <HAL_RCC_OscConfig+0x12e>
 8006d3c:	f7fe f876 	bl	8004e2c <HAL_GetTick>
 8006d40:	6138      	str	r0, [r7, #16]
 8006d42:	e008      	b.n	8006d56 <HAL_RCC_OscConfig+0x11e>
 8006d44:	f7fe f872 	bl	8004e2c <HAL_GetTick>
 8006d48:	4602      	mov	r2, r0
 8006d4a:	693b      	ldr	r3, [r7, #16]
 8006d4c:	1ad3      	subs	r3, r2, r3
 8006d4e:	2b64      	cmp	r3, #100	@ 0x64
 8006d50:	d901      	bls.n	8006d56 <HAL_RCC_OscConfig+0x11e>
 8006d52:	2303      	movs	r3, #3
 8006d54:	e1ec      	b.n	8007130 <HAL_RCC_OscConfig+0x4f8>
 8006d56:	4b53      	ldr	r3, [pc, #332]	@ (8006ea4 <HAL_RCC_OscConfig+0x26c>)
 8006d58:	681b      	ldr	r3, [r3, #0]
 8006d5a:	f403 3300 	and.w	r3, r3, #131072	@ 0x20000
 8006d5e:	2b00      	cmp	r3, #0
 8006d60:	d1f0      	bne.n	8006d44 <HAL_RCC_OscConfig+0x10c>
 8006d62:	e000      	b.n	8006d66 <HAL_RCC_OscConfig+0x12e>
 8006d64:	bf00      	nop
 8006d66:	687b      	ldr	r3, [r7, #4]
 8006d68:	681b      	ldr	r3, [r3, #0]
 8006d6a:	f003 0302 	and.w	r3, r3, #2
 8006d6e:	2b00      	cmp	r3, #0
 8006d70:	d063      	beq.n	8006e3a <HAL_RCC_OscConfig+0x202>
 8006d72:	4b4c      	ldr	r3, [pc, #304]	@ (8006ea4 <HAL_RCC_OscConfig+0x26c>)
 8006d74:	685b      	ldr	r3, [r3, #4]
 8006d76:	f003 030c 	and.w	r3, r3, #12
 8006d7a:	2b00      	cmp	r3, #0
 8006d7c:	d00b      	beq.n	8006d96 <HAL_RCC_OscConfig+0x15e>
 8006d7e:	4b49      	ldr	r3, [pc, #292]	@ (8006ea4 <HAL_RCC_OscConfig+0x26c>)
 8006d80:	685b      	ldr	r3, [r3, #4]
 8006d82:	f003 030c 	and.w	r3, r3, #12
 8006d86:	2b08      	cmp	r3, #8
 8006d88:	d11c      	bne.n	8006dc4 <HAL_RCC_OscConfig+0x18c>
 8006d8a:	4b46      	ldr	r3, [pc, #280]	@ (8006ea4 <HAL_RCC_OscConfig+0x26c>)
 8006d8c:	685b      	ldr	r3, [r3, #4]
 8006d8e:	f403 3380 	and.w	r3, r3, #65536	@ 0x10000
 8006d92:	2b00      	cmp	r3, #0
 8006d94:	d116      	bne.n	8006dc4 <HAL_RCC_OscConfig+0x18c>
 8006d96:	4b43      	ldr	r3, [pc, #268]	@ (8006ea4 <HAL_RCC_OscConfig+0x26c>)
 8006d98:	681b      	ldr	r3, [r3, #0]
 8006d9a:	f003 0302 	and.w	r3, r3, #2
 8006d9e:	2b00      	cmp	r3, #0
 8006da0:	d005      	beq.n	8006dae <HAL_RCC_OscConfig+0x176>
 8006da2:	687b      	ldr	r3, [r7, #4]
 8006da4:	691b      	ldr	r3, [r3, #16]
 8006da6:	2b01      	cmp	r3, #1
 8006da8:	d001      	beq.n	8006dae <HAL_RCC_OscConfig+0x176>
 8006daa:	2301      	movs	r3, #1
 8006dac:	e1c0      	b.n	8007130 <HAL_RCC_OscConfig+0x4f8>
 8006dae:	4b3d      	ldr	r3, [pc, #244]	@ (8006ea4 <HAL_RCC_OscConfig+0x26c>)
 8006db0:	681b      	ldr	r3, [r3, #0]
 8006db2:	f023 02f8 	bic.w	r2, r3, #248	@ 0xf8
 8006db6:	687b      	ldr	r3, [r7, #4]
 8006db8:	695b      	ldr	r3, [r3, #20]
 8006dba:	00db      	lsls	r3, r3, #3
 8006dbc:	4939      	ldr	r1, [pc, #228]	@ (8006ea4 <HAL_RCC_OscConfig+0x26c>)
 8006dbe:	4313      	orrs	r3, r2
 8006dc0:	600b      	str	r3, [r1, #0]
 8006dc2:	e03a      	b.n	8006e3a <HAL_RCC_OscConfig+0x202>
 8006dc4:	687b      	ldr	r3, [r7, #4]
 8006dc6:	691b      	ldr	r3, [r3, #16]
 8006dc8:	2b00      	cmp	r3, #0
 8006dca:	d020      	beq.n	8006e0e <HAL_RCC_OscConfig+0x1d6>
 8006dcc:	4b36      	ldr	r3, [pc, #216]	@ (8006ea8 <HAL_RCC_OscConfig+0x270>)
 8006dce:	2201      	movs	r2, #1
 8006dd0:	601a      	str	r2, [r3, #0]
 8006dd2:	f7fe f82b 	bl	8004e2c <HAL_GetTick>
 8006dd6:	6138      	str	r0, [r7, #16]
 8006dd8:	e008      	b.n	8006dec <HAL_RCC_OscConfig+0x1b4>
 8006dda:	f7fe f827 	bl	8004e2c <HAL_GetTick>
 8006dde:	4602      	mov	r2, r0
 8006de0:	693b      	ldr	r3, [r7, #16]
 8006de2:	1ad3      	subs	r3, r2, r3
 8006de4:	2b02      	cmp	r3, #2
 8006de6:	d901      	bls.n	8006dec <HAL_RCC_OscConfig+0x1b4>
 8006de8:	2303      	movs	r3, #3
 8006dea:	e1a1      	b.n	8007130 <HAL_RCC_OscConfig+0x4f8>
 8006dec:	4b2d      	ldr	r3, [pc, #180]	@ (8006ea4 <HAL_RCC_OscConfig+0x26c>)
 8006dee:	681b      	ldr	r3, [r3, #0]
 8006df0:	f003 0302 	and.w	r3, r3, #2
 8006df4:	2b00      	cmp	r3, #0
 8006df6:	d0f0      	beq.n	8006dda <HAL_RCC_OscConfig+0x1a2>
 8006df8:	4b2a      	ldr	r3, [pc, #168]	@ (8006ea4 <HAL_RCC_OscConfig+0x26c>)
 8006dfa:	681b      	ldr	r3, [r3, #0]
 8006dfc:	f023 02f8 	bic.w	r2, r3, #248	@ 0xf8
 8006e00:	687b      	ldr	r3, [r7, #4]
 8006e02:	695b      	ldr	r3, [r3, #20]
 8006e04:	00db      	lsls	r3, r3, #3
 8006e06:	4927      	ldr	r1, [pc, #156]	@ (8006ea4 <HAL_RCC_OscConfig+0x26c>)
 8006e08:	4313      	orrs	r3, r2
 8006e0a:	600b      	str	r3, [r1, #0]
 8006e0c:	e015      	b.n	8006e3a <HAL_RCC_OscConfig+0x202>
 8006e0e:	4b26      	ldr	r3, [pc, #152]	@ (8006ea8 <HAL_RCC_OscConfig+0x270>)
 8006e10:	2200      	movs	r2, #0
 8006e12:	601a      	str	r2, [r3, #0]
 8006e14:	f7fe f80a 	bl	8004e2c <HAL_GetTick>
 8006e18:	6138      	str	r0, [r7, #16]
 8006e1a:	e008      	b.n	8006e2e <HAL_RCC_OscConfig+0x1f6>
 8006e1c:	f7fe f806 	bl	8004e2c <HAL_GetTick>
 8006e20:	4602      	mov	r2, r0
 8006e22:	693b      	ldr	r3, [r7, #16]
 8006e24:	1ad3      	subs	r3, r2, r3
 8006e26:	2b02      	cmp	r3, #2
 8006e28:	d901      	bls.n	8006e2e <HAL_RCC_OscConfig+0x1f6>
 8006e2a:	2303      	movs	r3, #3
 8006e2c:	e180      	b.n	8007130 <HAL_RCC_OscConfig+0x4f8>
 8006e2e:	4b1d      	ldr	r3, [pc, #116]	@ (8006ea4 <HAL_RCC_OscConfig+0x26c>)
 8006e30:	681b      	ldr	r3, [r3, #0]
 8006e32:	f003 0302 	and.w	r3, r3, #2
 8006e36:	2b00      	cmp	r3, #0
 8006e38:	d1f0      	bne.n	8006e1c <HAL_RCC_OscConfig+0x1e4>
 8006e3a:	687b      	ldr	r3, [r7, #4]
 8006e3c:	681b      	ldr	r3, [r3, #0]
 8006e3e:	f003 0308 	and.w	r3, r3, #8
 8006e42:	2b00      	cmp	r3, #0
 8006e44:	d03a      	beq.n	8006ebc <HAL_RCC_OscConfig+0x284>
 8006e46:	687b      	ldr	r3, [r7, #4]
 8006e48:	699b      	ldr	r3, [r3, #24]
 8006e4a:	2b00      	cmp	r3, #0
 8006e4c:	d019      	beq.n	8006e82 <HAL_RCC_OscConfig+0x24a>
 8006e4e:	4b17      	ldr	r3, [pc, #92]	@ (8006eac <HAL_RCC_OscConfig+0x274>)
 8006e50:	2201      	movs	r2, #1
 8006e52:	601a      	str	r2, [r3, #0]
 8006e54:	f7fd ffea 	bl	8004e2c <HAL_GetTick>
 8006e58:	6138      	str	r0, [r7, #16]
 8006e5a:	e008      	b.n	8006e6e <HAL_RCC_OscConfig+0x236>
 8006e5c:	f7fd ffe6 	bl	8004e2c <HAL_GetTick>
 8006e60:	4602      	mov	r2, r0
 8006e62:	693b      	ldr	r3, [r7, #16]
 8006e64:	1ad3      	subs	r3, r2, r3
 8006e66:	2b02      	cmp	r3, #2
 8006e68:	d901      	bls.n	8006e6e <HAL_RCC_OscConfig+0x236>
 8006e6a:	2303      	movs	r3, #3
 8006e6c:	e160      	b.n	8007130 <HAL_RCC_OscConfig+0x4f8>
 8006e6e:	4b0d      	ldr	r3, [pc, #52]	@ (8006ea4 <HAL_RCC_OscConfig+0x26c>)
 8006e70:	6a5b      	ldr	r3, [r3, #36]	@ 0x24
 8006e72:	f003 0302 	and.w	r3, r3, #2
 8006e76:	2b00      	cmp	r3, #0
 8006e78:	d0f0      	beq.n	8006e5c <HAL_RCC_OscConfig+0x224>
 8006e7a:	2001      	movs	r0, #1
 8006e7c:	f000 fad0 	bl	8007420 <RCC_Delay>
 8006e80:	e01c      	b.n	8006ebc <HAL_RCC_OscConfig+0x284>
 8006e82:	4b0a      	ldr	r3, [pc, #40]	@ (8006eac <HAL_RCC_OscConfig+0x274>)
 8006e84:	2200      	movs	r2, #0
 8006e86:	601a      	str	r2, [r3, #0]
 8006e88:	f7fd ffd0 	bl	8004e2c <HAL_GetTick>
 8006e8c:	6138      	str	r0, [r7, #16]
 8006e8e:	e00f      	b.n	8006eb0 <HAL_RCC_OscConfig+0x278>
 8006e90:	f7fd ffcc 	bl	8004e2c <HAL_GetTick>
 8006e94:	4602      	mov	r2, r0
 8006e96:	693b      	ldr	r3, [r7, #16]
 8006e98:	1ad3      	subs	r3, r2, r3
 8006e9a:	2b02      	cmp	r3, #2
 8006e9c:	d908      	bls.n	8006eb0 <HAL_RCC_OscConfig+0x278>
 8006e9e:	2303      	movs	r3, #3
 8006ea0:	e146      	b.n	8007130 <HAL_RCC_OscConfig+0x4f8>
 8006ea2:	bf00      	nop
 8006ea4:	40021000 	.word	0x40021000
 8006ea8:	42420000 	.word	0x42420000
 8006eac:	42420480 	.word	0x42420480
 8006eb0:	4b92      	ldr	r3, [pc, #584]	@ (80070fc <HAL_RCC_OscConfig+0x4c4>)
 8006eb2:	6a5b      	ldr	r3, [r3, #36]	@ 0x24
 8006eb4:	f003 0302 	and.w	r3, r3, #2
 8006eb8:	2b00      	cmp	r3, #0
 8006eba:	d1e9      	bne.n	8006e90 <HAL_RCC_OscConfig+0x258>
 8006ebc:	687b      	ldr	r3, [r7, #4]
 8006ebe:	681b      	ldr	r3, [r3, #0]
 8006ec0:	f003 0304 	and.w	r3, r3, #4
 8006ec4:	2b00      	cmp	r3, #0
 8006ec6:	f000 80a6 	beq.w	8007016 <HAL_RCC_OscConfig+0x3de>
 8006eca:	2300      	movs	r3, #0
 8006ecc:	75fb      	strb	r3, [r7, #23]
 8006ece:	4b8b      	ldr	r3, [pc, #556]	@ (80070fc <HAL_RCC_OscConfig+0x4c4>)
 8006ed0:	69db      	ldr	r3, [r3, #28]
 8006ed2:	f003 5380 	and.w	r3, r3, #268435456	@ 0x10000000
 8006ed6:	2b00      	cmp	r3, #0
 8006ed8:	d10d      	bne.n	8006ef6 <HAL_RCC_OscConfig+0x2be>
 8006eda:	4b88      	ldr	r3, [pc, #544]	@ (80070fc <HAL_RCC_OscConfig+0x4c4>)
 8006edc:	69db      	ldr	r3, [r3, #28]
 8006ede:	4a87      	ldr	r2, [pc, #540]	@ (80070fc <HAL_RCC_OscConfig+0x4c4>)
 8006ee0:	f043 5380 	orr.w	r3, r3, #268435456	@ 0x10000000
 8006ee4:	61d3      	str	r3, [r2, #28]
 8006ee6:	4b85      	ldr	r3, [pc, #532]	@ (80070fc <HAL_RCC_OscConfig+0x4c4>)
 8006ee8:	69db      	ldr	r3, [r3, #28]
 8006eea:	f003 5380 	and.w	r3, r3, #268435456	@ 0x10000000
 8006eee:	60bb      	str	r3, [r7, #8]
 8006ef0:	68bb      	ldr	r3, [r7, #8]
 8006ef2:	2301      	movs	r3, #1
 8006ef4:	75fb      	strb	r3, [r7, #23]
 8006ef6:	4b82      	ldr	r3, [pc, #520]	@ (8007100 <HAL_RCC_OscConfig+0x4c8>)
 8006ef8:	681b      	ldr	r3, [r3, #0]
 8006efa:	f403 7380 	and.w	r3, r3, #256	@ 0x100
 8006efe:	2b00      	cmp	r3, #0
 8006f00:	d118      	bne.n	8006f34 <HAL_RCC_OscConfig+0x2fc>
 8006f02:	4b7f      	ldr	r3, [pc, #508]	@ (8007100 <HAL_RCC_OscConfig+0x4c8>)
 8006f04:	681b      	ldr	r3, [r3, #0]
 8006f06:	4a7e      	ldr	r2, [pc, #504]	@ (8007100 <HAL_RCC_OscConfig+0x4c8>)
 8006f08:	f443 7380 	orr.w	r3, r3, #256	@ 0x100
 8006f0c:	6013      	str	r3, [r2, #0]
 8006f0e:	f7fd ff8d 	bl	8004e2c <HAL_GetTick>
 8006f12:	6138      	str	r0, [r7, #16]
 8006f14:	e008      	b.n	8006f28 <HAL_RCC_OscConfig+0x2f0>
 8006f16:	f7fd ff89 	bl	8004e2c <HAL_GetTick>
 8006f1a:	4602      	mov	r2, r0
 8006f1c:	693b      	ldr	r3, [r7, #16]
 8006f1e:	1ad3      	subs	r3, r2, r3
 8006f20:	2b64      	cmp	r3, #100	@ 0x64
 8006f22:	d901      	bls.n	8006f28 <HAL_RCC_OscConfig+0x2f0>
 8006f24:	2303      	movs	r3, #3
 8006f26:	e103      	b.n	8007130 <HAL_RCC_OscConfig+0x4f8>
 8006f28:	4b75      	ldr	r3, [pc, #468]	@ (8007100 <HAL_RCC_OscConfig+0x4c8>)
 8006f2a:	681b      	ldr	r3, [r3, #0]
 8006f2c:	f403 7380 	and.w	r3, r3, #256	@ 0x100
 8006f30:	2b00      	cmp	r3, #0
 8006f32:	d0f0      	beq.n	8006f16 <HAL_RCC_OscConfig+0x2de>
 8006f34:	687b      	ldr	r3, [r7, #4]
 8006f36:	68db      	ldr	r3, [r3, #12]
 8006f38:	2b01      	cmp	r3, #1
 8006f3a:	d106      	bne.n	8006f4a <HAL_RCC_OscConfig+0x312>
 8006f3c:	4b6f      	ldr	r3, [pc, #444]	@ (80070fc <HAL_RCC_OscConfig+0x4c4>)
 8006f3e:	6a1b      	ldr	r3, [r3, #32]
 8006f40:	4a6e      	ldr	r2, [pc, #440]	@ (80070fc <HAL_RCC_OscConfig+0x4c4>)
 8006f42:	f043 0301 	orr.w	r3, r3, #1
 8006f46:	6213      	str	r3, [r2, #32]
 8006f48:	e02d      	b.n	8006fa6 <HAL_RCC_OscConfig+0x36e>
 8006f4a:	687b      	ldr	r3, [r7, #4]
 8006f4c:	68db      	ldr	r3, [r3, #12]
 8006f4e:	2b00      	cmp	r3, #0
 8006f50:	d10c      	bne.n	8006f6c <HAL_RCC_OscConfig+0x334>
 8006f52:	4b6a      	ldr	r3, [pc, #424]	@ (80070fc <HAL_RCC_OscConfig+0x4c4>)
 8006f54:	6a1b      	ldr	r3, [r3, #32]
 8006f56:	4a69      	ldr	r2, [pc, #420]	@ (80070fc <HAL_RCC_OscConfig+0x4c4>)
 8006f58:	f023 0301 	bic.w	r3, r3, #1
 8006f5c:	6213      	str	r3, [r2, #32]
 8006f5e:	4b67      	ldr	r3, [pc, #412]	@ (80070fc <HAL_RCC_OscConfig+0x4c4>)
 8006f60:	6a1b      	ldr	r3, [r3, #32]
 8006f62:	4a66      	ldr	r2, [pc, #408]	@ (80070fc <HAL_RCC_OscConfig+0x4c4>)
 8006f64:	f023 0304 	bic.w	r3, r3, #4
 8006f68:	6213      	str	r3, [r2, #32]
 8006f6a:	e01c      	b.n	8006fa6 <HAL_RCC_OscConfig+0x36e>
 8006f6c:	687b      	ldr	r3, [r7, #4]
 8006f6e:	68db      	ldr	r3, [r3, #12]
 8006f70:	2b05      	cmp	r3, #5
 8006f72:	d10c      	bne.n	8006f8e <HAL_RCC_OscConfig+0x356>
 8006f74:	4b61      	ldr	r3, [pc, #388]	@ (80070fc <HAL_RCC_OscConfig+0x4c4>)
 8006f76:	6a1b      	ldr	r3, [r3, #32]
 8006f78:	4a60      	ldr	r2, [pc, #384]	@ (80070fc <HAL_RCC_OscConfig+0x4c4>)
 8006f7a:	f043 0304 	orr.w	r3, r3, #4
 8006f7e:	6213      	str	r3, [r2, #32]
 8006f80:	4b5e      	ldr	r3, [pc, #376]	@ (80070fc <HAL_RCC_OscConfig+0x4c4>)
 8006f82:	6a1b      	ldr	r3, [r3, #32]
 8006f84:	4a5d      	ldr	r2, [pc, #372]	@ (80070fc <HAL_RCC_OscConfig+0x4c4>)
 8006f86:	f043 0301 	orr.w	r3, r3, #1
 8006f8a:	6213      	str	r3, [r2, #32]
 8006f8c:	e00b      	b.n	8006fa6 <HAL_RCC_OscConfig+0x36e>
 8006f8e:	4b5b      	ldr	r3, [pc, #364]	@ (80070fc <HAL_RCC_OscConfig+0x4c4>)
 8006f90:	6a1b      	ldr	r3, [r3, #32]
 8006f92:	4a5a      	ldr	r2, [pc, #360]	@ (80070fc <HAL_RCC_OscConfig+0x4c4>)
 8006f94:	f023 0301 	bic.w	r3, r3, #1
 8006f98:	6213      	str	r3, [r2, #32]
 8006f9a:	4b58      	ldr	r3, [pc, #352]	@ (80070fc <HAL_RCC_OscConfig+0x4c4>)
 8006f9c:	6a1b      	ldr	r3, [r3, #32]
 8006f9e:	4a57      	ldr	r2, [pc, #348]	@ (80070fc <HAL_RCC_OscConfig+0x4c4>)
 8006fa0:	f023 0304 	bic.w	r3, r3, #4
 8006fa4:	6213      	str	r3, [r2, #32]
 8006fa6:	687b      	ldr	r3, [r7, #4]
 8006fa8:	68db      	ldr	r3, [r3, #12]
 8006faa:	2b00      	cmp	r3, #0
 8006fac:	d015      	beq.n	8006fda <HAL_RCC_OscConfig+0x3a2>
 8006fae:	f7fd ff3d 	bl	8004e2c <HAL_GetTick>
 8006fb2:	6138      	str	r0, [r7, #16]
 8006fb4:	e00a      	b.n	8006fcc <HAL_RCC_OscConfig+0x394>
 8006fb6:	f7fd ff39 	bl	8004e2c <HAL_GetTick>
 8006fba:	4602      	mov	r2, r0
 8006fbc:	693b      	ldr	r3, [r7, #16]
 8006fbe:	1ad3      	subs	r3, r2, r3
 8006fc0:	f241 3288 	movw	r2, #5000	@ 0x1388
 8006fc4:	4293      	cmp	r3, r2
 8006fc6:	d901      	bls.n	8006fcc <HAL_RCC_OscConfig+0x394>
 8006fc8:	2303      	movs	r3, #3
 8006fca:	e0b1      	b.n	8007130 <HAL_RCC_OscConfig+0x4f8>
 8006fcc:	4b4b      	ldr	r3, [pc, #300]	@ (80070fc <HAL_RCC_OscConfig+0x4c4>)
 8006fce:	6a1b      	ldr	r3, [r3, #32]
 8006fd0:	f003 0302 	and.w	r3, r3, #2
 8006fd4:	2b00      	cmp	r3, #0
 8006fd6:	d0ee      	beq.n	8006fb6 <HAL_RCC_OscConfig+0x37e>
 8006fd8:	e014      	b.n	8007004 <HAL_RCC_OscConfig+0x3cc>
 8006fda:	f7fd ff27 	bl	8004e2c <HAL_GetTick>
 8006fde:	6138      	str	r0, [r7, #16]
 8006fe0:	e00a      	b.n	8006ff8 <HAL_RCC_OscConfig+0x3c0>
 8006fe2:	f7fd ff23 	bl	8004e2c <HAL_GetTick>
 8006fe6:	4602      	mov	r2, r0
 8006fe8:	693b      	ldr	r3, [r7, #16]
 8006fea:	1ad3      	subs	r3, r2, r3
 8006fec:	f241 3288 	movw	r2, #5000	@ 0x1388
 8006ff0:	4293      	cmp	r3, r2
 8006ff2:	d901      	bls.n	8006ff8 <HAL_RCC_OscConfig+0x3c0>
 8006ff4:	2303      	movs	r3, #3
 8006ff6:	e09b      	b.n	8007130 <HAL_RCC_OscConfig+0x4f8>
 8006ff8:	4b40      	ldr	r3, [pc, #256]	@ (80070fc <HAL_RCC_OscConfig+0x4c4>)
 8006ffa:	6a1b      	ldr	r3, [r3, #32]
 8006ffc:	f003 0302 	and.w	r3, r3, #2
 8007000:	2b00      	cmp	r3, #0
 8007002:	d1ee      	bne.n	8006fe2 <HAL_RCC_OscConfig+0x3aa>
 8007004:	7dfb      	ldrb	r3, [r7, #23]
 8007006:	2b01      	cmp	r3, #1
 8007008:	d105      	bne.n	8007016 <HAL_RCC_OscConfig+0x3de>
 800700a:	4b3c      	ldr	r3, [pc, #240]	@ (80070fc <HAL_RCC_OscConfig+0x4c4>)
 800700c:	69db      	ldr	r3, [r3, #28]
 800700e:	4a3b      	ldr	r2, [pc, #236]	@ (80070fc <HAL_RCC_OscConfig+0x4c4>)
 8007010:	f023 5380 	bic.w	r3, r3, #268435456	@ 0x10000000
 8007014:	61d3      	str	r3, [r2, #28]
 8007016:	687b      	ldr	r3, [r7, #4]
 8007018:	69db      	ldr	r3, [r3, #28]
 800701a:	2b00      	cmp	r3, #0
 800701c:	f000 8087 	beq.w	800712e <HAL_RCC_OscConfig+0x4f6>
 8007020:	4b36      	ldr	r3, [pc, #216]	@ (80070fc <HAL_RCC_OscConfig+0x4c4>)
 8007022:	685b      	ldr	r3, [r3, #4]
 8007024:	f003 030c 	and.w	r3, r3, #12
 8007028:	2b08      	cmp	r3, #8
 800702a:	d061      	beq.n	80070f0 <HAL_RCC_OscConfig+0x4b8>
 800702c:	687b      	ldr	r3, [r7, #4]
 800702e:	69db      	ldr	r3, [r3, #28]
 8007030:	2b02      	cmp	r3, #2
 8007032:	d146      	bne.n	80070c2 <HAL_RCC_OscConfig+0x48a>
 8007034:	4b33      	ldr	r3, [pc, #204]	@ (8007104 <HAL_RCC_OscConfig+0x4cc>)
 8007036:	2200      	movs	r2, #0
 8007038:	601a      	str	r2, [r3, #0]
 800703a:	f7fd fef7 	bl	8004e2c <HAL_GetTick>
 800703e:	6138      	str	r0, [r7, #16]
 8007040:	e008      	b.n	8007054 <HAL_RCC_OscConfig+0x41c>
 8007042:	f7fd fef3 	bl	8004e2c <HAL_GetTick>
 8007046:	4602      	mov	r2, r0
 8007048:	693b      	ldr	r3, [r7, #16]
 800704a:	1ad3      	subs	r3, r2, r3
 800704c:	2b02      	cmp	r3, #2
 800704e:	d901      	bls.n	8007054 <HAL_RCC_OscConfig+0x41c>
 8007050:	2303      	movs	r3, #3
 8007052:	e06d      	b.n	8007130 <HAL_RCC_OscConfig+0x4f8>
 8007054:	4b29      	ldr	r3, [pc, #164]	@ (80070fc <HAL_RCC_OscConfig+0x4c4>)
 8007056:	681b      	ldr	r3, [r3, #0]
 8007058:	f003 7300 	and.w	r3, r3, #33554432	@ 0x2000000
 800705c:	2b00      	cmp	r3, #0
 800705e:	d1f0      	bne.n	8007042 <HAL_RCC_OscConfig+0x40a>
 8007060:	687b      	ldr	r3, [r7, #4]
 8007062:	6a1b      	ldr	r3, [r3, #32]
 8007064:	f5b3 3f80 	cmp.w	r3, #65536	@ 0x10000
 8007068:	d108      	bne.n	800707c <HAL_RCC_OscConfig+0x444>
 800706a:	4b24      	ldr	r3, [pc, #144]	@ (80070fc <HAL_RCC_OscConfig+0x4c4>)
 800706c:	685b      	ldr	r3, [r3, #4]
 800706e:	f423 3200 	bic.w	r2, r3, #131072	@ 0x20000
 8007072:	687b      	ldr	r3, [r7, #4]
 8007074:	689b      	ldr	r3, [r3, #8]
 8007076:	4921      	ldr	r1, [pc, #132]	@ (80070fc <HAL_RCC_OscConfig+0x4c4>)
 8007078:	4313      	orrs	r3, r2
 800707a:	604b      	str	r3, [r1, #4]
 800707c:	4b1f      	ldr	r3, [pc, #124]	@ (80070fc <HAL_RCC_OscConfig+0x4c4>)
 800707e:	685b      	ldr	r3, [r3, #4]
 8007080:	f423 1274 	bic.w	r2, r3, #3997696	@ 0x3d0000
 8007084:	687b      	ldr	r3, [r7, #4]
 8007086:	6a19      	ldr	r1, [r3, #32]
 8007088:	687b      	ldr	r3, [r7, #4]
 800708a:	6a5b      	ldr	r3, [r3, #36]	@ 0x24
 800708c:	430b      	orrs	r3, r1
 800708e:	491b      	ldr	r1, [pc, #108]	@ (80070fc <HAL_RCC_OscConfig+0x4c4>)
 8007090:	4313      	orrs	r3, r2
 8007092:	604b      	str	r3, [r1, #4]
 8007094:	4b1b      	ldr	r3, [pc, #108]	@ (8007104 <HAL_RCC_OscConfig+0x4cc>)
 8007096:	2201      	movs	r2, #1
 8007098:	601a      	str	r2, [r3, #0]
 800709a:	f7fd fec7 	bl	8004e2c <HAL_GetTick>
 800709e:	6138      	str	r0, [r7, #16]
 80070a0:	e008      	b.n	80070b4 <HAL_RCC_OscConfig+0x47c>
 80070a2:	f7fd fec3 	bl	8004e2c <HAL_GetTick>
 80070a6:	4602      	mov	r2, r0
 80070a8:	693b      	ldr	r3, [r7, #16]
 80070aa:	1ad3      	subs	r3, r2, r3
 80070ac:	2b02      	cmp	r3, #2
 80070ae:	d901      	bls.n	80070b4 <HAL_RCC_OscConfig+0x47c>
 80070b0:	2303      	movs	r3, #3
 80070b2:	e03d      	b.n	8007130 <HAL_RCC_OscConfig+0x4f8>
 80070b4:	4b11      	ldr	r3, [pc, #68]	@ (80070fc <HAL_RCC_OscConfig+0x4c4>)
 80070b6:	681b      	ldr	r3, [r3, #0]
 80070b8:	f003 7300 	and.w	r3, r3, #33554432	@ 0x2000000
 80070bc:	2b00      	cmp	r3, #0
 80070be:	d0f0      	beq.n	80070a2 <HAL_RCC_OscConfig+0x46a>
 80070c0:	e035      	b.n	800712e <HAL_RCC_OscConfig+0x4f6>
 80070c2:	4b10      	ldr	r3, [pc, #64]	@ (8007104 <HAL_RCC_OscConfig+0x4cc>)
 80070c4:	2200      	movs	r2, #0
 80070c6:	601a      	str	r2, [r3, #0]
 80070c8:	f7fd feb0 	bl	8004e2c <HAL_GetTick>
 80070cc:	6138      	str	r0, [r7, #16]
 80070ce:	e008      	b.n	80070e2 <HAL_RCC_OscConfig+0x4aa>
 80070d0:	f7fd feac 	bl	8004e2c <HAL_GetTick>
 80070d4:	4602      	mov	r2, r0
 80070d6:	693b      	ldr	r3, [r7, #16]
 80070d8:	1ad3      	subs	r3, r2, r3
 80070da:	2b02      	cmp	r3, #2
 80070dc:	d901      	bls.n	80070e2 <HAL_RCC_OscConfig+0x4aa>
 80070de:	2303      	movs	r3, #3
 80070e0:	e026      	b.n	8007130 <HAL_RCC_OscConfig+0x4f8>
 80070e2:	4b06      	ldr	r3, [pc, #24]	@ (80070fc <HAL_RCC_OscConfig+0x4c4>)
 80070e4:	681b      	ldr	r3, [r3, #0]
 80070e6:	f003 7300 	and.w	r3, r3, #33554432	@ 0x2000000
 80070ea:	2b00      	cmp	r3, #0
 80070ec:	d1f0      	bne.n	80070d0 <HAL_RCC_OscConfig+0x498>
 80070ee:	e01e      	b.n	800712e <HAL_RCC_OscConfig+0x4f6>
 80070f0:	687b      	ldr	r3, [r7, #4]
 80070f2:	69db      	ldr	r3, [r3, #28]
 80070f4:	2b01      	cmp	r3, #1
 80070f6:	d107      	bne.n	8007108 <HAL_RCC_OscConfig+0x4d0>
 80070f8:	2301      	movs	r3, #1
 80070fa:	e019      	b.n	8007130 <HAL_RCC_OscConfig+0x4f8>
 80070fc:	40021000 	.word	0x40021000
 8007100:	40007000 	.word	0x40007000
 8007104:	42420060 	.word	0x42420060
 8007108:	4b0b      	ldr	r3, [pc, #44]	@ (8007138 <HAL_RCC_OscConfig+0x500>)
 800710a:	685b      	ldr	r3, [r3, #4]
 800710c:	60fb      	str	r3, [r7, #12]
 800710e:	68fb      	ldr	r3, [r7, #12]
 8007110:	f403 3280 	and.w	r2, r3, #65536	@ 0x10000
 8007114:	687b      	ldr	r3, [r7, #4]
 8007116:	6a1b      	ldr	r3, [r3, #32]
 8007118:	429a      	cmp	r2, r3
 800711a:	d106      	bne.n	800712a <HAL_RCC_OscConfig+0x4f2>
 800711c:	68fb      	ldr	r3, [r7, #12]
 800711e:	f403 1270 	and.w	r2, r3, #3932160	@ 0x3c0000
 8007122:	687b      	ldr	r3, [r7, #4]
 8007124:	6a5b      	ldr	r3, [r3, #36]	@ 0x24
 8007126:	429a      	cmp	r2, r3
 8007128:	d001      	beq.n	800712e <HAL_RCC_OscConfig+0x4f6>
 800712a:	2301      	movs	r3, #1
 800712c:	e000      	b.n	8007130 <HAL_RCC_OscConfig+0x4f8>
 800712e:	2300      	movs	r3, #0
 8007130:	4618      	mov	r0, r3
 8007132:	3718      	adds	r7, #24
 8007134:	46bd      	mov	sp, r7
 8007136:	bd80      	pop	{r7, pc}
 8007138:	40021000 	.word	0x40021000

0800713c <HAL_RCC_ClockConfig>:
 800713c:	b580      	push	{r7, lr}
 800713e:	b084      	sub	sp, #16
 8007140:	af00      	add	r7, sp, #0
 8007142:	6078      	str	r0, [r7, #4]
 8007144:	6039      	str	r1, [r7, #0]
 8007146:	687b      	ldr	r3, [r7, #4]
 8007148:	2b00      	cmp	r3, #0
 800714a:	d101      	bne.n	8007150 <HAL_RCC_ClockConfig+0x14>
 800714c:	2301      	movs	r3, #1
 800714e:	e0d0      	b.n	80072f2 <HAL_RCC_ClockConfig+0x1b6>
 8007150:	4b6a      	ldr	r3, [pc, #424]	@ (80072fc <HAL_RCC_ClockConfig+0x1c0>)
 8007152:	681b      	ldr	r3, [r3, #0]
 8007154:	f003 0307 	and.w	r3, r3, #7
 8007158:	683a      	ldr	r2, [r7, #0]
 800715a:	429a      	cmp	r2, r3
 800715c:	d910      	bls.n	8007180 <HAL_RCC_ClockConfig+0x44>
 800715e:	4b67      	ldr	r3, [pc, #412]	@ (80072fc <HAL_RCC_ClockConfig+0x1c0>)
 8007160:	681b      	ldr	r3, [r3, #0]
 8007162:	f023 0207 	bic.w	r2, r3, #7
 8007166:	4965      	ldr	r1, [pc, #404]	@ (80072fc <HAL_RCC_ClockConfig+0x1c0>)
 8007168:	683b      	ldr	r3, [r7, #0]
 800716a:	4313      	orrs	r3, r2
 800716c:	600b      	str	r3, [r1, #0]
 800716e:	4b63      	ldr	r3, [pc, #396]	@ (80072fc <HAL_RCC_ClockConfig+0x1c0>)
 8007170:	681b      	ldr	r3, [r3, #0]
 8007172:	f003 0307 	and.w	r3, r3, #7
 8007176:	683a      	ldr	r2, [r7, #0]
 8007178:	429a      	cmp	r2, r3
 800717a:	d001      	beq.n	8007180 <HAL_RCC_ClockConfig+0x44>
 800717c:	2301      	movs	r3, #1
 800717e:	e0b8      	b.n	80072f2 <HAL_RCC_ClockConfig+0x1b6>
 8007180:	687b      	ldr	r3, [r7, #4]
 8007182:	681b      	ldr	r3, [r3, #0]
 8007184:	f003 0302 	and.w	r3, r3, #2
 8007188:	2b00      	cmp	r3, #0
 800718a:	d020      	beq.n	80071ce <HAL_RCC_ClockConfig+0x92>
 800718c:	687b      	ldr	r3, [r7, #4]
 800718e:	681b      	ldr	r3, [r3, #0]
 8007190:	f003 0304 	and.w	r3, r3, #4
 8007194:	2b00      	cmp	r3, #0
 8007196:	d005      	beq.n	80071a4 <HAL_RCC_ClockConfig+0x68>
 8007198:	4b59      	ldr	r3, [pc, #356]	@ (8007300 <HAL_RCC_ClockConfig+0x1c4>)
 800719a:	685b      	ldr	r3, [r3, #4]
 800719c:	4a58      	ldr	r2, [pc, #352]	@ (8007300 <HAL_RCC_ClockConfig+0x1c4>)
 800719e:	f443 63e0 	orr.w	r3, r3, #1792	@ 0x700
 80071a2:	6053      	str	r3, [r2, #4]
 80071a4:	687b      	ldr	r3, [r7, #4]
 80071a6:	681b      	ldr	r3, [r3, #0]
 80071a8:	f003 0308 	and.w	r3, r3, #8
 80071ac:	2b00      	cmp	r3, #0
 80071ae:	d005      	beq.n	80071bc <HAL_RCC_ClockConfig+0x80>
 80071b0:	4b53      	ldr	r3, [pc, #332]	@ (8007300 <HAL_RCC_ClockConfig+0x1c4>)
 80071b2:	685b      	ldr	r3, [r3, #4]
 80071b4:	4a52      	ldr	r2, [pc, #328]	@ (8007300 <HAL_RCC_ClockConfig+0x1c4>)
 80071b6:	f443 5360 	orr.w	r3, r3, #14336	@ 0x3800
 80071ba:	6053      	str	r3, [r2, #4]
 80071bc:	4b50      	ldr	r3, [pc, #320]	@ (8007300 <HAL_RCC_ClockConfig+0x1c4>)
 80071be:	685b      	ldr	r3, [r3, #4]
 80071c0:	f023 02f0 	bic.w	r2, r3, #240	@ 0xf0
 80071c4:	687b      	ldr	r3, [r7, #4]
 80071c6:	689b      	ldr	r3, [r3, #8]
 80071c8:	494d      	ldr	r1, [pc, #308]	@ (8007300 <HAL_RCC_ClockConfig+0x1c4>)
 80071ca:	4313      	orrs	r3, r2
 80071cc:	604b      	str	r3, [r1, #4]
 80071ce:	687b      	ldr	r3, [r7, #4]
 80071d0:	681b      	ldr	r3, [r3, #0]
 80071d2:	f003 0301 	and.w	r3, r3, #1
 80071d6:	2b00      	cmp	r3, #0
 80071d8:	d040      	beq.n	800725c <HAL_RCC_ClockConfig+0x120>
 80071da:	687b      	ldr	r3, [r7, #4]
 80071dc:	685b      	ldr	r3, [r3, #4]
 80071de:	2b01      	cmp	r3, #1
 80071e0:	d107      	bne.n	80071f2 <HAL_RCC_ClockConfig+0xb6>
 80071e2:	4b47      	ldr	r3, [pc, #284]	@ (8007300 <HAL_RCC_ClockConfig+0x1c4>)
 80071e4:	681b      	ldr	r3, [r3, #0]
 80071e6:	f403 3300 	and.w	r3, r3, #131072	@ 0x20000
 80071ea:	2b00      	cmp	r3, #0
 80071ec:	d115      	bne.n	800721a <HAL_RCC_ClockConfig+0xde>
 80071ee:	2301      	movs	r3, #1
 80071f0:	e07f      	b.n	80072f2 <HAL_RCC_ClockConfig+0x1b6>
 80071f2:	687b      	ldr	r3, [r7, #4]
 80071f4:	685b      	ldr	r3, [r3, #4]
 80071f6:	2b02      	cmp	r3, #2
 80071f8:	d107      	bne.n	800720a <HAL_RCC_ClockConfig+0xce>
 80071fa:	4b41      	ldr	r3, [pc, #260]	@ (8007300 <HAL_RCC_ClockConfig+0x1c4>)
 80071fc:	681b      	ldr	r3, [r3, #0]
 80071fe:	f003 7300 	and.w	r3, r3, #33554432	@ 0x2000000
 8007202:	2b00      	cmp	r3, #0
 8007204:	d109      	bne.n	800721a <HAL_RCC_ClockConfig+0xde>
 8007206:	2301      	movs	r3, #1
 8007208:	e073      	b.n	80072f2 <HAL_RCC_ClockConfig+0x1b6>
 800720a:	4b3d      	ldr	r3, [pc, #244]	@ (8007300 <HAL_RCC_ClockConfig+0x1c4>)
 800720c:	681b      	ldr	r3, [r3, #0]
 800720e:	f003 0302 	and.w	r3, r3, #2
 8007212:	2b00      	cmp	r3, #0
 8007214:	d101      	bne.n	800721a <HAL_RCC_ClockConfig+0xde>
 8007216:	2301      	movs	r3, #1
 8007218:	e06b      	b.n	80072f2 <HAL_RCC_ClockConfig+0x1b6>
 800721a:	4b39      	ldr	r3, [pc, #228]	@ (8007300 <HAL_RCC_ClockConfig+0x1c4>)
 800721c:	685b      	ldr	r3, [r3, #4]
 800721e:	f023 0203 	bic.w	r2, r3, #3
 8007222:	687b      	ldr	r3, [r7, #4]
 8007224:	685b      	ldr	r3, [r3, #4]
 8007226:	4936      	ldr	r1, [pc, #216]	@ (8007300 <HAL_RCC_ClockConfig+0x1c4>)
 8007228:	4313      	orrs	r3, r2
 800722a:	604b      	str	r3, [r1, #4]
 800722c:	f7fd fdfe 	bl	8004e2c <HAL_GetTick>
 8007230:	60f8      	str	r0, [r7, #12]
 8007232:	e00a      	b.n	800724a <HAL_RCC_ClockConfig+0x10e>
 8007234:	f7fd fdfa 	bl	8004e2c <HAL_GetTick>
 8007238:	4602      	mov	r2, r0
 800723a:	68fb      	ldr	r3, [r7, #12]
 800723c:	1ad3      	subs	r3, r2, r3
 800723e:	f241 3288 	movw	r2, #5000	@ 0x1388
 8007242:	4293      	cmp	r3, r2
 8007244:	d901      	bls.n	800724a <HAL_RCC_ClockConfig+0x10e>
 8007246:	2303      	movs	r3, #3
 8007248:	e053      	b.n	80072f2 <HAL_RCC_ClockConfig+0x1b6>
 800724a:	4b2d      	ldr	r3, [pc, #180]	@ (8007300 <HAL_RCC_ClockConfig+0x1c4>)
 800724c:	685b      	ldr	r3, [r3, #4]
 800724e:	f003 020c 	and.w	r2, r3, #12
 8007252:	687b      	ldr	r3, [r7, #4]
 8007254:	685b      	ldr	r3, [r3, #4]
 8007256:	009b      	lsls	r3, r3, #2
 8007258:	429a      	cmp	r2, r3
 800725a:	d1eb      	bne.n	8007234 <HAL_RCC_ClockConfig+0xf8>
 800725c:	4b27      	ldr	r3, [pc, #156]	@ (80072fc <HAL_RCC_ClockConfig+0x1c0>)
 800725e:	681b      	ldr	r3, [r3, #0]
 8007260:	f003 0307 	and.w	r3, r3, #7
 8007264:	683a      	ldr	r2, [r7, #0]
 8007266:	429a      	cmp	r2, r3
 8007268:	d210      	bcs.n	800728c <HAL_RCC_ClockConfig+0x150>
 800726a:	4b24      	ldr	r3, [pc, #144]	@ (80072fc <HAL_RCC_ClockConfig+0x1c0>)
 800726c:	681b      	ldr	r3, [r3, #0]
 800726e:	f023 0207 	bic.w	r2, r3, #7
 8007272:	4922      	ldr	r1, [pc, #136]	@ (80072fc <HAL_RCC_ClockConfig+0x1c0>)
 8007274:	683b      	ldr	r3, [r7, #0]
 8007276:	4313      	orrs	r3, r2
 8007278:	600b      	str	r3, [r1, #0]
 800727a:	4b20      	ldr	r3, [pc, #128]	@ (80072fc <HAL_RCC_ClockConfig+0x1c0>)
 800727c:	681b      	ldr	r3, [r3, #0]
 800727e:	f003 0307 	and.w	r3, r3, #7
 8007282:	683a      	ldr	r2, [r7, #0]
 8007284:	429a      	cmp	r2, r3
 8007286:	d001      	beq.n	800728c <HAL_RCC_ClockConfig+0x150>
 8007288:	2301      	movs	r3, #1
 800728a:	e032      	b.n	80072f2 <HAL_RCC_ClockConfig+0x1b6>
 800728c:	687b      	ldr	r3, [r7, #4]
 800728e:	681b      	ldr	r3, [r3, #0]
 8007290:	f003 0304 	and.w	r3, r3, #4
 8007294:	2b00      	cmp	r3, #0
 8007296:	d008      	beq.n	80072aa <HAL_RCC_ClockConfig+0x16e>
 8007298:	4b19      	ldr	r3, [pc, #100]	@ (8007300 <HAL_RCC_ClockConfig+0x1c4>)
 800729a:	685b      	ldr	r3, [r3, #4]
 800729c:	f423 62e0 	bic.w	r2, r3, #1792	@ 0x700
 80072a0:	687b      	ldr	r3, [r7, #4]
 80072a2:	68db      	ldr	r3, [r3, #12]
 80072a4:	4916      	ldr	r1, [pc, #88]	@ (8007300 <HAL_RCC_ClockConfig+0x1c4>)
 80072a6:	4313      	orrs	r3, r2
 80072a8:	604b      	str	r3, [r1, #4]
 80072aa:	687b      	ldr	r3, [r7, #4]
 80072ac:	681b      	ldr	r3, [r3, #0]
 80072ae:	f003 0308 	and.w	r3, r3, #8
 80072b2:	2b00      	cmp	r3, #0
 80072b4:	d009      	beq.n	80072ca <HAL_RCC_ClockConfig+0x18e>
 80072b6:	4b12      	ldr	r3, [pc, #72]	@ (8007300 <HAL_RCC_ClockConfig+0x1c4>)
 80072b8:	685b      	ldr	r3, [r3, #4]
 80072ba:	f423 5260 	bic.w	r2, r3, #14336	@ 0x3800
 80072be:	687b      	ldr	r3, [r7, #4]
 80072c0:	691b      	ldr	r3, [r3, #16]
 80072c2:	00db      	lsls	r3, r3, #3
 80072c4:	490e      	ldr	r1, [pc, #56]	@ (8007300 <HAL_RCC_ClockConfig+0x1c4>)
 80072c6:	4313      	orrs	r3, r2
 80072c8:	604b      	str	r3, [r1, #4]
 80072ca:	f000 f821 	bl	8007310 <HAL_RCC_GetSysClockFreq>
 80072ce:	4602      	mov	r2, r0
 80072d0:	4b0b      	ldr	r3, [pc, #44]	@ (8007300 <HAL_RCC_ClockConfig+0x1c4>)
 80072d2:	685b      	ldr	r3, [r3, #4]
 80072d4:	091b      	lsrs	r3, r3, #4
 80072d6:	f003 030f 	and.w	r3, r3, #15
 80072da:	490a      	ldr	r1, [pc, #40]	@ (8007304 <HAL_RCC_ClockConfig+0x1c8>)
 80072dc:	5ccb      	ldrb	r3, [r1, r3]
 80072de:	fa22 f303 	lsr.w	r3, r2, r3
 80072e2:	4a09      	ldr	r2, [pc, #36]	@ (8007308 <HAL_RCC_ClockConfig+0x1cc>)
 80072e4:	6013      	str	r3, [r2, #0]
 80072e6:	4b09      	ldr	r3, [pc, #36]	@ (800730c <HAL_RCC_ClockConfig+0x1d0>)
 80072e8:	681b      	ldr	r3, [r3, #0]
 80072ea:	4618      	mov	r0, r3
 80072ec:	f7fd fd5c 	bl	8004da8 <HAL_InitTick>
 80072f0:	2300      	movs	r3, #0
 80072f2:	4618      	mov	r0, r3
 80072f4:	3710      	adds	r7, #16
 80072f6:	46bd      	mov	sp, r7
 80072f8:	bd80      	pop	{r7, pc}
 80072fa:	bf00      	nop
 80072fc:	40022000 	.word	0x40022000
 8007300:	40021000 	.word	0x40021000
 8007304:	080098e0 	.word	0x080098e0
 8007308:	20000038 	.word	0x20000038
 800730c:	2000003c 	.word	0x2000003c

08007310 <HAL_RCC_GetSysClockFreq>:
 8007310:	b480      	push	{r7}
 8007312:	b087      	sub	sp, #28
 8007314:	af00      	add	r7, sp, #0
 8007316:	2300      	movs	r3, #0
 8007318:	60fb      	str	r3, [r7, #12]
 800731a:	2300      	movs	r3, #0
 800731c:	60bb      	str	r3, [r7, #8]
 800731e:	2300      	movs	r3, #0
 8007320:	617b      	str	r3, [r7, #20]
 8007322:	2300      	movs	r3, #0
 8007324:	607b      	str	r3, [r7, #4]
 8007326:	2300      	movs	r3, #0
 8007328:	613b      	str	r3, [r7, #16]
 800732a:	4b1e      	ldr	r3, [pc, #120]	@ (80073a4 <HAL_RCC_GetSysClockFreq+0x94>)
 800732c:	685b      	ldr	r3, [r3, #4]
 800732e:	60fb      	str	r3, [r7, #12]
 8007330:	68fb      	ldr	r3, [r7, #12]
 8007332:	f003 030c 	and.w	r3, r3, #12
 8007336:	2b04      	cmp	r3, #4
 8007338:	d002      	beq.n	8007340 <HAL_RCC_GetSysClockFreq+0x30>
 800733a:	2b08      	cmp	r3, #8
 800733c:	d003      	beq.n	8007346 <HAL_RCC_GetSysClockFreq+0x36>
 800733e:	e027      	b.n	8007390 <HAL_RCC_GetSysClockFreq+0x80>
 8007340:	4b19      	ldr	r3, [pc, #100]	@ (80073a8 <HAL_RCC_GetSysClockFreq+0x98>)
 8007342:	613b      	str	r3, [r7, #16]
 8007344:	e027      	b.n	8007396 <HAL_RCC_GetSysClockFreq+0x86>
 8007346:	68fb      	ldr	r3, [r7, #12]
 8007348:	0c9b      	lsrs	r3, r3, #18
 800734a:	f003 030f 	and.w	r3, r3, #15
 800734e:	4a17      	ldr	r2, [pc, #92]	@ (80073ac <HAL_RCC_GetSysClockFreq+0x9c>)
 8007350:	5cd3      	ldrb	r3, [r2, r3]
 8007352:	607b      	str	r3, [r7, #4]
 8007354:	68fb      	ldr	r3, [r7, #12]
 8007356:	f403 3380 	and.w	r3, r3, #65536	@ 0x10000
 800735a:	2b00      	cmp	r3, #0
 800735c:	d010      	beq.n	8007380 <HAL_RCC_GetSysClockFreq+0x70>
 800735e:	4b11      	ldr	r3, [pc, #68]	@ (80073a4 <HAL_RCC_GetSysClockFreq+0x94>)
 8007360:	685b      	ldr	r3, [r3, #4]
 8007362:	0c5b      	lsrs	r3, r3, #17
 8007364:	f003 0301 	and.w	r3, r3, #1
 8007368:	4a11      	ldr	r2, [pc, #68]	@ (80073b0 <HAL_RCC_GetSysClockFreq+0xa0>)
 800736a:	5cd3      	ldrb	r3, [r2, r3]
 800736c:	60bb      	str	r3, [r7, #8]
 800736e:	687b      	ldr	r3, [r7, #4]
 8007370:	4a0d      	ldr	r2, [pc, #52]	@ (80073a8 <HAL_RCC_GetSysClockFreq+0x98>)
 8007372:	fb03 f202 	mul.w	r2, r3, r2
 8007376:	68bb      	ldr	r3, [r7, #8]
 8007378:	fbb2 f3f3 	udiv	r3, r2, r3
 800737c:	617b      	str	r3, [r7, #20]
 800737e:	e004      	b.n	800738a <HAL_RCC_GetSysClockFreq+0x7a>
 8007380:	687b      	ldr	r3, [r7, #4]
 8007382:	4a0c      	ldr	r2, [pc, #48]	@ (80073b4 <HAL_RCC_GetSysClockFreq+0xa4>)
 8007384:	fb02 f303 	mul.w	r3, r2, r3
 8007388:	617b      	str	r3, [r7, #20]
 800738a:	697b      	ldr	r3, [r7, #20]
 800738c:	613b      	str	r3, [r7, #16]
 800738e:	e002      	b.n	8007396 <HAL_RCC_GetSysClockFreq+0x86>
 8007390:	4b09      	ldr	r3, [pc, #36]	@ (80073b8 <HAL_RCC_GetSysClockFreq+0xa8>)
 8007392:	613b      	str	r3, [r7, #16]
 8007394:	bf00      	nop
 8007396:	693b      	ldr	r3, [r7, #16]
 8007398:	4618      	mov	r0, r3
 800739a:	371c      	adds	r7, #28
 800739c:	46bd      	mov	sp, r7
 800739e:	bc80      	pop	{r7}
 80073a0:	4770      	bx	lr
 80073a2:	bf00      	nop
 80073a4:	40021000 	.word	0x40021000
 80073a8:	00f42400 	.word	0x00f42400
 80073ac:	080098f8 	.word	0x080098f8
 80073b0:	08009908 	.word	0x08009908
 80073b4:	003d0900 	.word	0x003d0900
 80073b8:	007a1200 	.word	0x007a1200

080073bc <HAL_RCC_GetHCLKFreq>:
 80073bc:	b480      	push	{r7}
 80073be:	af00      	add	r7, sp, #0
 80073c0:	4b02      	ldr	r3, [pc, #8]	@ (80073cc <HAL_RCC_GetHCLKFreq+0x10>)
 80073c2:	681b      	ldr	r3, [r3, #0]
 80073c4:	4618      	mov	r0, r3
 80073c6:	46bd      	mov	sp, r7
 80073c8:	bc80      	pop	{r7}
 80073ca:	4770      	bx	lr
 80073cc:	20000038 	.word	0x20000038

080073d0 <HAL_RCC_GetPCLK1Freq>:
 80073d0:	b580      	push	{r7, lr}
 80073d2:	af00      	add	r7, sp, #0
 80073d4:	f7ff fff2 	bl	80073bc <HAL_RCC_GetHCLKFreq>
 80073d8:	4602      	mov	r2, r0
 80073da:	4b05      	ldr	r3, [pc, #20]	@ (80073f0 <HAL_RCC_GetPCLK1Freq+0x20>)
 80073dc:	685b      	ldr	r3, [r3, #4]
 80073de:	0a1b      	lsrs	r3, r3, #8
 80073e0:	f003 0307 	and.w	r3, r3, #7
 80073e4:	4903      	ldr	r1, [pc, #12]	@ (80073f4 <HAL_RCC_GetPCLK1Freq+0x24>)
 80073e6:	5ccb      	ldrb	r3, [r1, r3]
 80073e8:	fa22 f303 	lsr.w	r3, r2, r3
 80073ec:	4618      	mov	r0, r3
 80073ee:	bd80      	pop	{r7, pc}
 80073f0:	40021000 	.word	0x40021000
 80073f4:	080098f0 	.word	0x080098f0

080073f8 <HAL_RCC_GetPCLK2Freq>:
 80073f8:	b580      	push	{r7, lr}
 80073fa:	af00      	add	r7, sp, #0
 80073fc:	f7ff ffde 	bl	80073bc <HAL_RCC_GetHCLKFreq>
 8007400:	4602      	mov	r2, r0
 8007402:	4b05      	ldr	r3, [pc, #20]	@ (8007418 <HAL_RCC_GetPCLK2Freq+0x20>)
 8007404:	685b      	ldr	r3, [r3, #4]
 8007406:	0adb      	lsrs	r3, r3, #11
 8007408:	f003 0307 	and.w	r3, r3, #7
 800740c:	4903      	ldr	r1, [pc, #12]	@ (800741c <HAL_RCC_GetPCLK2Freq+0x24>)
 800740e:	5ccb      	ldrb	r3, [r1, r3]
 8007410:	fa22 f303 	lsr.w	r3, r2, r3
 8007414:	4618      	mov	r0, r3
 8007416:	bd80      	pop	{r7, pc}
 8007418:	40021000 	.word	0x40021000
 800741c:	080098f0 	.word	0x080098f0

08007420 <RCC_Delay>:
 8007420:	b480      	push	{r7}
 8007422:	b085      	sub	sp, #20
 8007424:	af00      	add	r7, sp, #0
 8007426:	6078      	str	r0, [r7, #4]
 8007428:	4b0a      	ldr	r3, [pc, #40]	@ (8007454 <RCC_Delay+0x34>)
 800742a:	681b      	ldr	r3, [r3, #0]
 800742c:	4a0a      	ldr	r2, [pc, #40]	@ (8007458 <RCC_Delay+0x38>)
 800742e:	fba2 2303 	umull	r2, r3, r2, r3
 8007432:	0a5b      	lsrs	r3, r3, #9
 8007434:	687a      	ldr	r2, [r7, #4]
 8007436:	fb02 f303 	mul.w	r3, r2, r3
 800743a:	60fb      	str	r3, [r7, #12]
 800743c:	bf00      	nop
 800743e:	68fb      	ldr	r3, [r7, #12]
 8007440:	1e5a      	subs	r2, r3, #1
 8007442:	60fa      	str	r2, [r7, #12]
 8007444:	2b00      	cmp	r3, #0
 8007446:	d1f9      	bne.n	800743c <RCC_Delay+0x1c>
 8007448:	bf00      	nop
 800744a:	bf00      	nop
 800744c:	3714      	adds	r7, #20
 800744e:	46bd      	mov	sp, r7
 8007450:	bc80      	pop	{r7}
 8007452:	4770      	bx	lr
 8007454:	20000038 	.word	0x20000038
 8007458:	10624dd3 	.word	0x10624dd3

0800745c <HAL_SPI_Init>:
 800745c:	b580      	push	{r7, lr}
 800745e:	b082      	sub	sp, #8
 8007460:	af00      	add	r7, sp, #0
 8007462:	6078      	str	r0, [r7, #4]
 8007464:	687b      	ldr	r3, [r7, #4]
 8007466:	2b00      	cmp	r3, #0
 8007468:	d101      	bne.n	800746e <HAL_SPI_Init+0x12>
 800746a:	2301      	movs	r3, #1
 800746c:	e076      	b.n	800755c <HAL_SPI_Init+0x100>
 800746e:	687b      	ldr	r3, [r7, #4]
 8007470:	6a5b      	ldr	r3, [r3, #36]	@ 0x24
 8007472:	2b00      	cmp	r3, #0
 8007474:	d108      	bne.n	8007488 <HAL_SPI_Init+0x2c>
 8007476:	687b      	ldr	r3, [r7, #4]
 8007478:	685b      	ldr	r3, [r3, #4]
 800747a:	f5b3 7f82 	cmp.w	r3, #260	@ 0x104
 800747e:	d009      	beq.n	8007494 <HAL_SPI_Init+0x38>
 8007480:	687b      	ldr	r3, [r7, #4]
 8007482:	2200      	movs	r2, #0
 8007484:	61da      	str	r2, [r3, #28]
 8007486:	e005      	b.n	8007494 <HAL_SPI_Init+0x38>
 8007488:	687b      	ldr	r3, [r7, #4]
 800748a:	2200      	movs	r2, #0
 800748c:	611a      	str	r2, [r3, #16]
 800748e:	687b      	ldr	r3, [r7, #4]
 8007490:	2200      	movs	r2, #0
 8007492:	615a      	str	r2, [r3, #20]
 8007494:	687b      	ldr	r3, [r7, #4]
 8007496:	2200      	movs	r2, #0
 8007498:	629a      	str	r2, [r3, #40]	@ 0x28
 800749a:	687b      	ldr	r3, [r7, #4]
 800749c:	f893 3051 	ldrb.w	r3, [r3, #81]	@ 0x51
 80074a0:	b2db      	uxtb	r3, r3
 80074a2:	2b00      	cmp	r3, #0
 80074a4:	d106      	bne.n	80074b4 <HAL_SPI_Init+0x58>
 80074a6:	687b      	ldr	r3, [r7, #4]
 80074a8:	2200      	movs	r2, #0
 80074aa:	f883 2050 	strb.w	r2, [r3, #80]	@ 0x50
 80074ae:	6878      	ldr	r0, [r7, #4]
 80074b0:	f7fd fa86 	bl	80049c0 <HAL_SPI_MspInit>
 80074b4:	687b      	ldr	r3, [r7, #4]
 80074b6:	2202      	movs	r2, #2
 80074b8:	f883 2051 	strb.w	r2, [r3, #81]	@ 0x51
 80074bc:	687b      	ldr	r3, [r7, #4]
 80074be:	681b      	ldr	r3, [r3, #0]
 80074c0:	681a      	ldr	r2, [r3, #0]
 80074c2:	687b      	ldr	r3, [r7, #4]
 80074c4:	681b      	ldr	r3, [r3, #0]
 80074c6:	f022 0240 	bic.w	r2, r2, #64	@ 0x40
 80074ca:	601a      	str	r2, [r3, #0]
 80074cc:	687b      	ldr	r3, [r7, #4]
 80074ce:	685b      	ldr	r3, [r3, #4]
 80074d0:	f403 7282 	and.w	r2, r3, #260	@ 0x104
 80074d4:	687b      	ldr	r3, [r7, #4]
 80074d6:	689b      	ldr	r3, [r3, #8]
 80074d8:	f403 4304 	and.w	r3, r3, #33792	@ 0x8400
 80074dc:	431a      	orrs	r2, r3
 80074de:	687b      	ldr	r3, [r7, #4]
 80074e0:	68db      	ldr	r3, [r3, #12]
 80074e2:	f403 6300 	and.w	r3, r3, #2048	@ 0x800
 80074e6:	431a      	orrs	r2, r3
 80074e8:	687b      	ldr	r3, [r7, #4]
 80074ea:	691b      	ldr	r3, [r3, #16]
 80074ec:	f003 0302 	and.w	r3, r3, #2
 80074f0:	431a      	orrs	r2, r3
 80074f2:	687b      	ldr	r3, [r7, #4]
 80074f4:	695b      	ldr	r3, [r3, #20]
 80074f6:	f003 0301 	and.w	r3, r3, #1
 80074fa:	431a      	orrs	r2, r3
 80074fc:	687b      	ldr	r3, [r7, #4]
 80074fe:	699b      	ldr	r3, [r3, #24]
 8007500:	f403 7300 	and.w	r3, r3, #512	@ 0x200
 8007504:	431a      	orrs	r2, r3
 8007506:	687b      	ldr	r3, [r7, #4]
 8007508:	69db      	ldr	r3, [r3, #28]
 800750a:	f003 0338 	and.w	r3, r3, #56	@ 0x38
 800750e:	431a      	orrs	r2, r3
 8007510:	687b      	ldr	r3, [r7, #4]
 8007512:	6a1b      	ldr	r3, [r3, #32]
 8007514:	f003 0380 	and.w	r3, r3, #128	@ 0x80
 8007518:	ea42 0103 	orr.w	r1, r2, r3
 800751c:	687b      	ldr	r3, [r7, #4]
 800751e:	6a9b      	ldr	r3, [r3, #40]	@ 0x28
 8007520:	f403 5200 	and.w	r2, r3, #8192	@ 0x2000
 8007524:	687b      	ldr	r3, [r7, #4]
 8007526:	681b      	ldr	r3, [r3, #0]
 8007528:	430a      	orrs	r2, r1
 800752a:	601a      	str	r2, [r3, #0]
 800752c:	687b      	ldr	r3, [r7, #4]
 800752e:	699b      	ldr	r3, [r3, #24]
 8007530:	0c1a      	lsrs	r2, r3, #16
 8007532:	687b      	ldr	r3, [r7, #4]
 8007534:	681b      	ldr	r3, [r3, #0]
 8007536:	f002 0204 	and.w	r2, r2, #4
 800753a:	605a      	str	r2, [r3, #4]
 800753c:	687b      	ldr	r3, [r7, #4]
 800753e:	681b      	ldr	r3, [r3, #0]
 8007540:	69da      	ldr	r2, [r3, #28]
 8007542:	687b      	ldr	r3, [r7, #4]
 8007544:	681b      	ldr	r3, [r3, #0]
 8007546:	f422 6200 	bic.w	r2, r2, #2048	@ 0x800
 800754a:	61da      	str	r2, [r3, #28]
 800754c:	687b      	ldr	r3, [r7, #4]
 800754e:	2200      	movs	r2, #0
 8007550:	655a      	str	r2, [r3, #84]	@ 0x54
 8007552:	687b      	ldr	r3, [r7, #4]
 8007554:	2201      	movs	r2, #1
 8007556:	f883 2051 	strb.w	r2, [r3, #81]	@ 0x51
 800755a:	2300      	movs	r3, #0
 800755c:	4618      	mov	r0, r3
 800755e:	3708      	adds	r7, #8
 8007560:	46bd      	mov	sp, r7
 8007562:	bd80      	pop	{r7, pc}

08007564 <HAL_SPI_Transmit>:
 8007564:	b580      	push	{r7, lr}
 8007566:	b088      	sub	sp, #32
 8007568:	af00      	add	r7, sp, #0
 800756a:	60f8      	str	r0, [r7, #12]
 800756c:	60b9      	str	r1, [r7, #8]
 800756e:	603b      	str	r3, [r7, #0]
 8007570:	4613      	mov	r3, r2
 8007572:	80fb      	strh	r3, [r7, #6]
 8007574:	f7fd fc5a 	bl	8004e2c <HAL_GetTick>
 8007578:	61f8      	str	r0, [r7, #28]
 800757a:	88fb      	ldrh	r3, [r7, #6]
 800757c:	837b      	strh	r3, [r7, #26]
 800757e:	68fb      	ldr	r3, [r7, #12]
 8007580:	f893 3051 	ldrb.w	r3, [r3, #81]	@ 0x51
 8007584:	b2db      	uxtb	r3, r3
 8007586:	2b01      	cmp	r3, #1
 8007588:	d001      	beq.n	800758e <HAL_SPI_Transmit+0x2a>
 800758a:	2302      	movs	r3, #2
 800758c:	e12a      	b.n	80077e4 <HAL_SPI_Transmit+0x280>
 800758e:	68bb      	ldr	r3, [r7, #8]
 8007590:	2b00      	cmp	r3, #0
 8007592:	d002      	beq.n	800759a <HAL_SPI_Transmit+0x36>
 8007594:	88fb      	ldrh	r3, [r7, #6]
 8007596:	2b00      	cmp	r3, #0
 8007598:	d101      	bne.n	800759e <HAL_SPI_Transmit+0x3a>
 800759a:	2301      	movs	r3, #1
 800759c:	e122      	b.n	80077e4 <HAL_SPI_Transmit+0x280>
 800759e:	68fb      	ldr	r3, [r7, #12]
 80075a0:	f893 3050 	ldrb.w	r3, [r3, #80]	@ 0x50
 80075a4:	2b01      	cmp	r3, #1
 80075a6:	d101      	bne.n	80075ac <HAL_SPI_Transmit+0x48>
 80075a8:	2302      	movs	r3, #2
 80075aa:	e11b      	b.n	80077e4 <HAL_SPI_Transmit+0x280>
 80075ac:	68fb      	ldr	r3, [r7, #12]
 80075ae:	2201      	movs	r2, #1
 80075b0:	f883 2050 	strb.w	r2, [r3, #80]	@ 0x50
 80075b4:	68fb      	ldr	r3, [r7, #12]
 80075b6:	2203      	movs	r2, #3
 80075b8:	f883 2051 	strb.w	r2, [r3, #81]	@ 0x51
 80075bc:	68fb      	ldr	r3, [r7, #12]
 80075be:	2200      	movs	r2, #0
 80075c0:	655a      	str	r2, [r3, #84]	@ 0x54
 80075c2:	68fb      	ldr	r3, [r7, #12]
 80075c4:	68ba      	ldr	r2, [r7, #8]
 80075c6:	631a      	str	r2, [r3, #48]	@ 0x30
 80075c8:	68fb      	ldr	r3, [r7, #12]
 80075ca:	88fa      	ldrh	r2, [r7, #6]
 80075cc:	869a      	strh	r2, [r3, #52]	@ 0x34
 80075ce:	68fb      	ldr	r3, [r7, #12]
 80075d0:	88fa      	ldrh	r2, [r7, #6]
 80075d2:	86da      	strh	r2, [r3, #54]	@ 0x36
 80075d4:	68fb      	ldr	r3, [r7, #12]
 80075d6:	2200      	movs	r2, #0
 80075d8:	639a      	str	r2, [r3, #56]	@ 0x38
 80075da:	68fb      	ldr	r3, [r7, #12]
 80075dc:	2200      	movs	r2, #0
 80075de:	879a      	strh	r2, [r3, #60]	@ 0x3c
 80075e0:	68fb      	ldr	r3, [r7, #12]
 80075e2:	2200      	movs	r2, #0
 80075e4:	87da      	strh	r2, [r3, #62]	@ 0x3e
 80075e6:	68fb      	ldr	r3, [r7, #12]
 80075e8:	2200      	movs	r2, #0
 80075ea:	645a      	str	r2, [r3, #68]	@ 0x44
 80075ec:	68fb      	ldr	r3, [r7, #12]
 80075ee:	2200      	movs	r2, #0
 80075f0:	641a      	str	r2, [r3, #64]	@ 0x40
 80075f2:	68fb      	ldr	r3, [r7, #12]
 80075f4:	689b      	ldr	r3, [r3, #8]
 80075f6:	f5b3 4f00 	cmp.w	r3, #32768	@ 0x8000
 80075fa:	d10f      	bne.n	800761c <HAL_SPI_Transmit+0xb8>
 80075fc:	68fb      	ldr	r3, [r7, #12]
 80075fe:	681b      	ldr	r3, [r3, #0]
 8007600:	681a      	ldr	r2, [r3, #0]
 8007602:	68fb      	ldr	r3, [r7, #12]
 8007604:	681b      	ldr	r3, [r3, #0]
 8007606:	f022 0240 	bic.w	r2, r2, #64	@ 0x40
 800760a:	601a      	str	r2, [r3, #0]
 800760c:	68fb      	ldr	r3, [r7, #12]
 800760e:	681b      	ldr	r3, [r3, #0]
 8007610:	681a      	ldr	r2, [r3, #0]
 8007612:	68fb      	ldr	r3, [r7, #12]
 8007614:	681b      	ldr	r3, [r3, #0]
 8007616:	f442 4280 	orr.w	r2, r2, #16384	@ 0x4000
 800761a:	601a      	str	r2, [r3, #0]
 800761c:	68fb      	ldr	r3, [r7, #12]
 800761e:	681b      	ldr	r3, [r3, #0]
 8007620:	681b      	ldr	r3, [r3, #0]
 8007622:	f003 0340 	and.w	r3, r3, #64	@ 0x40
 8007626:	2b40      	cmp	r3, #64	@ 0x40
 8007628:	d007      	beq.n	800763a <HAL_SPI_Transmit+0xd6>
 800762a:	68fb      	ldr	r3, [r7, #12]
 800762c:	681b      	ldr	r3, [r3, #0]
 800762e:	681a      	ldr	r2, [r3, #0]
 8007630:	68fb      	ldr	r3, [r7, #12]
 8007632:	681b      	ldr	r3, [r3, #0]
 8007634:	f042 0240 	orr.w	r2, r2, #64	@ 0x40
 8007638:	601a      	str	r2, [r3, #0]
 800763a:	68fb      	ldr	r3, [r7, #12]
 800763c:	68db      	ldr	r3, [r3, #12]
 800763e:	f5b3 6f00 	cmp.w	r3, #2048	@ 0x800
 8007642:	d152      	bne.n	80076ea <HAL_SPI_Transmit+0x186>
 8007644:	68fb      	ldr	r3, [r7, #12]
 8007646:	685b      	ldr	r3, [r3, #4]
 8007648:	2b00      	cmp	r3, #0
 800764a:	d002      	beq.n	8007652 <HAL_SPI_Transmit+0xee>
 800764c:	8b7b      	ldrh	r3, [r7, #26]
 800764e:	2b01      	cmp	r3, #1
 8007650:	d145      	bne.n	80076de <HAL_SPI_Transmit+0x17a>
 8007652:	68fb      	ldr	r3, [r7, #12]
 8007654:	6b1b      	ldr	r3, [r3, #48]	@ 0x30
 8007656:	881a      	ldrh	r2, [r3, #0]
 8007658:	68fb      	ldr	r3, [r7, #12]
 800765a:	681b      	ldr	r3, [r3, #0]
 800765c:	60da      	str	r2, [r3, #12]
 800765e:	68fb      	ldr	r3, [r7, #12]
 8007660:	6b1b      	ldr	r3, [r3, #48]	@ 0x30
 8007662:	1c9a      	adds	r2, r3, #2
 8007664:	68fb      	ldr	r3, [r7, #12]
 8007666:	631a      	str	r2, [r3, #48]	@ 0x30
 8007668:	68fb      	ldr	r3, [r7, #12]
 800766a:	8edb      	ldrh	r3, [r3, #54]	@ 0x36
 800766c:	b29b      	uxth	r3, r3
 800766e:	3b01      	subs	r3, #1
 8007670:	b29a      	uxth	r2, r3
 8007672:	68fb      	ldr	r3, [r7, #12]
 8007674:	86da      	strh	r2, [r3, #54]	@ 0x36
 8007676:	e032      	b.n	80076de <HAL_SPI_Transmit+0x17a>
 8007678:	68fb      	ldr	r3, [r7, #12]
 800767a:	681b      	ldr	r3, [r3, #0]
 800767c:	689b      	ldr	r3, [r3, #8]
 800767e:	f003 0302 	and.w	r3, r3, #2
 8007682:	2b02      	cmp	r3, #2
 8007684:	d112      	bne.n	80076ac <HAL_SPI_Transmit+0x148>
 8007686:	68fb      	ldr	r3, [r7, #12]
 8007688:	6b1b      	ldr	r3, [r3, #48]	@ 0x30
 800768a:	881a      	ldrh	r2, [r3, #0]
 800768c:	68fb      	ldr	r3, [r7, #12]
 800768e:	681b      	ldr	r3, [r3, #0]
 8007690:	60da      	str	r2, [r3, #12]
 8007692:	68fb      	ldr	r3, [r7, #12]
 8007694:	6b1b      	ldr	r3, [r3, #48]	@ 0x30
 8007696:	1c9a      	adds	r2, r3, #2
 8007698:	68fb      	ldr	r3, [r7, #12]
 800769a:	631a      	str	r2, [r3, #48]	@ 0x30
 800769c:	68fb      	ldr	r3, [r7, #12]
 800769e:	8edb      	ldrh	r3, [r3, #54]	@ 0x36
 80076a0:	b29b      	uxth	r3, r3
 80076a2:	3b01      	subs	r3, #1
 80076a4:	b29a      	uxth	r2, r3
 80076a6:	68fb      	ldr	r3, [r7, #12]
 80076a8:	86da      	strh	r2, [r3, #54]	@ 0x36
 80076aa:	e018      	b.n	80076de <HAL_SPI_Transmit+0x17a>
 80076ac:	f7fd fbbe 	bl	8004e2c <HAL_GetTick>
 80076b0:	4602      	mov	r2, r0
 80076b2:	69fb      	ldr	r3, [r7, #28]
 80076b4:	1ad3      	subs	r3, r2, r3
 80076b6:	683a      	ldr	r2, [r7, #0]
 80076b8:	429a      	cmp	r2, r3
 80076ba:	d803      	bhi.n	80076c4 <HAL_SPI_Transmit+0x160>
 80076bc:	683b      	ldr	r3, [r7, #0]
 80076be:	f1b3 3fff 	cmp.w	r3, #4294967295
 80076c2:	d102      	bne.n	80076ca <HAL_SPI_Transmit+0x166>
 80076c4:	683b      	ldr	r3, [r7, #0]
 80076c6:	2b00      	cmp	r3, #0
 80076c8:	d109      	bne.n	80076de <HAL_SPI_Transmit+0x17a>
 80076ca:	68fb      	ldr	r3, [r7, #12]
 80076cc:	2201      	movs	r2, #1
 80076ce:	f883 2051 	strb.w	r2, [r3, #81]	@ 0x51
 80076d2:	68fb      	ldr	r3, [r7, #12]
 80076d4:	2200      	movs	r2, #0
 80076d6:	f883 2050 	strb.w	r2, [r3, #80]	@ 0x50
 80076da:	2303      	movs	r3, #3
 80076dc:	e082      	b.n	80077e4 <HAL_SPI_Transmit+0x280>
 80076de:	68fb      	ldr	r3, [r7, #12]
 80076e0:	8edb      	ldrh	r3, [r3, #54]	@ 0x36
 80076e2:	b29b      	uxth	r3, r3
 80076e4:	2b00      	cmp	r3, #0
 80076e6:	d1c7      	bne.n	8007678 <HAL_SPI_Transmit+0x114>
 80076e8:	e053      	b.n	8007792 <HAL_SPI_Transmit+0x22e>
 80076ea:	68fb      	ldr	r3, [r7, #12]
 80076ec:	685b      	ldr	r3, [r3, #4]
 80076ee:	2b00      	cmp	r3, #0
 80076f0:	d002      	beq.n	80076f8 <HAL_SPI_Transmit+0x194>
 80076f2:	8b7b      	ldrh	r3, [r7, #26]
 80076f4:	2b01      	cmp	r3, #1
 80076f6:	d147      	bne.n	8007788 <HAL_SPI_Transmit+0x224>
 80076f8:	68fb      	ldr	r3, [r7, #12]
 80076fa:	6b1a      	ldr	r2, [r3, #48]	@ 0x30
 80076fc:	68fb      	ldr	r3, [r7, #12]
 80076fe:	681b      	ldr	r3, [r3, #0]
 8007700:	330c      	adds	r3, #12
 8007702:	7812      	ldrb	r2, [r2, #0]
 8007704:	701a      	strb	r2, [r3, #0]
 8007706:	68fb      	ldr	r3, [r7, #12]
 8007708:	6b1b      	ldr	r3, [r3, #48]	@ 0x30
 800770a:	1c5a      	adds	r2, r3, #1
 800770c:	68fb      	ldr	r3, [r7, #12]
 800770e:	631a      	str	r2, [r3, #48]	@ 0x30
 8007710:	68fb      	ldr	r3, [r7, #12]
 8007712:	8edb      	ldrh	r3, [r3, #54]	@ 0x36
 8007714:	b29b      	uxth	r3, r3
 8007716:	3b01      	subs	r3, #1
 8007718:	b29a      	uxth	r2, r3
 800771a:	68fb      	ldr	r3, [r7, #12]
 800771c:	86da      	strh	r2, [r3, #54]	@ 0x36
 800771e:	e033      	b.n	8007788 <HAL_SPI_Transmit+0x224>
 8007720:	68fb      	ldr	r3, [r7, #12]
 8007722:	681b      	ldr	r3, [r3, #0]
 8007724:	689b      	ldr	r3, [r3, #8]
 8007726:	f003 0302 	and.w	r3, r3, #2
 800772a:	2b02      	cmp	r3, #2
 800772c:	d113      	bne.n	8007756 <HAL_SPI_Transmit+0x1f2>
 800772e:	68fb      	ldr	r3, [r7, #12]
 8007730:	6b1a      	ldr	r2, [r3, #48]	@ 0x30
 8007732:	68fb      	ldr	r3, [r7, #12]
 8007734:	681b      	ldr	r3, [r3, #0]
 8007736:	330c      	adds	r3, #12
 8007738:	7812      	ldrb	r2, [r2, #0]
 800773a:	701a      	strb	r2, [r3, #0]
 800773c:	68fb      	ldr	r3, [r7, #12]
 800773e:	6b1b      	ldr	r3, [r3, #48]	@ 0x30
 8007740:	1c5a      	adds	r2, r3, #1
 8007742:	68fb      	ldr	r3, [r7, #12]
 8007744:	631a      	str	r2, [r3, #48]	@ 0x30
 8007746:	68fb      	ldr	r3, [r7, #12]
 8007748:	8edb      	ldrh	r3, [r3, #54]	@ 0x36
 800774a:	b29b      	uxth	r3, r3
 800774c:	3b01      	subs	r3, #1
 800774e:	b29a      	uxth	r2, r3
 8007750:	68fb      	ldr	r3, [r7, #12]
 8007752:	86da      	strh	r2, [r3, #54]	@ 0x36
 8007754:	e018      	b.n	8007788 <HAL_SPI_Transmit+0x224>
 8007756:	f7fd fb69 	bl	8004e2c <HAL_GetTick>
 800775a:	4602      	mov	r2, r0
 800775c:	69fb      	ldr	r3, [r7, #28]
 800775e:	1ad3      	subs	r3, r2, r3
 8007760:	683a      	ldr	r2, [r7, #0]
 8007762:	429a      	cmp	r2, r3
 8007764:	d803      	bhi.n	800776e <HAL_SPI_Transmit+0x20a>
 8007766:	683b      	ldr	r3, [r7, #0]
 8007768:	f1b3 3fff 	cmp.w	r3, #4294967295
 800776c:	d102      	bne.n	8007774 <HAL_SPI_Transmit+0x210>
 800776e:	683b      	ldr	r3, [r7, #0]
 8007770:	2b00      	cmp	r3, #0
 8007772:	d109      	bne.n	8007788 <HAL_SPI_Transmit+0x224>
 8007774:	68fb      	ldr	r3, [r7, #12]
 8007776:	2201      	movs	r2, #1
 8007778:	f883 2051 	strb.w	r2, [r3, #81]	@ 0x51
 800777c:	68fb      	ldr	r3, [r7, #12]
 800777e:	2200      	movs	r2, #0
 8007780:	f883 2050 	strb.w	r2, [r3, #80]	@ 0x50
 8007784:	2303      	movs	r3, #3
 8007786:	e02d      	b.n	80077e4 <HAL_SPI_Transmit+0x280>
 8007788:	68fb      	ldr	r3, [r7, #12]
 800778a:	8edb      	ldrh	r3, [r3, #54]	@ 0x36
 800778c:	b29b      	uxth	r3, r3
 800778e:	2b00      	cmp	r3, #0
 8007790:	d1c6      	bne.n	8007720 <HAL_SPI_Transmit+0x1bc>
 8007792:	69fa      	ldr	r2, [r7, #28]
 8007794:	6839      	ldr	r1, [r7, #0]
 8007796:	68f8      	ldr	r0, [r7, #12]
 8007798:	f000 fbc4 	bl	8007f24 <SPI_EndRxTxTransaction>
 800779c:	4603      	mov	r3, r0
 800779e:	2b00      	cmp	r3, #0
 80077a0:	d002      	beq.n	80077a8 <HAL_SPI_Transmit+0x244>
 80077a2:	68fb      	ldr	r3, [r7, #12]
 80077a4:	2220      	movs	r2, #32
 80077a6:	655a      	str	r2, [r3, #84]	@ 0x54
 80077a8:	68fb      	ldr	r3, [r7, #12]
 80077aa:	689b      	ldr	r3, [r3, #8]
 80077ac:	2b00      	cmp	r3, #0
 80077ae:	d10a      	bne.n	80077c6 <HAL_SPI_Transmit+0x262>
 80077b0:	2300      	movs	r3, #0
 80077b2:	617b      	str	r3, [r7, #20]
 80077b4:	68fb      	ldr	r3, [r7, #12]
 80077b6:	681b      	ldr	r3, [r3, #0]
 80077b8:	68db      	ldr	r3, [r3, #12]
 80077ba:	617b      	str	r3, [r7, #20]
 80077bc:	68fb      	ldr	r3, [r7, #12]
 80077be:	681b      	ldr	r3, [r3, #0]
 80077c0:	689b      	ldr	r3, [r3, #8]
 80077c2:	617b      	str	r3, [r7, #20]
 80077c4:	697b      	ldr	r3, [r7, #20]
 80077c6:	68fb      	ldr	r3, [r7, #12]
 80077c8:	2201      	movs	r2, #1
 80077ca:	f883 2051 	strb.w	r2, [r3, #81]	@ 0x51
 80077ce:	68fb      	ldr	r3, [r7, #12]
 80077d0:	2200      	movs	r2, #0
 80077d2:	f883 2050 	strb.w	r2, [r3, #80]	@ 0x50
 80077d6:	68fb      	ldr	r3, [r7, #12]
 80077d8:	6d5b      	ldr	r3, [r3, #84]	@ 0x54
 80077da:	2b00      	cmp	r3, #0
 80077dc:	d001      	beq.n	80077e2 <HAL_SPI_Transmit+0x27e>
 80077de:	2301      	movs	r3, #1
 80077e0:	e000      	b.n	80077e4 <HAL_SPI_Transmit+0x280>
 80077e2:	2300      	movs	r3, #0
 80077e4:	4618      	mov	r0, r3
 80077e6:	3720      	adds	r7, #32
 80077e8:	46bd      	mov	sp, r7
 80077ea:	bd80      	pop	{r7, pc}

080077ec <HAL_SPI_Receive>:
 80077ec:	b580      	push	{r7, lr}
 80077ee:	b088      	sub	sp, #32
 80077f0:	af02      	add	r7, sp, #8
 80077f2:	60f8      	str	r0, [r7, #12]
 80077f4:	60b9      	str	r1, [r7, #8]
 80077f6:	603b      	str	r3, [r7, #0]
 80077f8:	4613      	mov	r3, r2
 80077fa:	80fb      	strh	r3, [r7, #6]
 80077fc:	68fb      	ldr	r3, [r7, #12]
 80077fe:	f893 3051 	ldrb.w	r3, [r3, #81]	@ 0x51
 8007802:	b2db      	uxtb	r3, r3
 8007804:	2b01      	cmp	r3, #1
 8007806:	d001      	beq.n	800780c <HAL_SPI_Receive+0x20>
 8007808:	2302      	movs	r3, #2
 800780a:	e104      	b.n	8007a16 <HAL_SPI_Receive+0x22a>
 800780c:	68fb      	ldr	r3, [r7, #12]
 800780e:	685b      	ldr	r3, [r3, #4]
 8007810:	f5b3 7f82 	cmp.w	r3, #260	@ 0x104
 8007814:	d112      	bne.n	800783c <HAL_SPI_Receive+0x50>
 8007816:	68fb      	ldr	r3, [r7, #12]
 8007818:	689b      	ldr	r3, [r3, #8]
 800781a:	2b00      	cmp	r3, #0
 800781c:	d10e      	bne.n	800783c <HAL_SPI_Receive+0x50>
 800781e:	68fb      	ldr	r3, [r7, #12]
 8007820:	2204      	movs	r2, #4
 8007822:	f883 2051 	strb.w	r2, [r3, #81]	@ 0x51
 8007826:	88fa      	ldrh	r2, [r7, #6]
 8007828:	683b      	ldr	r3, [r7, #0]
 800782a:	9300      	str	r3, [sp, #0]
 800782c:	4613      	mov	r3, r2
 800782e:	68ba      	ldr	r2, [r7, #8]
 8007830:	68b9      	ldr	r1, [r7, #8]
 8007832:	68f8      	ldr	r0, [r7, #12]
 8007834:	f000 f8f3 	bl	8007a1e <HAL_SPI_TransmitReceive>
 8007838:	4603      	mov	r3, r0
 800783a:	e0ec      	b.n	8007a16 <HAL_SPI_Receive+0x22a>
 800783c:	f7fd faf6 	bl	8004e2c <HAL_GetTick>
 8007840:	6178      	str	r0, [r7, #20]
 8007842:	68bb      	ldr	r3, [r7, #8]
 8007844:	2b00      	cmp	r3, #0
 8007846:	d002      	beq.n	800784e <HAL_SPI_Receive+0x62>
 8007848:	88fb      	ldrh	r3, [r7, #6]
 800784a:	2b00      	cmp	r3, #0
 800784c:	d101      	bne.n	8007852 <HAL_SPI_Receive+0x66>
 800784e:	2301      	movs	r3, #1
 8007850:	e0e1      	b.n	8007a16 <HAL_SPI_Receive+0x22a>
 8007852:	68fb      	ldr	r3, [r7, #12]
 8007854:	f893 3050 	ldrb.w	r3, [r3, #80]	@ 0x50
 8007858:	2b01      	cmp	r3, #1
 800785a:	d101      	bne.n	8007860 <HAL_SPI_Receive+0x74>
 800785c:	2302      	movs	r3, #2
 800785e:	e0da      	b.n	8007a16 <HAL_SPI_Receive+0x22a>
 8007860:	68fb      	ldr	r3, [r7, #12]
 8007862:	2201      	movs	r2, #1
 8007864:	f883 2050 	strb.w	r2, [r3, #80]	@ 0x50
 8007868:	68fb      	ldr	r3, [r7, #12]
 800786a:	2204      	movs	r2, #4
 800786c:	f883 2051 	strb.w	r2, [r3, #81]	@ 0x51
 8007870:	68fb      	ldr	r3, [r7, #12]
 8007872:	2200      	movs	r2, #0
 8007874:	655a      	str	r2, [r3, #84]	@ 0x54
 8007876:	68fb      	ldr	r3, [r7, #12]
 8007878:	68ba      	ldr	r2, [r7, #8]
 800787a:	639a      	str	r2, [r3, #56]	@ 0x38
 800787c:	68fb      	ldr	r3, [r7, #12]
 800787e:	88fa      	ldrh	r2, [r7, #6]
 8007880:	879a      	strh	r2, [r3, #60]	@ 0x3c
 8007882:	68fb      	ldr	r3, [r7, #12]
 8007884:	88fa      	ldrh	r2, [r7, #6]
 8007886:	87da      	strh	r2, [r3, #62]	@ 0x3e
 8007888:	68fb      	ldr	r3, [r7, #12]
 800788a:	2200      	movs	r2, #0
 800788c:	631a      	str	r2, [r3, #48]	@ 0x30
 800788e:	68fb      	ldr	r3, [r7, #12]
 8007890:	2200      	movs	r2, #0
 8007892:	869a      	strh	r2, [r3, #52]	@ 0x34
 8007894:	68fb      	ldr	r3, [r7, #12]
 8007896:	2200      	movs	r2, #0
 8007898:	86da      	strh	r2, [r3, #54]	@ 0x36
 800789a:	68fb      	ldr	r3, [r7, #12]
 800789c:	2200      	movs	r2, #0
 800789e:	641a      	str	r2, [r3, #64]	@ 0x40
 80078a0:	68fb      	ldr	r3, [r7, #12]
 80078a2:	2200      	movs	r2, #0
 80078a4:	645a      	str	r2, [r3, #68]	@ 0x44
 80078a6:	68fb      	ldr	r3, [r7, #12]
 80078a8:	689b      	ldr	r3, [r3, #8]
 80078aa:	f5b3 4f00 	cmp.w	r3, #32768	@ 0x8000
 80078ae:	d10f      	bne.n	80078d0 <HAL_SPI_Receive+0xe4>
 80078b0:	68fb      	ldr	r3, [r7, #12]
 80078b2:	681b      	ldr	r3, [r3, #0]
 80078b4:	681a      	ldr	r2, [r3, #0]
 80078b6:	68fb      	ldr	r3, [r7, #12]
 80078b8:	681b      	ldr	r3, [r3, #0]
 80078ba:	f022 0240 	bic.w	r2, r2, #64	@ 0x40
 80078be:	601a      	str	r2, [r3, #0]
 80078c0:	68fb      	ldr	r3, [r7, #12]
 80078c2:	681b      	ldr	r3, [r3, #0]
 80078c4:	681a      	ldr	r2, [r3, #0]
 80078c6:	68fb      	ldr	r3, [r7, #12]
 80078c8:	681b      	ldr	r3, [r3, #0]
 80078ca:	f422 4280 	bic.w	r2, r2, #16384	@ 0x4000
 80078ce:	601a      	str	r2, [r3, #0]
 80078d0:	68fb      	ldr	r3, [r7, #12]
 80078d2:	681b      	ldr	r3, [r3, #0]
 80078d4:	681b      	ldr	r3, [r3, #0]
 80078d6:	f003 0340 	and.w	r3, r3, #64	@ 0x40
 80078da:	2b40      	cmp	r3, #64	@ 0x40
 80078dc:	d007      	beq.n	80078ee <HAL_SPI_Receive+0x102>
 80078de:	68fb      	ldr	r3, [r7, #12]
 80078e0:	681b      	ldr	r3, [r3, #0]
 80078e2:	681a      	ldr	r2, [r3, #0]
 80078e4:	68fb      	ldr	r3, [r7, #12]
 80078e6:	681b      	ldr	r3, [r3, #0]
 80078e8:	f042 0240 	orr.w	r2, r2, #64	@ 0x40
 80078ec:	601a      	str	r2, [r3, #0]
 80078ee:	68fb      	ldr	r3, [r7, #12]
 80078f0:	68db      	ldr	r3, [r3, #12]
 80078f2:	2b00      	cmp	r3, #0
 80078f4:	d170      	bne.n	80079d8 <HAL_SPI_Receive+0x1ec>
 80078f6:	e035      	b.n	8007964 <HAL_SPI_Receive+0x178>
 80078f8:	68fb      	ldr	r3, [r7, #12]
 80078fa:	681b      	ldr	r3, [r3, #0]
 80078fc:	689b      	ldr	r3, [r3, #8]
 80078fe:	f003 0301 	and.w	r3, r3, #1
 8007902:	2b01      	cmp	r3, #1
 8007904:	d115      	bne.n	8007932 <HAL_SPI_Receive+0x146>
 8007906:	68fb      	ldr	r3, [r7, #12]
 8007908:	681b      	ldr	r3, [r3, #0]
 800790a:	f103 020c 	add.w	r2, r3, #12
 800790e:	68fb      	ldr	r3, [r7, #12]
 8007910:	6b9b      	ldr	r3, [r3, #56]	@ 0x38
 8007912:	7812      	ldrb	r2, [r2, #0]
 8007914:	b2d2      	uxtb	r2, r2
 8007916:	701a      	strb	r2, [r3, #0]
 8007918:	68fb      	ldr	r3, [r7, #12]
 800791a:	6b9b      	ldr	r3, [r3, #56]	@ 0x38
 800791c:	1c5a      	adds	r2, r3, #1
 800791e:	68fb      	ldr	r3, [r7, #12]
 8007920:	639a      	str	r2, [r3, #56]	@ 0x38
 8007922:	68fb      	ldr	r3, [r7, #12]
 8007924:	8fdb      	ldrh	r3, [r3, #62]	@ 0x3e
 8007926:	b29b      	uxth	r3, r3
 8007928:	3b01      	subs	r3, #1
 800792a:	b29a      	uxth	r2, r3
 800792c:	68fb      	ldr	r3, [r7, #12]
 800792e:	87da      	strh	r2, [r3, #62]	@ 0x3e
 8007930:	e018      	b.n	8007964 <HAL_SPI_Receive+0x178>
 8007932:	f7fd fa7b 	bl	8004e2c <HAL_GetTick>
 8007936:	4602      	mov	r2, r0
 8007938:	697b      	ldr	r3, [r7, #20]
 800793a:	1ad3      	subs	r3, r2, r3
 800793c:	683a      	ldr	r2, [r7, #0]
 800793e:	429a      	cmp	r2, r3
 8007940:	d803      	bhi.n	800794a <HAL_SPI_Receive+0x15e>
 8007942:	683b      	ldr	r3, [r7, #0]
 8007944:	f1b3 3fff 	cmp.w	r3, #4294967295
 8007948:	d102      	bne.n	8007950 <HAL_SPI_Receive+0x164>
 800794a:	683b      	ldr	r3, [r7, #0]
 800794c:	2b00      	cmp	r3, #0
 800794e:	d109      	bne.n	8007964 <HAL_SPI_Receive+0x178>
 8007950:	68fb      	ldr	r3, [r7, #12]
 8007952:	2201      	movs	r2, #1
 8007954:	f883 2051 	strb.w	r2, [r3, #81]	@ 0x51
 8007958:	68fb      	ldr	r3, [r7, #12]
 800795a:	2200      	movs	r2, #0
 800795c:	f883 2050 	strb.w	r2, [r3, #80]	@ 0x50
 8007960:	2303      	movs	r3, #3
 8007962:	e058      	b.n	8007a16 <HAL_SPI_Receive+0x22a>
 8007964:	68fb      	ldr	r3, [r7, #12]
 8007966:	8fdb      	ldrh	r3, [r3, #62]	@ 0x3e
 8007968:	b29b      	uxth	r3, r3
 800796a:	2b00      	cmp	r3, #0
 800796c:	d1c4      	bne.n	80078f8 <HAL_SPI_Receive+0x10c>
 800796e:	e038      	b.n	80079e2 <HAL_SPI_Receive+0x1f6>
 8007970:	68fb      	ldr	r3, [r7, #12]
 8007972:	681b      	ldr	r3, [r3, #0]
 8007974:	689b      	ldr	r3, [r3, #8]
 8007976:	f003 0301 	and.w	r3, r3, #1
 800797a:	2b01      	cmp	r3, #1
 800797c:	d113      	bne.n	80079a6 <HAL_SPI_Receive+0x1ba>
 800797e:	68fb      	ldr	r3, [r7, #12]
 8007980:	681b      	ldr	r3, [r3, #0]
 8007982:	68da      	ldr	r2, [r3, #12]
 8007984:	68fb      	ldr	r3, [r7, #12]
 8007986:	6b9b      	ldr	r3, [r3, #56]	@ 0x38
 8007988:	b292      	uxth	r2, r2
 800798a:	801a      	strh	r2, [r3, #0]
 800798c:	68fb      	ldr	r3, [r7, #12]
 800798e:	6b9b      	ldr	r3, [r3, #56]	@ 0x38
 8007990:	1c9a      	adds	r2, r3, #2
 8007992:	68fb      	ldr	r3, [r7, #12]
 8007994:	639a      	str	r2, [r3, #56]	@ 0x38
 8007996:	68fb      	ldr	r3, [r7, #12]
 8007998:	8fdb      	ldrh	r3, [r3, #62]	@ 0x3e
 800799a:	b29b      	uxth	r3, r3
 800799c:	3b01      	subs	r3, #1
 800799e:	b29a      	uxth	r2, r3
 80079a0:	68fb      	ldr	r3, [r7, #12]
 80079a2:	87da      	strh	r2, [r3, #62]	@ 0x3e
 80079a4:	e018      	b.n	80079d8 <HAL_SPI_Receive+0x1ec>
 80079a6:	f7fd fa41 	bl	8004e2c <HAL_GetTick>
 80079aa:	4602      	mov	r2, r0
 80079ac:	697b      	ldr	r3, [r7, #20]
 80079ae:	1ad3      	subs	r3, r2, r3
 80079b0:	683a      	ldr	r2, [r7, #0]
 80079b2:	429a      	cmp	r2, r3
 80079b4:	d803      	bhi.n	80079be <HAL_SPI_Receive+0x1d2>
 80079b6:	683b      	ldr	r3, [r7, #0]
 80079b8:	f1b3 3fff 	cmp.w	r3, #4294967295
 80079bc:	d102      	bne.n	80079c4 <HAL_SPI_Receive+0x1d8>
 80079be:	683b      	ldr	r3, [r7, #0]
 80079c0:	2b00      	cmp	r3, #0
 80079c2:	d109      	bne.n	80079d8 <HAL_SPI_Receive+0x1ec>
 80079c4:	68fb      	ldr	r3, [r7, #12]
 80079c6:	2201      	movs	r2, #1
 80079c8:	f883 2051 	strb.w	r2, [r3, #81]	@ 0x51
 80079cc:	68fb      	ldr	r3, [r7, #12]
 80079ce:	2200      	movs	r2, #0
 80079d0:	f883 2050 	strb.w	r2, [r3, #80]	@ 0x50
 80079d4:	2303      	movs	r3, #3
 80079d6:	e01e      	b.n	8007a16 <HAL_SPI_Receive+0x22a>
 80079d8:	68fb      	ldr	r3, [r7, #12]
 80079da:	8fdb      	ldrh	r3, [r3, #62]	@ 0x3e
 80079dc:	b29b      	uxth	r3, r3
 80079de:	2b00      	cmp	r3, #0
 80079e0:	d1c6      	bne.n	8007970 <HAL_SPI_Receive+0x184>
 80079e2:	697a      	ldr	r2, [r7, #20]
 80079e4:	6839      	ldr	r1, [r7, #0]
 80079e6:	68f8      	ldr	r0, [r7, #12]
 80079e8:	f000 fa4a 	bl	8007e80 <SPI_EndRxTransaction>
 80079ec:	4603      	mov	r3, r0
 80079ee:	2b00      	cmp	r3, #0
 80079f0:	d002      	beq.n	80079f8 <HAL_SPI_Receive+0x20c>
 80079f2:	68fb      	ldr	r3, [r7, #12]
 80079f4:	2220      	movs	r2, #32
 80079f6:	655a      	str	r2, [r3, #84]	@ 0x54
 80079f8:	68fb      	ldr	r3, [r7, #12]
 80079fa:	2201      	movs	r2, #1
 80079fc:	f883 2051 	strb.w	r2, [r3, #81]	@ 0x51
 8007a00:	68fb      	ldr	r3, [r7, #12]
 8007a02:	2200      	movs	r2, #0
 8007a04:	f883 2050 	strb.w	r2, [r3, #80]	@ 0x50
 8007a08:	68fb      	ldr	r3, [r7, #12]
 8007a0a:	6d5b      	ldr	r3, [r3, #84]	@ 0x54
 8007a0c:	2b00      	cmp	r3, #0
 8007a0e:	d001      	beq.n	8007a14 <HAL_SPI_Receive+0x228>
 8007a10:	2301      	movs	r3, #1
 8007a12:	e000      	b.n	8007a16 <HAL_SPI_Receive+0x22a>
 8007a14:	2300      	movs	r3, #0
 8007a16:	4618      	mov	r0, r3
 8007a18:	3718      	adds	r7, #24
 8007a1a:	46bd      	mov	sp, r7
 8007a1c:	bd80      	pop	{r7, pc}

08007a1e <HAL_SPI_TransmitReceive>:
 8007a1e:	b580      	push	{r7, lr}
 8007a20:	b08a      	sub	sp, #40	@ 0x28
 8007a22:	af00      	add	r7, sp, #0
 8007a24:	60f8      	str	r0, [r7, #12]
 8007a26:	60b9      	str	r1, [r7, #8]
 8007a28:	607a      	str	r2, [r7, #4]
 8007a2a:	807b      	strh	r3, [r7, #2]
 8007a2c:	2301      	movs	r3, #1
 8007a2e:	627b      	str	r3, [r7, #36]	@ 0x24
 8007a30:	f7fd f9fc 	bl	8004e2c <HAL_GetTick>
 8007a34:	6238      	str	r0, [r7, #32]
 8007a36:	68fb      	ldr	r3, [r7, #12]
 8007a38:	f893 3051 	ldrb.w	r3, [r3, #81]	@ 0x51
 8007a3c:	77fb      	strb	r3, [r7, #31]
 8007a3e:	68fb      	ldr	r3, [r7, #12]
 8007a40:	685b      	ldr	r3, [r3, #4]
 8007a42:	61bb      	str	r3, [r7, #24]
 8007a44:	887b      	ldrh	r3, [r7, #2]
 8007a46:	82fb      	strh	r3, [r7, #22]
 8007a48:	7ffb      	ldrb	r3, [r7, #31]
 8007a4a:	2b01      	cmp	r3, #1
 8007a4c:	d00c      	beq.n	8007a68 <HAL_SPI_TransmitReceive+0x4a>
 8007a4e:	69bb      	ldr	r3, [r7, #24]
 8007a50:	f5b3 7f82 	cmp.w	r3, #260	@ 0x104
 8007a54:	d106      	bne.n	8007a64 <HAL_SPI_TransmitReceive+0x46>
 8007a56:	68fb      	ldr	r3, [r7, #12]
 8007a58:	689b      	ldr	r3, [r3, #8]
 8007a5a:	2b00      	cmp	r3, #0
 8007a5c:	d102      	bne.n	8007a64 <HAL_SPI_TransmitReceive+0x46>
 8007a5e:	7ffb      	ldrb	r3, [r7, #31]
 8007a60:	2b04      	cmp	r3, #4
 8007a62:	d001      	beq.n	8007a68 <HAL_SPI_TransmitReceive+0x4a>
 8007a64:	2302      	movs	r3, #2
 8007a66:	e17f      	b.n	8007d68 <HAL_SPI_TransmitReceive+0x34a>
 8007a68:	68bb      	ldr	r3, [r7, #8]
 8007a6a:	2b00      	cmp	r3, #0
 8007a6c:	d005      	beq.n	8007a7a <HAL_SPI_TransmitReceive+0x5c>
 8007a6e:	687b      	ldr	r3, [r7, #4]
 8007a70:	2b00      	cmp	r3, #0
 8007a72:	d002      	beq.n	8007a7a <HAL_SPI_TransmitReceive+0x5c>
 8007a74:	887b      	ldrh	r3, [r7, #2]
 8007a76:	2b00      	cmp	r3, #0
 8007a78:	d101      	bne.n	8007a7e <HAL_SPI_TransmitReceive+0x60>
 8007a7a:	2301      	movs	r3, #1
 8007a7c:	e174      	b.n	8007d68 <HAL_SPI_TransmitReceive+0x34a>
 8007a7e:	68fb      	ldr	r3, [r7, #12]
 8007a80:	f893 3050 	ldrb.w	r3, [r3, #80]	@ 0x50
 8007a84:	2b01      	cmp	r3, #1
 8007a86:	d101      	bne.n	8007a8c <HAL_SPI_TransmitReceive+0x6e>
 8007a88:	2302      	movs	r3, #2
 8007a8a:	e16d      	b.n	8007d68 <HAL_SPI_TransmitReceive+0x34a>
 8007a8c:	68fb      	ldr	r3, [r7, #12]
 8007a8e:	2201      	movs	r2, #1
 8007a90:	f883 2050 	strb.w	r2, [r3, #80]	@ 0x50
 8007a94:	68fb      	ldr	r3, [r7, #12]
 8007a96:	f893 3051 	ldrb.w	r3, [r3, #81]	@ 0x51
 8007a9a:	b2db      	uxtb	r3, r3
 8007a9c:	2b04      	cmp	r3, #4
 8007a9e:	d003      	beq.n	8007aa8 <HAL_SPI_TransmitReceive+0x8a>
 8007aa0:	68fb      	ldr	r3, [r7, #12]
 8007aa2:	2205      	movs	r2, #5
 8007aa4:	f883 2051 	strb.w	r2, [r3, #81]	@ 0x51
 8007aa8:	68fb      	ldr	r3, [r7, #12]
 8007aaa:	2200      	movs	r2, #0
 8007aac:	655a      	str	r2, [r3, #84]	@ 0x54
 8007aae:	68fb      	ldr	r3, [r7, #12]
 8007ab0:	687a      	ldr	r2, [r7, #4]
 8007ab2:	639a      	str	r2, [r3, #56]	@ 0x38
 8007ab4:	68fb      	ldr	r3, [r7, #12]
 8007ab6:	887a      	ldrh	r2, [r7, #2]
 8007ab8:	87da      	strh	r2, [r3, #62]	@ 0x3e
 8007aba:	68fb      	ldr	r3, [r7, #12]
 8007abc:	887a      	ldrh	r2, [r7, #2]
 8007abe:	879a      	strh	r2, [r3, #60]	@ 0x3c
 8007ac0:	68fb      	ldr	r3, [r7, #12]
 8007ac2:	68ba      	ldr	r2, [r7, #8]
 8007ac4:	631a      	str	r2, [r3, #48]	@ 0x30
 8007ac6:	68fb      	ldr	r3, [r7, #12]
 8007ac8:	887a      	ldrh	r2, [r7, #2]
 8007aca:	86da      	strh	r2, [r3, #54]	@ 0x36
 8007acc:	68fb      	ldr	r3, [r7, #12]
 8007ace:	887a      	ldrh	r2, [r7, #2]
 8007ad0:	869a      	strh	r2, [r3, #52]	@ 0x34
 8007ad2:	68fb      	ldr	r3, [r7, #12]
 8007ad4:	2200      	movs	r2, #0
 8007ad6:	641a      	str	r2, [r3, #64]	@ 0x40
 8007ad8:	68fb      	ldr	r3, [r7, #12]
 8007ada:	2200      	movs	r2, #0
 8007adc:	645a      	str	r2, [r3, #68]	@ 0x44
 8007ade:	68fb      	ldr	r3, [r7, #12]
 8007ae0:	681b      	ldr	r3, [r3, #0]
 8007ae2:	681b      	ldr	r3, [r3, #0]
 8007ae4:	f003 0340 	and.w	r3, r3, #64	@ 0x40
 8007ae8:	2b40      	cmp	r3, #64	@ 0x40
 8007aea:	d007      	beq.n	8007afc <HAL_SPI_TransmitReceive+0xde>
 8007aec:	68fb      	ldr	r3, [r7, #12]
 8007aee:	681b      	ldr	r3, [r3, #0]
 8007af0:	681a      	ldr	r2, [r3, #0]
 8007af2:	68fb      	ldr	r3, [r7, #12]
 8007af4:	681b      	ldr	r3, [r3, #0]
 8007af6:	f042 0240 	orr.w	r2, r2, #64	@ 0x40
 8007afa:	601a      	str	r2, [r3, #0]
 8007afc:	68fb      	ldr	r3, [r7, #12]
 8007afe:	68db      	ldr	r3, [r3, #12]
 8007b00:	f5b3 6f00 	cmp.w	r3, #2048	@ 0x800
 8007b04:	d17e      	bne.n	8007c04 <HAL_SPI_TransmitReceive+0x1e6>
 8007b06:	68fb      	ldr	r3, [r7, #12]
 8007b08:	685b      	ldr	r3, [r3, #4]
 8007b0a:	2b00      	cmp	r3, #0
 8007b0c:	d002      	beq.n	8007b14 <HAL_SPI_TransmitReceive+0xf6>
 8007b0e:	8afb      	ldrh	r3, [r7, #22]
 8007b10:	2b01      	cmp	r3, #1
 8007b12:	d16c      	bne.n	8007bee <HAL_SPI_TransmitReceive+0x1d0>
 8007b14:	68fb      	ldr	r3, [r7, #12]
 8007b16:	6b1b      	ldr	r3, [r3, #48]	@ 0x30
 8007b18:	881a      	ldrh	r2, [r3, #0]
 8007b1a:	68fb      	ldr	r3, [r7, #12]
 8007b1c:	681b      	ldr	r3, [r3, #0]
 8007b1e:	60da      	str	r2, [r3, #12]
 8007b20:	68fb      	ldr	r3, [r7, #12]
 8007b22:	6b1b      	ldr	r3, [r3, #48]	@ 0x30
 8007b24:	1c9a      	adds	r2, r3, #2
 8007b26:	68fb      	ldr	r3, [r7, #12]
 8007b28:	631a      	str	r2, [r3, #48]	@ 0x30
 8007b2a:	68fb      	ldr	r3, [r7, #12]
 8007b2c:	8edb      	ldrh	r3, [r3, #54]	@ 0x36
 8007b2e:	b29b      	uxth	r3, r3
 8007b30:	3b01      	subs	r3, #1
 8007b32:	b29a      	uxth	r2, r3
 8007b34:	68fb      	ldr	r3, [r7, #12]
 8007b36:	86da      	strh	r2, [r3, #54]	@ 0x36
 8007b38:	e059      	b.n	8007bee <HAL_SPI_TransmitReceive+0x1d0>
 8007b3a:	68fb      	ldr	r3, [r7, #12]
 8007b3c:	681b      	ldr	r3, [r3, #0]
 8007b3e:	689b      	ldr	r3, [r3, #8]
 8007b40:	f003 0302 	and.w	r3, r3, #2
 8007b44:	2b02      	cmp	r3, #2
 8007b46:	d11b      	bne.n	8007b80 <HAL_SPI_TransmitReceive+0x162>
 8007b48:	68fb      	ldr	r3, [r7, #12]
 8007b4a:	8edb      	ldrh	r3, [r3, #54]	@ 0x36
 8007b4c:	b29b      	uxth	r3, r3
 8007b4e:	2b00      	cmp	r3, #0
 8007b50:	d016      	beq.n	8007b80 <HAL_SPI_TransmitReceive+0x162>
 8007b52:	6a7b      	ldr	r3, [r7, #36]	@ 0x24
 8007b54:	2b01      	cmp	r3, #1
 8007b56:	d113      	bne.n	8007b80 <HAL_SPI_TransmitReceive+0x162>
 8007b58:	68fb      	ldr	r3, [r7, #12]
 8007b5a:	6b1b      	ldr	r3, [r3, #48]	@ 0x30
 8007b5c:	881a      	ldrh	r2, [r3, #0]
 8007b5e:	68fb      	ldr	r3, [r7, #12]
 8007b60:	681b      	ldr	r3, [r3, #0]
 8007b62:	60da      	str	r2, [r3, #12]
 8007b64:	68fb      	ldr	r3, [r7, #12]
 8007b66:	6b1b      	ldr	r3, [r3, #48]	@ 0x30
 8007b68:	1c9a      	adds	r2, r3, #2
 8007b6a:	68fb      	ldr	r3, [r7, #12]
 8007b6c:	631a      	str	r2, [r3, #48]	@ 0x30
 8007b6e:	68fb      	ldr	r3, [r7, #12]
 8007b70:	8edb      	ldrh	r3, [r3, #54]	@ 0x36
 8007b72:	b29b      	uxth	r3, r3
 8007b74:	3b01      	subs	r3, #1
 8007b76:	b29a      	uxth	r2, r3
 8007b78:	68fb      	ldr	r3, [r7, #12]
 8007b7a:	86da      	strh	r2, [r3, #54]	@ 0x36
 8007b7c:	2300      	movs	r3, #0
 8007b7e:	627b      	str	r3, [r7, #36]	@ 0x24
 8007b80:	68fb      	ldr	r3, [r7, #12]
 8007b82:	681b      	ldr	r3, [r3, #0]
 8007b84:	689b      	ldr	r3, [r3, #8]
 8007b86:	f003 0301 	and.w	r3, r3, #1
 8007b8a:	2b01      	cmp	r3, #1
 8007b8c:	d119      	bne.n	8007bc2 <HAL_SPI_TransmitReceive+0x1a4>
 8007b8e:	68fb      	ldr	r3, [r7, #12]
 8007b90:	8fdb      	ldrh	r3, [r3, #62]	@ 0x3e
 8007b92:	b29b      	uxth	r3, r3
 8007b94:	2b00      	cmp	r3, #0
 8007b96:	d014      	beq.n	8007bc2 <HAL_SPI_TransmitReceive+0x1a4>
 8007b98:	68fb      	ldr	r3, [r7, #12]
 8007b9a:	681b      	ldr	r3, [r3, #0]
 8007b9c:	68da      	ldr	r2, [r3, #12]
 8007b9e:	68fb      	ldr	r3, [r7, #12]
 8007ba0:	6b9b      	ldr	r3, [r3, #56]	@ 0x38
 8007ba2:	b292      	uxth	r2, r2
 8007ba4:	801a      	strh	r2, [r3, #0]
 8007ba6:	68fb      	ldr	r3, [r7, #12]
 8007ba8:	6b9b      	ldr	r3, [r3, #56]	@ 0x38
 8007baa:	1c9a      	adds	r2, r3, #2
 8007bac:	68fb      	ldr	r3, [r7, #12]
 8007bae:	639a      	str	r2, [r3, #56]	@ 0x38
 8007bb0:	68fb      	ldr	r3, [r7, #12]
 8007bb2:	8fdb      	ldrh	r3, [r3, #62]	@ 0x3e
 8007bb4:	b29b      	uxth	r3, r3
 8007bb6:	3b01      	subs	r3, #1
 8007bb8:	b29a      	uxth	r2, r3
 8007bba:	68fb      	ldr	r3, [r7, #12]
 8007bbc:	87da      	strh	r2, [r3, #62]	@ 0x3e
 8007bbe:	2301      	movs	r3, #1
 8007bc0:	627b      	str	r3, [r7, #36]	@ 0x24
 8007bc2:	f7fd f933 	bl	8004e2c <HAL_GetTick>
 8007bc6:	4602      	mov	r2, r0
 8007bc8:	6a3b      	ldr	r3, [r7, #32]
 8007bca:	1ad3      	subs	r3, r2, r3
 8007bcc:	6b3a      	ldr	r2, [r7, #48]	@ 0x30
 8007bce:	429a      	cmp	r2, r3
 8007bd0:	d80d      	bhi.n	8007bee <HAL_SPI_TransmitReceive+0x1d0>
 8007bd2:	6b3b      	ldr	r3, [r7, #48]	@ 0x30
 8007bd4:	f1b3 3fff 	cmp.w	r3, #4294967295
 8007bd8:	d009      	beq.n	8007bee <HAL_SPI_TransmitReceive+0x1d0>
 8007bda:	68fb      	ldr	r3, [r7, #12]
 8007bdc:	2201      	movs	r2, #1
 8007bde:	f883 2051 	strb.w	r2, [r3, #81]	@ 0x51
 8007be2:	68fb      	ldr	r3, [r7, #12]
 8007be4:	2200      	movs	r2, #0
 8007be6:	f883 2050 	strb.w	r2, [r3, #80]	@ 0x50
 8007bea:	2303      	movs	r3, #3
 8007bec:	e0bc      	b.n	8007d68 <HAL_SPI_TransmitReceive+0x34a>
 8007bee:	68fb      	ldr	r3, [r7, #12]
 8007bf0:	8edb      	ldrh	r3, [r3, #54]	@ 0x36
 8007bf2:	b29b      	uxth	r3, r3
 8007bf4:	2b00      	cmp	r3, #0
 8007bf6:	d1a0      	bne.n	8007b3a <HAL_SPI_TransmitReceive+0x11c>
 8007bf8:	68fb      	ldr	r3, [r7, #12]
 8007bfa:	8fdb      	ldrh	r3, [r3, #62]	@ 0x3e
 8007bfc:	b29b      	uxth	r3, r3
 8007bfe:	2b00      	cmp	r3, #0
 8007c00:	d19b      	bne.n	8007b3a <HAL_SPI_TransmitReceive+0x11c>
 8007c02:	e082      	b.n	8007d0a <HAL_SPI_TransmitReceive+0x2ec>
 8007c04:	68fb      	ldr	r3, [r7, #12]
 8007c06:	685b      	ldr	r3, [r3, #4]
 8007c08:	2b00      	cmp	r3, #0
 8007c0a:	d002      	beq.n	8007c12 <HAL_SPI_TransmitReceive+0x1f4>
 8007c0c:	8afb      	ldrh	r3, [r7, #22]
 8007c0e:	2b01      	cmp	r3, #1
 8007c10:	d171      	bne.n	8007cf6 <HAL_SPI_TransmitReceive+0x2d8>
 8007c12:	68fb      	ldr	r3, [r7, #12]
 8007c14:	6b1a      	ldr	r2, [r3, #48]	@ 0x30
 8007c16:	68fb      	ldr	r3, [r7, #12]
 8007c18:	681b      	ldr	r3, [r3, #0]
 8007c1a:	330c      	adds	r3, #12
 8007c1c:	7812      	ldrb	r2, [r2, #0]
 8007c1e:	701a      	strb	r2, [r3, #0]
 8007c20:	68fb      	ldr	r3, [r7, #12]
 8007c22:	6b1b      	ldr	r3, [r3, #48]	@ 0x30
 8007c24:	1c5a      	adds	r2, r3, #1
 8007c26:	68fb      	ldr	r3, [r7, #12]
 8007c28:	631a      	str	r2, [r3, #48]	@ 0x30
 8007c2a:	68fb      	ldr	r3, [r7, #12]
 8007c2c:	8edb      	ldrh	r3, [r3, #54]	@ 0x36
 8007c2e:	b29b      	uxth	r3, r3
 8007c30:	3b01      	subs	r3, #1
 8007c32:	b29a      	uxth	r2, r3
 8007c34:	68fb      	ldr	r3, [r7, #12]
 8007c36:	86da      	strh	r2, [r3, #54]	@ 0x36
 8007c38:	e05d      	b.n	8007cf6 <HAL_SPI_TransmitReceive+0x2d8>
 8007c3a:	68fb      	ldr	r3, [r7, #12]
 8007c3c:	681b      	ldr	r3, [r3, #0]
 8007c3e:	689b      	ldr	r3, [r3, #8]
 8007c40:	f003 0302 	and.w	r3, r3, #2
 8007c44:	2b02      	cmp	r3, #2
 8007c46:	d11c      	bne.n	8007c82 <HAL_SPI_TransmitReceive+0x264>
 8007c48:	68fb      	ldr	r3, [r7, #12]
 8007c4a:	8edb      	ldrh	r3, [r3, #54]	@ 0x36
 8007c4c:	b29b      	uxth	r3, r3
 8007c4e:	2b00      	cmp	r3, #0
 8007c50:	d017      	beq.n	8007c82 <HAL_SPI_TransmitReceive+0x264>
 8007c52:	6a7b      	ldr	r3, [r7, #36]	@ 0x24
 8007c54:	2b01      	cmp	r3, #1
 8007c56:	d114      	bne.n	8007c82 <HAL_SPI_TransmitReceive+0x264>
 8007c58:	68fb      	ldr	r3, [r7, #12]
 8007c5a:	6b1a      	ldr	r2, [r3, #48]	@ 0x30
 8007c5c:	68fb      	ldr	r3, [r7, #12]
 8007c5e:	681b      	ldr	r3, [r3, #0]
 8007c60:	330c      	adds	r3, #12
 8007c62:	7812      	ldrb	r2, [r2, #0]
 8007c64:	701a      	strb	r2, [r3, #0]
 8007c66:	68fb      	ldr	r3, [r7, #12]
 8007c68:	6b1b      	ldr	r3, [r3, #48]	@ 0x30
 8007c6a:	1c5a      	adds	r2, r3, #1
 8007c6c:	68fb      	ldr	r3, [r7, #12]
 8007c6e:	631a      	str	r2, [r3, #48]	@ 0x30
 8007c70:	68fb      	ldr	r3, [r7, #12]
 8007c72:	8edb      	ldrh	r3, [r3, #54]	@ 0x36
 8007c74:	b29b      	uxth	r3, r3
 8007c76:	3b01      	subs	r3, #1
 8007c78:	b29a      	uxth	r2, r3
 8007c7a:	68fb      	ldr	r3, [r7, #12]
 8007c7c:	86da      	strh	r2, [r3, #54]	@ 0x36
 8007c7e:	2300      	movs	r3, #0
 8007c80:	627b      	str	r3, [r7, #36]	@ 0x24
 8007c82:	68fb      	ldr	r3, [r7, #12]
 8007c84:	681b      	ldr	r3, [r3, #0]
 8007c86:	689b      	ldr	r3, [r3, #8]
 8007c88:	f003 0301 	and.w	r3, r3, #1
 8007c8c:	2b01      	cmp	r3, #1
 8007c8e:	d119      	bne.n	8007cc4 <HAL_SPI_TransmitReceive+0x2a6>
 8007c90:	68fb      	ldr	r3, [r7, #12]
 8007c92:	8fdb      	ldrh	r3, [r3, #62]	@ 0x3e
 8007c94:	b29b      	uxth	r3, r3
 8007c96:	2b00      	cmp	r3, #0
 8007c98:	d014      	beq.n	8007cc4 <HAL_SPI_TransmitReceive+0x2a6>
 8007c9a:	68fb      	ldr	r3, [r7, #12]
 8007c9c:	681b      	ldr	r3, [r3, #0]
 8007c9e:	68da      	ldr	r2, [r3, #12]
 8007ca0:	68fb      	ldr	r3, [r7, #12]
 8007ca2:	6b9b      	ldr	r3, [r3, #56]	@ 0x38
 8007ca4:	b2d2      	uxtb	r2, r2
 8007ca6:	701a      	strb	r2, [r3, #0]
 8007ca8:	68fb      	ldr	r3, [r7, #12]
 8007caa:	6b9b      	ldr	r3, [r3, #56]	@ 0x38
 8007cac:	1c5a      	adds	r2, r3, #1
 8007cae:	68fb      	ldr	r3, [r7, #12]
 8007cb0:	639a      	str	r2, [r3, #56]	@ 0x38
 8007cb2:	68fb      	ldr	r3, [r7, #12]
 8007cb4:	8fdb      	ldrh	r3, [r3, #62]	@ 0x3e
 8007cb6:	b29b      	uxth	r3, r3
 8007cb8:	3b01      	subs	r3, #1
 8007cba:	b29a      	uxth	r2, r3
 8007cbc:	68fb      	ldr	r3, [r7, #12]
 8007cbe:	87da      	strh	r2, [r3, #62]	@ 0x3e
 8007cc0:	2301      	movs	r3, #1
 8007cc2:	627b      	str	r3, [r7, #36]	@ 0x24
 8007cc4:	f7fd f8b2 	bl	8004e2c <HAL_GetTick>
 8007cc8:	4602      	mov	r2, r0
 8007cca:	6a3b      	ldr	r3, [r7, #32]
 8007ccc:	1ad3      	subs	r3, r2, r3
 8007cce:	6b3a      	ldr	r2, [r7, #48]	@ 0x30
 8007cd0:	429a      	cmp	r2, r3
 8007cd2:	d803      	bhi.n	8007cdc <HAL_SPI_TransmitReceive+0x2be>
 8007cd4:	6b3b      	ldr	r3, [r7, #48]	@ 0x30
 8007cd6:	f1b3 3fff 	cmp.w	r3, #4294967295
 8007cda:	d102      	bne.n	8007ce2 <HAL_SPI_TransmitReceive+0x2c4>
 8007cdc:	6b3b      	ldr	r3, [r7, #48]	@ 0x30
 8007cde:	2b00      	cmp	r3, #0
 8007ce0:	d109      	bne.n	8007cf6 <HAL_SPI_TransmitReceive+0x2d8>
 8007ce2:	68fb      	ldr	r3, [r7, #12]
 8007ce4:	2201      	movs	r2, #1
 8007ce6:	f883 2051 	strb.w	r2, [r3, #81]	@ 0x51
 8007cea:	68fb      	ldr	r3, [r7, #12]
 8007cec:	2200      	movs	r2, #0
 8007cee:	f883 2050 	strb.w	r2, [r3, #80]	@ 0x50
 8007cf2:	2303      	movs	r3, #3
 8007cf4:	e038      	b.n	8007d68 <HAL_SPI_TransmitReceive+0x34a>
 8007cf6:	68fb      	ldr	r3, [r7, #12]
 8007cf8:	8edb      	ldrh	r3, [r3, #54]	@ 0x36
 8007cfa:	b29b      	uxth	r3, r3
 8007cfc:	2b00      	cmp	r3, #0
 8007cfe:	d19c      	bne.n	8007c3a <HAL_SPI_TransmitReceive+0x21c>
 8007d00:	68fb      	ldr	r3, [r7, #12]
 8007d02:	8fdb      	ldrh	r3, [r3, #62]	@ 0x3e
 8007d04:	b29b      	uxth	r3, r3
 8007d06:	2b00      	cmp	r3, #0
 8007d08:	d197      	bne.n	8007c3a <HAL_SPI_TransmitReceive+0x21c>
 8007d0a:	6a3a      	ldr	r2, [r7, #32]
 8007d0c:	6b39      	ldr	r1, [r7, #48]	@ 0x30
 8007d0e:	68f8      	ldr	r0, [r7, #12]
 8007d10:	f000 f908 	bl	8007f24 <SPI_EndRxTxTransaction>
 8007d14:	4603      	mov	r3, r0
 8007d16:	2b00      	cmp	r3, #0
 8007d18:	d008      	beq.n	8007d2c <HAL_SPI_TransmitReceive+0x30e>
 8007d1a:	68fb      	ldr	r3, [r7, #12]
 8007d1c:	2220      	movs	r2, #32
 8007d1e:	655a      	str	r2, [r3, #84]	@ 0x54
 8007d20:	68fb      	ldr	r3, [r7, #12]
 8007d22:	2200      	movs	r2, #0
 8007d24:	f883 2050 	strb.w	r2, [r3, #80]	@ 0x50
 8007d28:	2301      	movs	r3, #1
 8007d2a:	e01d      	b.n	8007d68 <HAL_SPI_TransmitReceive+0x34a>
 8007d2c:	68fb      	ldr	r3, [r7, #12]
 8007d2e:	689b      	ldr	r3, [r3, #8]
 8007d30:	2b00      	cmp	r3, #0
 8007d32:	d10a      	bne.n	8007d4a <HAL_SPI_TransmitReceive+0x32c>
 8007d34:	2300      	movs	r3, #0
 8007d36:	613b      	str	r3, [r7, #16]
 8007d38:	68fb      	ldr	r3, [r7, #12]
 8007d3a:	681b      	ldr	r3, [r3, #0]
 8007d3c:	68db      	ldr	r3, [r3, #12]
 8007d3e:	613b      	str	r3, [r7, #16]
 8007d40:	68fb      	ldr	r3, [r7, #12]
 8007d42:	681b      	ldr	r3, [r3, #0]
 8007d44:	689b      	ldr	r3, [r3, #8]
 8007d46:	613b      	str	r3, [r7, #16]
 8007d48:	693b      	ldr	r3, [r7, #16]
 8007d4a:	68fb      	ldr	r3, [r7, #12]
 8007d4c:	2201      	movs	r2, #1
 8007d4e:	f883 2051 	strb.w	r2, [r3, #81]	@ 0x51
 8007d52:	68fb      	ldr	r3, [r7, #12]
 8007d54:	2200      	movs	r2, #0
 8007d56:	f883 2050 	strb.w	r2, [r3, #80]	@ 0x50
 8007d5a:	68fb      	ldr	r3, [r7, #12]
 8007d5c:	6d5b      	ldr	r3, [r3, #84]	@ 0x54
 8007d5e:	2b00      	cmp	r3, #0
 8007d60:	d001      	beq.n	8007d66 <HAL_SPI_TransmitReceive+0x348>
 8007d62:	2301      	movs	r3, #1
 8007d64:	e000      	b.n	8007d68 <HAL_SPI_TransmitReceive+0x34a>
 8007d66:	2300      	movs	r3, #0
 8007d68:	4618      	mov	r0, r3
 8007d6a:	3728      	adds	r7, #40	@ 0x28
 8007d6c:	46bd      	mov	sp, r7
 8007d6e:	bd80      	pop	{r7, pc}

08007d70 <SPI_WaitFlagStateUntilTimeout>:
 8007d70:	b580      	push	{r7, lr}
 8007d72:	b088      	sub	sp, #32
 8007d74:	af00      	add	r7, sp, #0
 8007d76:	60f8      	str	r0, [r7, #12]
 8007d78:	60b9      	str	r1, [r7, #8]
 8007d7a:	603b      	str	r3, [r7, #0]
 8007d7c:	4613      	mov	r3, r2
 8007d7e:	71fb      	strb	r3, [r7, #7]
 8007d80:	f7fd f854 	bl	8004e2c <HAL_GetTick>
 8007d84:	4602      	mov	r2, r0
 8007d86:	6abb      	ldr	r3, [r7, #40]	@ 0x28
 8007d88:	1a9b      	subs	r3, r3, r2
 8007d8a:	683a      	ldr	r2, [r7, #0]
 8007d8c:	4413      	add	r3, r2
 8007d8e:	61fb      	str	r3, [r7, #28]
 8007d90:	f7fd f84c 	bl	8004e2c <HAL_GetTick>
 8007d94:	61b8      	str	r0, [r7, #24]
 8007d96:	4b39      	ldr	r3, [pc, #228]	@ (8007e7c <SPI_WaitFlagStateUntilTimeout+0x10c>)
 8007d98:	681b      	ldr	r3, [r3, #0]
 8007d9a:	015b      	lsls	r3, r3, #5
 8007d9c:	0d1b      	lsrs	r3, r3, #20
 8007d9e:	69fa      	ldr	r2, [r7, #28]
 8007da0:	fb02 f303 	mul.w	r3, r2, r3
 8007da4:	617b      	str	r3, [r7, #20]
 8007da6:	e054      	b.n	8007e52 <SPI_WaitFlagStateUntilTimeout+0xe2>
 8007da8:	683b      	ldr	r3, [r7, #0]
 8007daa:	f1b3 3fff 	cmp.w	r3, #4294967295
 8007dae:	d050      	beq.n	8007e52 <SPI_WaitFlagStateUntilTimeout+0xe2>
 8007db0:	f7fd f83c 	bl	8004e2c <HAL_GetTick>
 8007db4:	4602      	mov	r2, r0
 8007db6:	69bb      	ldr	r3, [r7, #24]
 8007db8:	1ad3      	subs	r3, r2, r3
 8007dba:	69fa      	ldr	r2, [r7, #28]
 8007dbc:	429a      	cmp	r2, r3
 8007dbe:	d902      	bls.n	8007dc6 <SPI_WaitFlagStateUntilTimeout+0x56>
 8007dc0:	69fb      	ldr	r3, [r7, #28]
 8007dc2:	2b00      	cmp	r3, #0
 8007dc4:	d13d      	bne.n	8007e42 <SPI_WaitFlagStateUntilTimeout+0xd2>
 8007dc6:	68fb      	ldr	r3, [r7, #12]
 8007dc8:	681b      	ldr	r3, [r3, #0]
 8007dca:	685a      	ldr	r2, [r3, #4]
 8007dcc:	68fb      	ldr	r3, [r7, #12]
 8007dce:	681b      	ldr	r3, [r3, #0]
 8007dd0:	f022 02e0 	bic.w	r2, r2, #224	@ 0xe0
 8007dd4:	605a      	str	r2, [r3, #4]
 8007dd6:	68fb      	ldr	r3, [r7, #12]
 8007dd8:	685b      	ldr	r3, [r3, #4]
 8007dda:	f5b3 7f82 	cmp.w	r3, #260	@ 0x104
 8007dde:	d111      	bne.n	8007e04 <SPI_WaitFlagStateUntilTimeout+0x94>
 8007de0:	68fb      	ldr	r3, [r7, #12]
 8007de2:	689b      	ldr	r3, [r3, #8]
 8007de4:	f5b3 4f00 	cmp.w	r3, #32768	@ 0x8000
 8007de8:	d004      	beq.n	8007df4 <SPI_WaitFlagStateUntilTimeout+0x84>
 8007dea:	68fb      	ldr	r3, [r7, #12]
 8007dec:	689b      	ldr	r3, [r3, #8]
 8007dee:	f5b3 6f80 	cmp.w	r3, #1024	@ 0x400
 8007df2:	d107      	bne.n	8007e04 <SPI_WaitFlagStateUntilTimeout+0x94>
 8007df4:	68fb      	ldr	r3, [r7, #12]
 8007df6:	681b      	ldr	r3, [r3, #0]
 8007df8:	681a      	ldr	r2, [r3, #0]
 8007dfa:	68fb      	ldr	r3, [r7, #12]
 8007dfc:	681b      	ldr	r3, [r3, #0]
 8007dfe:	f022 0240 	bic.w	r2, r2, #64	@ 0x40
 8007e02:	601a      	str	r2, [r3, #0]
 8007e04:	68fb      	ldr	r3, [r7, #12]
 8007e06:	6a9b      	ldr	r3, [r3, #40]	@ 0x28
 8007e08:	f5b3 5f00 	cmp.w	r3, #8192	@ 0x2000
 8007e0c:	d10f      	bne.n	8007e2e <SPI_WaitFlagStateUntilTimeout+0xbe>
 8007e0e:	68fb      	ldr	r3, [r7, #12]
 8007e10:	681b      	ldr	r3, [r3, #0]
 8007e12:	681a      	ldr	r2, [r3, #0]
 8007e14:	68fb      	ldr	r3, [r7, #12]
 8007e16:	681b      	ldr	r3, [r3, #0]
 8007e18:	f422 5200 	bic.w	r2, r2, #8192	@ 0x2000
 8007e1c:	601a      	str	r2, [r3, #0]
 8007e1e:	68fb      	ldr	r3, [r7, #12]
 8007e20:	681b      	ldr	r3, [r3, #0]
 8007e22:	681a      	ldr	r2, [r3, #0]
 8007e24:	68fb      	ldr	r3, [r7, #12]
 8007e26:	681b      	ldr	r3, [r3, #0]
 8007e28:	f442 5200 	orr.w	r2, r2, #8192	@ 0x2000
 8007e2c:	601a      	str	r2, [r3, #0]
 8007e2e:	68fb      	ldr	r3, [r7, #12]
 8007e30:	2201      	movs	r2, #1
 8007e32:	f883 2051 	strb.w	r2, [r3, #81]	@ 0x51
 8007e36:	68fb      	ldr	r3, [r7, #12]
 8007e38:	2200      	movs	r2, #0
 8007e3a:	f883 2050 	strb.w	r2, [r3, #80]	@ 0x50
 8007e3e:	2303      	movs	r3, #3
 8007e40:	e017      	b.n	8007e72 <SPI_WaitFlagStateUntilTimeout+0x102>
 8007e42:	697b      	ldr	r3, [r7, #20]
 8007e44:	2b00      	cmp	r3, #0
 8007e46:	d101      	bne.n	8007e4c <SPI_WaitFlagStateUntilTimeout+0xdc>
 8007e48:	2300      	movs	r3, #0
 8007e4a:	61fb      	str	r3, [r7, #28]
 8007e4c:	697b      	ldr	r3, [r7, #20]
 8007e4e:	3b01      	subs	r3, #1
 8007e50:	617b      	str	r3, [r7, #20]
 8007e52:	68fb      	ldr	r3, [r7, #12]
 8007e54:	681b      	ldr	r3, [r3, #0]
 8007e56:	689a      	ldr	r2, [r3, #8]
 8007e58:	68bb      	ldr	r3, [r7, #8]
 8007e5a:	4013      	ands	r3, r2
 8007e5c:	68ba      	ldr	r2, [r7, #8]
 8007e5e:	429a      	cmp	r2, r3
 8007e60:	bf0c      	ite	eq
 8007e62:	2301      	moveq	r3, #1
 8007e64:	2300      	movne	r3, #0
 8007e66:	b2db      	uxtb	r3, r3
 8007e68:	461a      	mov	r2, r3
 8007e6a:	79fb      	ldrb	r3, [r7, #7]
 8007e6c:	429a      	cmp	r2, r3
 8007e6e:	d19b      	bne.n	8007da8 <SPI_WaitFlagStateUntilTimeout+0x38>
 8007e70:	2300      	movs	r3, #0
 8007e72:	4618      	mov	r0, r3
 8007e74:	3720      	adds	r7, #32
 8007e76:	46bd      	mov	sp, r7
 8007e78:	bd80      	pop	{r7, pc}
 8007e7a:	bf00      	nop
 8007e7c:	20000038 	.word	0x20000038

08007e80 <SPI_EndRxTransaction>:
 8007e80:	b580      	push	{r7, lr}
 8007e82:	b086      	sub	sp, #24
 8007e84:	af02      	add	r7, sp, #8
 8007e86:	60f8      	str	r0, [r7, #12]
 8007e88:	60b9      	str	r1, [r7, #8]
 8007e8a:	607a      	str	r2, [r7, #4]
 8007e8c:	68fb      	ldr	r3, [r7, #12]
 8007e8e:	685b      	ldr	r3, [r3, #4]
 8007e90:	f5b3 7f82 	cmp.w	r3, #260	@ 0x104
 8007e94:	d111      	bne.n	8007eba <SPI_EndRxTransaction+0x3a>
 8007e96:	68fb      	ldr	r3, [r7, #12]
 8007e98:	689b      	ldr	r3, [r3, #8]
 8007e9a:	f5b3 4f00 	cmp.w	r3, #32768	@ 0x8000
 8007e9e:	d004      	beq.n	8007eaa <SPI_EndRxTransaction+0x2a>
 8007ea0:	68fb      	ldr	r3, [r7, #12]
 8007ea2:	689b      	ldr	r3, [r3, #8]
 8007ea4:	f5b3 6f80 	cmp.w	r3, #1024	@ 0x400
 8007ea8:	d107      	bne.n	8007eba <SPI_EndRxTransaction+0x3a>
 8007eaa:	68fb      	ldr	r3, [r7, #12]
 8007eac:	681b      	ldr	r3, [r3, #0]
 8007eae:	681a      	ldr	r2, [r3, #0]
 8007eb0:	68fb      	ldr	r3, [r7, #12]
 8007eb2:	681b      	ldr	r3, [r3, #0]
 8007eb4:	f022 0240 	bic.w	r2, r2, #64	@ 0x40
 8007eb8:	601a      	str	r2, [r3, #0]
 8007eba:	68fb      	ldr	r3, [r7, #12]
 8007ebc:	685b      	ldr	r3, [r3, #4]
 8007ebe:	f5b3 7f82 	cmp.w	r3, #260	@ 0x104
 8007ec2:	d117      	bne.n	8007ef4 <SPI_EndRxTransaction+0x74>
 8007ec4:	68fb      	ldr	r3, [r7, #12]
 8007ec6:	689b      	ldr	r3, [r3, #8]
 8007ec8:	f5b3 6f80 	cmp.w	r3, #1024	@ 0x400
 8007ecc:	d112      	bne.n	8007ef4 <SPI_EndRxTransaction+0x74>
 8007ece:	687b      	ldr	r3, [r7, #4]
 8007ed0:	9300      	str	r3, [sp, #0]
 8007ed2:	68bb      	ldr	r3, [r7, #8]
 8007ed4:	2200      	movs	r2, #0
 8007ed6:	2101      	movs	r1, #1
 8007ed8:	68f8      	ldr	r0, [r7, #12]
 8007eda:	f7ff ff49 	bl	8007d70 <SPI_WaitFlagStateUntilTimeout>
 8007ede:	4603      	mov	r3, r0
 8007ee0:	2b00      	cmp	r3, #0
 8007ee2:	d01a      	beq.n	8007f1a <SPI_EndRxTransaction+0x9a>
 8007ee4:	68fb      	ldr	r3, [r7, #12]
 8007ee6:	6d5b      	ldr	r3, [r3, #84]	@ 0x54
 8007ee8:	f043 0220 	orr.w	r2, r3, #32
 8007eec:	68fb      	ldr	r3, [r7, #12]
 8007eee:	655a      	str	r2, [r3, #84]	@ 0x54
 8007ef0:	2303      	movs	r3, #3
 8007ef2:	e013      	b.n	8007f1c <SPI_EndRxTransaction+0x9c>
 8007ef4:	687b      	ldr	r3, [r7, #4]
 8007ef6:	9300      	str	r3, [sp, #0]
 8007ef8:	68bb      	ldr	r3, [r7, #8]
 8007efa:	2200      	movs	r2, #0
 8007efc:	2180      	movs	r1, #128	@ 0x80
 8007efe:	68f8      	ldr	r0, [r7, #12]
 8007f00:	f7ff ff36 	bl	8007d70 <SPI_WaitFlagStateUntilTimeout>
 8007f04:	4603      	mov	r3, r0
 8007f06:	2b00      	cmp	r3, #0
 8007f08:	d007      	beq.n	8007f1a <SPI_EndRxTransaction+0x9a>
 8007f0a:	68fb      	ldr	r3, [r7, #12]
 8007f0c:	6d5b      	ldr	r3, [r3, #84]	@ 0x54
 8007f0e:	f043 0220 	orr.w	r2, r3, #32
 8007f12:	68fb      	ldr	r3, [r7, #12]
 8007f14:	655a      	str	r2, [r3, #84]	@ 0x54
 8007f16:	2303      	movs	r3, #3
 8007f18:	e000      	b.n	8007f1c <SPI_EndRxTransaction+0x9c>
 8007f1a:	2300      	movs	r3, #0
 8007f1c:	4618      	mov	r0, r3
 8007f1e:	3710      	adds	r7, #16
 8007f20:	46bd      	mov	sp, r7
 8007f22:	bd80      	pop	{r7, pc}

08007f24 <SPI_EndRxTxTransaction>:
 8007f24:	b580      	push	{r7, lr}
 8007f26:	b086      	sub	sp, #24
 8007f28:	af02      	add	r7, sp, #8
 8007f2a:	60f8      	str	r0, [r7, #12]
 8007f2c:	60b9      	str	r1, [r7, #8]
 8007f2e:	607a      	str	r2, [r7, #4]
 8007f30:	687b      	ldr	r3, [r7, #4]
 8007f32:	9300      	str	r3, [sp, #0]
 8007f34:	68bb      	ldr	r3, [r7, #8]
 8007f36:	2201      	movs	r2, #1
 8007f38:	2102      	movs	r1, #2
 8007f3a:	68f8      	ldr	r0, [r7, #12]
 8007f3c:	f7ff ff18 	bl	8007d70 <SPI_WaitFlagStateUntilTimeout>
 8007f40:	4603      	mov	r3, r0
 8007f42:	2b00      	cmp	r3, #0
 8007f44:	d007      	beq.n	8007f56 <SPI_EndRxTxTransaction+0x32>
 8007f46:	68fb      	ldr	r3, [r7, #12]
 8007f48:	6d5b      	ldr	r3, [r3, #84]	@ 0x54
 8007f4a:	f043 0220 	orr.w	r2, r3, #32
 8007f4e:	68fb      	ldr	r3, [r7, #12]
 8007f50:	655a      	str	r2, [r3, #84]	@ 0x54
 8007f52:	2303      	movs	r3, #3
 8007f54:	e013      	b.n	8007f7e <SPI_EndRxTxTransaction+0x5a>
 8007f56:	687b      	ldr	r3, [r7, #4]
 8007f58:	9300      	str	r3, [sp, #0]
 8007f5a:	68bb      	ldr	r3, [r7, #8]
 8007f5c:	2200      	movs	r2, #0
 8007f5e:	2180      	movs	r1, #128	@ 0x80
 8007f60:	68f8      	ldr	r0, [r7, #12]
 8007f62:	f7ff ff05 	bl	8007d70 <SPI_WaitFlagStateUntilTimeout>
 8007f66:	4603      	mov	r3, r0
 8007f68:	2b00      	cmp	r3, #0
 8007f6a:	d007      	beq.n	8007f7c <SPI_EndRxTxTransaction+0x58>
 8007f6c:	68fb      	ldr	r3, [r7, #12]
 8007f6e:	6d5b      	ldr	r3, [r3, #84]	@ 0x54
 8007f70:	f043 0220 	orr.w	r2, r3, #32
 8007f74:	68fb      	ldr	r3, [r7, #12]
 8007f76:	655a      	str	r2, [r3, #84]	@ 0x54
 8007f78:	2303      	movs	r3, #3
 8007f7a:	e000      	b.n	8007f7e <SPI_EndRxTxTransaction+0x5a>
 8007f7c:	2300      	movs	r3, #0
 8007f7e:	4618      	mov	r0, r3
 8007f80:	3710      	adds	r7, #16
 8007f82:	46bd      	mov	sp, r7
 8007f84:	bd80      	pop	{r7, pc}

08007f86 <HAL_TIM_Base_Init>:
 8007f86:	b580      	push	{r7, lr}
 8007f88:	b082      	sub	sp, #8
 8007f8a:	af00      	add	r7, sp, #0
 8007f8c:	6078      	str	r0, [r7, #4]
 8007f8e:	687b      	ldr	r3, [r7, #4]
 8007f90:	2b00      	cmp	r3, #0
 8007f92:	d101      	bne.n	8007f98 <HAL_TIM_Base_Init+0x12>
 8007f94:	2301      	movs	r3, #1
 8007f96:	e041      	b.n	800801c <HAL_TIM_Base_Init+0x96>
 8007f98:	687b      	ldr	r3, [r7, #4]
 8007f9a:	f893 303d 	ldrb.w	r3, [r3, #61]	@ 0x3d
 8007f9e:	b2db      	uxtb	r3, r3
 8007fa0:	2b00      	cmp	r3, #0
 8007fa2:	d106      	bne.n	8007fb2 <HAL_TIM_Base_Init+0x2c>
 8007fa4:	687b      	ldr	r3, [r7, #4]
 8007fa6:	2200      	movs	r2, #0
 8007fa8:	f883 203c 	strb.w	r2, [r3, #60]	@ 0x3c
 8007fac:	6878      	ldr	r0, [r7, #4]
 8007fae:	f7fc fd8d 	bl	8004acc <HAL_TIM_Base_MspInit>
 8007fb2:	687b      	ldr	r3, [r7, #4]
 8007fb4:	2202      	movs	r2, #2
 8007fb6:	f883 203d 	strb.w	r2, [r3, #61]	@ 0x3d
 8007fba:	687b      	ldr	r3, [r7, #4]
 8007fbc:	681a      	ldr	r2, [r3, #0]
 8007fbe:	687b      	ldr	r3, [r7, #4]
 8007fc0:	3304      	adds	r3, #4
 8007fc2:	4619      	mov	r1, r3
 8007fc4:	4610      	mov	r0, r2
 8007fc6:	f000 fa5b 	bl	8008480 <TIM_Base_SetConfig>
 8007fca:	687b      	ldr	r3, [r7, #4]
 8007fcc:	2201      	movs	r2, #1
 8007fce:	f883 2046 	strb.w	r2, [r3, #70]	@ 0x46
 8007fd2:	687b      	ldr	r3, [r7, #4]
 8007fd4:	2201      	movs	r2, #1
 8007fd6:	f883 203e 	strb.w	r2, [r3, #62]	@ 0x3e
 8007fda:	687b      	ldr	r3, [r7, #4]
 8007fdc:	2201      	movs	r2, #1
 8007fde:	f883 203f 	strb.w	r2, [r3, #63]	@ 0x3f
 8007fe2:	687b      	ldr	r3, [r7, #4]
 8007fe4:	2201      	movs	r2, #1
 8007fe6:	f883 2040 	strb.w	r2, [r3, #64]	@ 0x40
 8007fea:	687b      	ldr	r3, [r7, #4]
 8007fec:	2201      	movs	r2, #1
 8007fee:	f883 2041 	strb.w	r2, [r3, #65]	@ 0x41
 8007ff2:	687b      	ldr	r3, [r7, #4]
 8007ff4:	2201      	movs	r2, #1
 8007ff6:	f883 2042 	strb.w	r2, [r3, #66]	@ 0x42
 8007ffa:	687b      	ldr	r3, [r7, #4]
 8007ffc:	2201      	movs	r2, #1
 8007ffe:	f883 2043 	strb.w	r2, [r3, #67]	@ 0x43
 8008002:	687b      	ldr	r3, [r7, #4]
 8008004:	2201      	movs	r2, #1
 8008006:	f883 2044 	strb.w	r2, [r3, #68]	@ 0x44
 800800a:	687b      	ldr	r3, [r7, #4]
 800800c:	2201      	movs	r2, #1
 800800e:	f883 2045 	strb.w	r2, [r3, #69]	@ 0x45
 8008012:	687b      	ldr	r3, [r7, #4]
 8008014:	2201      	movs	r2, #1
 8008016:	f883 203d 	strb.w	r2, [r3, #61]	@ 0x3d
 800801a:	2300      	movs	r3, #0
 800801c:	4618      	mov	r0, r3
 800801e:	3708      	adds	r7, #8
 8008020:	46bd      	mov	sp, r7
 8008022:	bd80      	pop	{r7, pc}

08008024 <HAL_TIM_Base_Start_IT>:
 8008024:	b480      	push	{r7}
 8008026:	b085      	sub	sp, #20
 8008028:	af00      	add	r7, sp, #0
 800802a:	6078      	str	r0, [r7, #4]
 800802c:	687b      	ldr	r3, [r7, #4]
 800802e:	f893 303d 	ldrb.w	r3, [r3, #61]	@ 0x3d
 8008032:	b2db      	uxtb	r3, r3
 8008034:	2b01      	cmp	r3, #1
 8008036:	d001      	beq.n	800803c <HAL_TIM_Base_Start_IT+0x18>
 8008038:	2301      	movs	r3, #1
 800803a:	e03a      	b.n	80080b2 <HAL_TIM_Base_Start_IT+0x8e>
 800803c:	687b      	ldr	r3, [r7, #4]
 800803e:	2202      	movs	r2, #2
 8008040:	f883 203d 	strb.w	r2, [r3, #61]	@ 0x3d
 8008044:	687b      	ldr	r3, [r7, #4]
 8008046:	681b      	ldr	r3, [r3, #0]
 8008048:	68da      	ldr	r2, [r3, #12]
 800804a:	687b      	ldr	r3, [r7, #4]
 800804c:	681b      	ldr	r3, [r3, #0]
 800804e:	f042 0201 	orr.w	r2, r2, #1
 8008052:	60da      	str	r2, [r3, #12]
 8008054:	687b      	ldr	r3, [r7, #4]
 8008056:	681b      	ldr	r3, [r3, #0]
 8008058:	4a18      	ldr	r2, [pc, #96]	@ (80080bc <HAL_TIM_Base_Start_IT+0x98>)
 800805a:	4293      	cmp	r3, r2
 800805c:	d00e      	beq.n	800807c <HAL_TIM_Base_Start_IT+0x58>
 800805e:	687b      	ldr	r3, [r7, #4]
 8008060:	681b      	ldr	r3, [r3, #0]
 8008062:	f1b3 4f80 	cmp.w	r3, #1073741824	@ 0x40000000
 8008066:	d009      	beq.n	800807c <HAL_TIM_Base_Start_IT+0x58>
 8008068:	687b      	ldr	r3, [r7, #4]
 800806a:	681b      	ldr	r3, [r3, #0]
 800806c:	4a14      	ldr	r2, [pc, #80]	@ (80080c0 <HAL_TIM_Base_Start_IT+0x9c>)
 800806e:	4293      	cmp	r3, r2
 8008070:	d004      	beq.n	800807c <HAL_TIM_Base_Start_IT+0x58>
 8008072:	687b      	ldr	r3, [r7, #4]
 8008074:	681b      	ldr	r3, [r3, #0]
 8008076:	4a13      	ldr	r2, [pc, #76]	@ (80080c4 <HAL_TIM_Base_Start_IT+0xa0>)
 8008078:	4293      	cmp	r3, r2
 800807a:	d111      	bne.n	80080a0 <HAL_TIM_Base_Start_IT+0x7c>
 800807c:	687b      	ldr	r3, [r7, #4]
 800807e:	681b      	ldr	r3, [r3, #0]
 8008080:	689b      	ldr	r3, [r3, #8]
 8008082:	f003 0307 	and.w	r3, r3, #7
 8008086:	60fb      	str	r3, [r7, #12]
 8008088:	68fb      	ldr	r3, [r7, #12]
 800808a:	2b06      	cmp	r3, #6
 800808c:	d010      	beq.n	80080b0 <HAL_TIM_Base_Start_IT+0x8c>
 800808e:	687b      	ldr	r3, [r7, #4]
 8008090:	681b      	ldr	r3, [r3, #0]
 8008092:	681a      	ldr	r2, [r3, #0]
 8008094:	687b      	ldr	r3, [r7, #4]
 8008096:	681b      	ldr	r3, [r3, #0]
 8008098:	f042 0201 	orr.w	r2, r2, #1
 800809c:	601a      	str	r2, [r3, #0]
 800809e:	e007      	b.n	80080b0 <HAL_TIM_Base_Start_IT+0x8c>
 80080a0:	687b      	ldr	r3, [r7, #4]
 80080a2:	681b      	ldr	r3, [r3, #0]
 80080a4:	681a      	ldr	r2, [r3, #0]
 80080a6:	687b      	ldr	r3, [r7, #4]
 80080a8:	681b      	ldr	r3, [r3, #0]
 80080aa:	f042 0201 	orr.w	r2, r2, #1
 80080ae:	601a      	str	r2, [r3, #0]
 80080b0:	2300      	movs	r3, #0
 80080b2:	4618      	mov	r0, r3
 80080b4:	3714      	adds	r7, #20
 80080b6:	46bd      	mov	sp, r7
 80080b8:	bc80      	pop	{r7}
 80080ba:	4770      	bx	lr
 80080bc:	40012c00 	.word	0x40012c00
 80080c0:	40000400 	.word	0x40000400
 80080c4:	40000800 	.word	0x40000800

080080c8 <HAL_TIM_IRQHandler>:
 80080c8:	b580      	push	{r7, lr}
 80080ca:	b084      	sub	sp, #16
 80080cc:	af00      	add	r7, sp, #0
 80080ce:	6078      	str	r0, [r7, #4]
 80080d0:	687b      	ldr	r3, [r7, #4]
 80080d2:	681b      	ldr	r3, [r3, #0]
 80080d4:	68db      	ldr	r3, [r3, #12]
 80080d6:	60fb      	str	r3, [r7, #12]
 80080d8:	687b      	ldr	r3, [r7, #4]
 80080da:	681b      	ldr	r3, [r3, #0]
 80080dc:	691b      	ldr	r3, [r3, #16]
 80080de:	60bb      	str	r3, [r7, #8]
 80080e0:	68bb      	ldr	r3, [r7, #8]
 80080e2:	f003 0302 	and.w	r3, r3, #2
 80080e6:	2b00      	cmp	r3, #0
 80080e8:	d020      	beq.n	800812c <HAL_TIM_IRQHandler+0x64>
 80080ea:	68fb      	ldr	r3, [r7, #12]
 80080ec:	f003 0302 	and.w	r3, r3, #2
 80080f0:	2b00      	cmp	r3, #0
 80080f2:	d01b      	beq.n	800812c <HAL_TIM_IRQHandler+0x64>
 80080f4:	687b      	ldr	r3, [r7, #4]
 80080f6:	681b      	ldr	r3, [r3, #0]
 80080f8:	f06f 0202 	mvn.w	r2, #2
 80080fc:	611a      	str	r2, [r3, #16]
 80080fe:	687b      	ldr	r3, [r7, #4]
 8008100:	2201      	movs	r2, #1
 8008102:	771a      	strb	r2, [r3, #28]
 8008104:	687b      	ldr	r3, [r7, #4]
 8008106:	681b      	ldr	r3, [r3, #0]
 8008108:	699b      	ldr	r3, [r3, #24]
 800810a:	f003 0303 	and.w	r3, r3, #3
 800810e:	2b00      	cmp	r3, #0
 8008110:	d003      	beq.n	800811a <HAL_TIM_IRQHandler+0x52>
 8008112:	6878      	ldr	r0, [r7, #4]
 8008114:	f000 f998 	bl	8008448 <HAL_TIM_IC_CaptureCallback>
 8008118:	e005      	b.n	8008126 <HAL_TIM_IRQHandler+0x5e>
 800811a:	6878      	ldr	r0, [r7, #4]
 800811c:	f000 f98b 	bl	8008436 <HAL_TIM_OC_DelayElapsedCallback>
 8008120:	6878      	ldr	r0, [r7, #4]
 8008122:	f000 f99a 	bl	800845a <HAL_TIM_PWM_PulseFinishedCallback>
 8008126:	687b      	ldr	r3, [r7, #4]
 8008128:	2200      	movs	r2, #0
 800812a:	771a      	strb	r2, [r3, #28]
 800812c:	68bb      	ldr	r3, [r7, #8]
 800812e:	f003 0304 	and.w	r3, r3, #4
 8008132:	2b00      	cmp	r3, #0
 8008134:	d020      	beq.n	8008178 <HAL_TIM_IRQHandler+0xb0>
 8008136:	68fb      	ldr	r3, [r7, #12]
 8008138:	f003 0304 	and.w	r3, r3, #4
 800813c:	2b00      	cmp	r3, #0
 800813e:	d01b      	beq.n	8008178 <HAL_TIM_IRQHandler+0xb0>
 8008140:	687b      	ldr	r3, [r7, #4]
 8008142:	681b      	ldr	r3, [r3, #0]
 8008144:	f06f 0204 	mvn.w	r2, #4
 8008148:	611a      	str	r2, [r3, #16]
 800814a:	687b      	ldr	r3, [r7, #4]
 800814c:	2202      	movs	r2, #2
 800814e:	771a      	strb	r2, [r3, #28]
 8008150:	687b      	ldr	r3, [r7, #4]
 8008152:	681b      	ldr	r3, [r3, #0]
 8008154:	699b      	ldr	r3, [r3, #24]
 8008156:	f403 7340 	and.w	r3, r3, #768	@ 0x300
 800815a:	2b00      	cmp	r3, #0
 800815c:	d003      	beq.n	8008166 <HAL_TIM_IRQHandler+0x9e>
 800815e:	6878      	ldr	r0, [r7, #4]
 8008160:	f000 f972 	bl	8008448 <HAL_TIM_IC_CaptureCallback>
 8008164:	e005      	b.n	8008172 <HAL_TIM_IRQHandler+0xaa>
 8008166:	6878      	ldr	r0, [r7, #4]
 8008168:	f000 f965 	bl	8008436 <HAL_TIM_OC_DelayElapsedCallback>
 800816c:	6878      	ldr	r0, [r7, #4]
 800816e:	f000 f974 	bl	800845a <HAL_TIM_PWM_PulseFinishedCallback>
 8008172:	687b      	ldr	r3, [r7, #4]
 8008174:	2200      	movs	r2, #0
 8008176:	771a      	strb	r2, [r3, #28]
 8008178:	68bb      	ldr	r3, [r7, #8]
 800817a:	f003 0308 	and.w	r3, r3, #8
 800817e:	2b00      	cmp	r3, #0
 8008180:	d020      	beq.n	80081c4 <HAL_TIM_IRQHandler+0xfc>
 8008182:	68fb      	ldr	r3, [r7, #12]
 8008184:	f003 0308 	and.w	r3, r3, #8
 8008188:	2b00      	cmp	r3, #0
 800818a:	d01b      	beq.n	80081c4 <HAL_TIM_IRQHandler+0xfc>
 800818c:	687b      	ldr	r3, [r7, #4]
 800818e:	681b      	ldr	r3, [r3, #0]
 8008190:	f06f 0208 	mvn.w	r2, #8
 8008194:	611a      	str	r2, [r3, #16]
 8008196:	687b      	ldr	r3, [r7, #4]
 8008198:	2204      	movs	r2, #4
 800819a:	771a      	strb	r2, [r3, #28]
 800819c:	687b      	ldr	r3, [r7, #4]
 800819e:	681b      	ldr	r3, [r3, #0]
 80081a0:	69db      	ldr	r3, [r3, #28]
 80081a2:	f003 0303 	and.w	r3, r3, #3
 80081a6:	2b00      	cmp	r3, #0
 80081a8:	d003      	beq.n	80081b2 <HAL_TIM_IRQHandler+0xea>
 80081aa:	6878      	ldr	r0, [r7, #4]
 80081ac:	f000 f94c 	bl	8008448 <HAL_TIM_IC_CaptureCallback>
 80081b0:	e005      	b.n	80081be <HAL_TIM_IRQHandler+0xf6>
 80081b2:	6878      	ldr	r0, [r7, #4]
 80081b4:	f000 f93f 	bl	8008436 <HAL_TIM_OC_DelayElapsedCallback>
 80081b8:	6878      	ldr	r0, [r7, #4]
 80081ba:	f000 f94e 	bl	800845a <HAL_TIM_PWM_PulseFinishedCallback>
 80081be:	687b      	ldr	r3, [r7, #4]
 80081c0:	2200      	movs	r2, #0
 80081c2:	771a      	strb	r2, [r3, #28]
 80081c4:	68bb      	ldr	r3, [r7, #8]
 80081c6:	f003 0310 	and.w	r3, r3, #16
 80081ca:	2b00      	cmp	r3, #0
 80081cc:	d020      	beq.n	8008210 <HAL_TIM_IRQHandler+0x148>
 80081ce:	68fb      	ldr	r3, [r7, #12]
 80081d0:	f003 0310 	and.w	r3, r3, #16
 80081d4:	2b00      	cmp	r3, #0
 80081d6:	d01b      	beq.n	8008210 <HAL_TIM_IRQHandler+0x148>
 80081d8:	687b      	ldr	r3, [r7, #4]
 80081da:	681b      	ldr	r3, [r3, #0]
 80081dc:	f06f 0210 	mvn.w	r2, #16
 80081e0:	611a      	str	r2, [r3, #16]
 80081e2:	687b      	ldr	r3, [r7, #4]
 80081e4:	2208      	movs	r2, #8
 80081e6:	771a      	strb	r2, [r3, #28]
 80081e8:	687b      	ldr	r3, [r7, #4]
 80081ea:	681b      	ldr	r3, [r3, #0]
 80081ec:	69db      	ldr	r3, [r3, #28]
 80081ee:	f403 7340 	and.w	r3, r3, #768	@ 0x300
 80081f2:	2b00      	cmp	r3, #0
 80081f4:	d003      	beq.n	80081fe <HAL_TIM_IRQHandler+0x136>
 80081f6:	6878      	ldr	r0, [r7, #4]
 80081f8:	f000 f926 	bl	8008448 <HAL_TIM_IC_CaptureCallback>
 80081fc:	e005      	b.n	800820a <HAL_TIM_IRQHandler+0x142>
 80081fe:	6878      	ldr	r0, [r7, #4]
 8008200:	f000 f919 	bl	8008436 <HAL_TIM_OC_DelayElapsedCallback>
 8008204:	6878      	ldr	r0, [r7, #4]
 8008206:	f000 f928 	bl	800845a <HAL_TIM_PWM_PulseFinishedCallback>
 800820a:	687b      	ldr	r3, [r7, #4]
 800820c:	2200      	movs	r2, #0
 800820e:	771a      	strb	r2, [r3, #28]
 8008210:	68bb      	ldr	r3, [r7, #8]
 8008212:	f003 0301 	and.w	r3, r3, #1
 8008216:	2b00      	cmp	r3, #0
 8008218:	d00c      	beq.n	8008234 <HAL_TIM_IRQHandler+0x16c>
 800821a:	68fb      	ldr	r3, [r7, #12]
 800821c:	f003 0301 	and.w	r3, r3, #1
 8008220:	2b00      	cmp	r3, #0
 8008222:	d007      	beq.n	8008234 <HAL_TIM_IRQHandler+0x16c>
 8008224:	687b      	ldr	r3, [r7, #4]
 8008226:	681b      	ldr	r3, [r3, #0]
 8008228:	f06f 0201 	mvn.w	r2, #1
 800822c:	611a      	str	r2, [r3, #16]
 800822e:	6878      	ldr	r0, [r7, #4]
 8008230:	f7f9 fee2 	bl	8001ff8 <HAL_TIM_PeriodElapsedCallback>
 8008234:	68bb      	ldr	r3, [r7, #8]
 8008236:	f003 0380 	and.w	r3, r3, #128	@ 0x80
 800823a:	2b00      	cmp	r3, #0
 800823c:	d00c      	beq.n	8008258 <HAL_TIM_IRQHandler+0x190>
 800823e:	68fb      	ldr	r3, [r7, #12]
 8008240:	f003 0380 	and.w	r3, r3, #128	@ 0x80
 8008244:	2b00      	cmp	r3, #0
 8008246:	d007      	beq.n	8008258 <HAL_TIM_IRQHandler+0x190>
 8008248:	687b      	ldr	r3, [r7, #4]
 800824a:	681b      	ldr	r3, [r3, #0]
 800824c:	f06f 0280 	mvn.w	r2, #128	@ 0x80
 8008250:	611a      	str	r2, [r3, #16]
 8008252:	6878      	ldr	r0, [r7, #4]
 8008254:	f000 fa7f 	bl	8008756 <HAL_TIMEx_BreakCallback>
 8008258:	68bb      	ldr	r3, [r7, #8]
 800825a:	f003 0340 	and.w	r3, r3, #64	@ 0x40
 800825e:	2b00      	cmp	r3, #0
 8008260:	d00c      	beq.n	800827c <HAL_TIM_IRQHandler+0x1b4>
 8008262:	68fb      	ldr	r3, [r7, #12]
 8008264:	f003 0340 	and.w	r3, r3, #64	@ 0x40
 8008268:	2b00      	cmp	r3, #0
 800826a:	d007      	beq.n	800827c <HAL_TIM_IRQHandler+0x1b4>
 800826c:	687b      	ldr	r3, [r7, #4]
 800826e:	681b      	ldr	r3, [r3, #0]
 8008270:	f06f 0240 	mvn.w	r2, #64	@ 0x40
 8008274:	611a      	str	r2, [r3, #16]
 8008276:	6878      	ldr	r0, [r7, #4]
 8008278:	f000 f8f8 	bl	800846c <HAL_TIM_TriggerCallback>
 800827c:	68bb      	ldr	r3, [r7, #8]
 800827e:	f003 0320 	and.w	r3, r3, #32
 8008282:	2b00      	cmp	r3, #0
 8008284:	d00c      	beq.n	80082a0 <HAL_TIM_IRQHandler+0x1d8>
 8008286:	68fb      	ldr	r3, [r7, #12]
 8008288:	f003 0320 	and.w	r3, r3, #32
 800828c:	2b00      	cmp	r3, #0
 800828e:	d007      	beq.n	80082a0 <HAL_TIM_IRQHandler+0x1d8>
 8008290:	687b      	ldr	r3, [r7, #4]
 8008292:	681b      	ldr	r3, [r3, #0]
 8008294:	f06f 0220 	mvn.w	r2, #32
 8008298:	611a      	str	r2, [r3, #16]
 800829a:	6878      	ldr	r0, [r7, #4]
 800829c:	f000 fa52 	bl	8008744 <HAL_TIMEx_CommutCallback>
 80082a0:	bf00      	nop
 80082a2:	3710      	adds	r7, #16
 80082a4:	46bd      	mov	sp, r7
 80082a6:	bd80      	pop	{r7, pc}

080082a8 <HAL_TIM_ConfigClockSource>:
 80082a8:	b580      	push	{r7, lr}
 80082aa:	b084      	sub	sp, #16
 80082ac:	af00      	add	r7, sp, #0
 80082ae:	6078      	str	r0, [r7, #4]
 80082b0:	6039      	str	r1, [r7, #0]
 80082b2:	2300      	movs	r3, #0
 80082b4:	73fb      	strb	r3, [r7, #15]
 80082b6:	687b      	ldr	r3, [r7, #4]
 80082b8:	f893 303c 	ldrb.w	r3, [r3, #60]	@ 0x3c
 80082bc:	2b01      	cmp	r3, #1
 80082be:	d101      	bne.n	80082c4 <HAL_TIM_ConfigClockSource+0x1c>
 80082c0:	2302      	movs	r3, #2
 80082c2:	e0b4      	b.n	800842e <HAL_TIM_ConfigClockSource+0x186>
 80082c4:	687b      	ldr	r3, [r7, #4]
 80082c6:	2201      	movs	r2, #1
 80082c8:	f883 203c 	strb.w	r2, [r3, #60]	@ 0x3c
 80082cc:	687b      	ldr	r3, [r7, #4]
 80082ce:	2202      	movs	r2, #2
 80082d0:	f883 203d 	strb.w	r2, [r3, #61]	@ 0x3d
 80082d4:	687b      	ldr	r3, [r7, #4]
 80082d6:	681b      	ldr	r3, [r3, #0]
 80082d8:	689b      	ldr	r3, [r3, #8]
 80082da:	60bb      	str	r3, [r7, #8]
 80082dc:	68bb      	ldr	r3, [r7, #8]
 80082de:	f023 0377 	bic.w	r3, r3, #119	@ 0x77
 80082e2:	60bb      	str	r3, [r7, #8]
 80082e4:	68bb      	ldr	r3, [r7, #8]
 80082e6:	f423 437f 	bic.w	r3, r3, #65280	@ 0xff00
 80082ea:	60bb      	str	r3, [r7, #8]
 80082ec:	687b      	ldr	r3, [r7, #4]
 80082ee:	681b      	ldr	r3, [r3, #0]
 80082f0:	68ba      	ldr	r2, [r7, #8]
 80082f2:	609a      	str	r2, [r3, #8]
 80082f4:	683b      	ldr	r3, [r7, #0]
 80082f6:	681b      	ldr	r3, [r3, #0]
 80082f8:	f5b3 5f00 	cmp.w	r3, #8192	@ 0x2000
 80082fc:	d03e      	beq.n	800837c <HAL_TIM_ConfigClockSource+0xd4>
 80082fe:	f5b3 5f00 	cmp.w	r3, #8192	@ 0x2000
 8008302:	f200 8087 	bhi.w	8008414 <HAL_TIM_ConfigClockSource+0x16c>
 8008306:	f5b3 5f80 	cmp.w	r3, #4096	@ 0x1000
 800830a:	f000 8086 	beq.w	800841a <HAL_TIM_ConfigClockSource+0x172>
 800830e:	f5b3 5f80 	cmp.w	r3, #4096	@ 0x1000
 8008312:	d87f      	bhi.n	8008414 <HAL_TIM_ConfigClockSource+0x16c>
 8008314:	2b70      	cmp	r3, #112	@ 0x70
 8008316:	d01a      	beq.n	800834e <HAL_TIM_ConfigClockSource+0xa6>
 8008318:	2b70      	cmp	r3, #112	@ 0x70
 800831a:	d87b      	bhi.n	8008414 <HAL_TIM_ConfigClockSource+0x16c>
 800831c:	2b60      	cmp	r3, #96	@ 0x60
 800831e:	d050      	beq.n	80083c2 <HAL_TIM_ConfigClockSource+0x11a>
 8008320:	2b60      	cmp	r3, #96	@ 0x60
 8008322:	d877      	bhi.n	8008414 <HAL_TIM_ConfigClockSource+0x16c>
 8008324:	2b50      	cmp	r3, #80	@ 0x50
 8008326:	d03c      	beq.n	80083a2 <HAL_TIM_ConfigClockSource+0xfa>
 8008328:	2b50      	cmp	r3, #80	@ 0x50
 800832a:	d873      	bhi.n	8008414 <HAL_TIM_ConfigClockSource+0x16c>
 800832c:	2b40      	cmp	r3, #64	@ 0x40
 800832e:	d058      	beq.n	80083e2 <HAL_TIM_ConfigClockSource+0x13a>
 8008330:	2b40      	cmp	r3, #64	@ 0x40
 8008332:	d86f      	bhi.n	8008414 <HAL_TIM_ConfigClockSource+0x16c>
 8008334:	2b30      	cmp	r3, #48	@ 0x30
 8008336:	d064      	beq.n	8008402 <HAL_TIM_ConfigClockSource+0x15a>
 8008338:	2b30      	cmp	r3, #48	@ 0x30
 800833a:	d86b      	bhi.n	8008414 <HAL_TIM_ConfigClockSource+0x16c>
 800833c:	2b20      	cmp	r3, #32
 800833e:	d060      	beq.n	8008402 <HAL_TIM_ConfigClockSource+0x15a>
 8008340:	2b20      	cmp	r3, #32
 8008342:	d867      	bhi.n	8008414 <HAL_TIM_ConfigClockSource+0x16c>
 8008344:	2b00      	cmp	r3, #0
 8008346:	d05c      	beq.n	8008402 <HAL_TIM_ConfigClockSource+0x15a>
 8008348:	2b10      	cmp	r3, #16
 800834a:	d05a      	beq.n	8008402 <HAL_TIM_ConfigClockSource+0x15a>
 800834c:	e062      	b.n	8008414 <HAL_TIM_ConfigClockSource+0x16c>
 800834e:	687b      	ldr	r3, [r7, #4]
 8008350:	6818      	ldr	r0, [r3, #0]
 8008352:	683b      	ldr	r3, [r7, #0]
 8008354:	6899      	ldr	r1, [r3, #8]
 8008356:	683b      	ldr	r3, [r7, #0]
 8008358:	685a      	ldr	r2, [r3, #4]
 800835a:	683b      	ldr	r3, [r7, #0]
 800835c:	68db      	ldr	r3, [r3, #12]
 800835e:	f000 f974 	bl	800864a <TIM_ETR_SetConfig>
 8008362:	687b      	ldr	r3, [r7, #4]
 8008364:	681b      	ldr	r3, [r3, #0]
 8008366:	689b      	ldr	r3, [r3, #8]
 8008368:	60bb      	str	r3, [r7, #8]
 800836a:	68bb      	ldr	r3, [r7, #8]
 800836c:	f043 0377 	orr.w	r3, r3, #119	@ 0x77
 8008370:	60bb      	str	r3, [r7, #8]
 8008372:	687b      	ldr	r3, [r7, #4]
 8008374:	681b      	ldr	r3, [r3, #0]
 8008376:	68ba      	ldr	r2, [r7, #8]
 8008378:	609a      	str	r2, [r3, #8]
 800837a:	e04f      	b.n	800841c <HAL_TIM_ConfigClockSource+0x174>
 800837c:	687b      	ldr	r3, [r7, #4]
 800837e:	6818      	ldr	r0, [r3, #0]
 8008380:	683b      	ldr	r3, [r7, #0]
 8008382:	6899      	ldr	r1, [r3, #8]
 8008384:	683b      	ldr	r3, [r7, #0]
 8008386:	685a      	ldr	r2, [r3, #4]
 8008388:	683b      	ldr	r3, [r7, #0]
 800838a:	68db      	ldr	r3, [r3, #12]
 800838c:	f000 f95d 	bl	800864a <TIM_ETR_SetConfig>
 8008390:	687b      	ldr	r3, [r7, #4]
 8008392:	681b      	ldr	r3, [r3, #0]
 8008394:	689a      	ldr	r2, [r3, #8]
 8008396:	687b      	ldr	r3, [r7, #4]
 8008398:	681b      	ldr	r3, [r3, #0]
 800839a:	f442 4280 	orr.w	r2, r2, #16384	@ 0x4000
 800839e:	609a      	str	r2, [r3, #8]
 80083a0:	e03c      	b.n	800841c <HAL_TIM_ConfigClockSource+0x174>
 80083a2:	687b      	ldr	r3, [r7, #4]
 80083a4:	6818      	ldr	r0, [r3, #0]
 80083a6:	683b      	ldr	r3, [r7, #0]
 80083a8:	6859      	ldr	r1, [r3, #4]
 80083aa:	683b      	ldr	r3, [r7, #0]
 80083ac:	68db      	ldr	r3, [r3, #12]
 80083ae:	461a      	mov	r2, r3
 80083b0:	f000 f8d4 	bl	800855c <TIM_TI1_ConfigInputStage>
 80083b4:	687b      	ldr	r3, [r7, #4]
 80083b6:	681b      	ldr	r3, [r3, #0]
 80083b8:	2150      	movs	r1, #80	@ 0x50
 80083ba:	4618      	mov	r0, r3
 80083bc:	f000 f92b 	bl	8008616 <TIM_ITRx_SetConfig>
 80083c0:	e02c      	b.n	800841c <HAL_TIM_ConfigClockSource+0x174>
 80083c2:	687b      	ldr	r3, [r7, #4]
 80083c4:	6818      	ldr	r0, [r3, #0]
 80083c6:	683b      	ldr	r3, [r7, #0]
 80083c8:	6859      	ldr	r1, [r3, #4]
 80083ca:	683b      	ldr	r3, [r7, #0]
 80083cc:	68db      	ldr	r3, [r3, #12]
 80083ce:	461a      	mov	r2, r3
 80083d0:	f000 f8f2 	bl	80085b8 <TIM_TI2_ConfigInputStage>
 80083d4:	687b      	ldr	r3, [r7, #4]
 80083d6:	681b      	ldr	r3, [r3, #0]
 80083d8:	2160      	movs	r1, #96	@ 0x60
 80083da:	4618      	mov	r0, r3
 80083dc:	f000 f91b 	bl	8008616 <TIM_ITRx_SetConfig>
 80083e0:	e01c      	b.n	800841c <HAL_TIM_ConfigClockSource+0x174>
 80083e2:	687b      	ldr	r3, [r7, #4]
 80083e4:	6818      	ldr	r0, [r3, #0]
 80083e6:	683b      	ldr	r3, [r7, #0]
 80083e8:	6859      	ldr	r1, [r3, #4]
 80083ea:	683b      	ldr	r3, [r7, #0]
 80083ec:	68db      	ldr	r3, [r3, #12]
 80083ee:	461a      	mov	r2, r3
 80083f0:	f000 f8b4 	bl	800855c <TIM_TI1_ConfigInputStage>
 80083f4:	687b      	ldr	r3, [r7, #4]
 80083f6:	681b      	ldr	r3, [r3, #0]
 80083f8:	2140      	movs	r1, #64	@ 0x40
 80083fa:	4618      	mov	r0, r3
 80083fc:	f000 f90b 	bl	8008616 <TIM_ITRx_SetConfig>
 8008400:	e00c      	b.n	800841c <HAL_TIM_ConfigClockSource+0x174>
 8008402:	687b      	ldr	r3, [r7, #4]
 8008404:	681a      	ldr	r2, [r3, #0]
 8008406:	683b      	ldr	r3, [r7, #0]
 8008408:	681b      	ldr	r3, [r3, #0]
 800840a:	4619      	mov	r1, r3
 800840c:	4610      	mov	r0, r2
 800840e:	f000 f902 	bl	8008616 <TIM_ITRx_SetConfig>
 8008412:	e003      	b.n	800841c <HAL_TIM_ConfigClockSource+0x174>
 8008414:	2301      	movs	r3, #1
 8008416:	73fb      	strb	r3, [r7, #15]
 8008418:	e000      	b.n	800841c <HAL_TIM_ConfigClockSource+0x174>
 800841a:	bf00      	nop
 800841c:	687b      	ldr	r3, [r7, #4]
 800841e:	2201      	movs	r2, #1
 8008420:	f883 203d 	strb.w	r2, [r3, #61]	@ 0x3d
 8008424:	687b      	ldr	r3, [r7, #4]
 8008426:	2200      	movs	r2, #0
 8008428:	f883 203c 	strb.w	r2, [r3, #60]	@ 0x3c
 800842c:	7bfb      	ldrb	r3, [r7, #15]
 800842e:	4618      	mov	r0, r3
 8008430:	3710      	adds	r7, #16
 8008432:	46bd      	mov	sp, r7
 8008434:	bd80      	pop	{r7, pc}

08008436 <HAL_TIM_OC_DelayElapsedCallback>:
 8008436:	b480      	push	{r7}
 8008438:	b083      	sub	sp, #12
 800843a:	af00      	add	r7, sp, #0
 800843c:	6078      	str	r0, [r7, #4]
 800843e:	bf00      	nop
 8008440:	370c      	adds	r7, #12
 8008442:	46bd      	mov	sp, r7
 8008444:	bc80      	pop	{r7}
 8008446:	4770      	bx	lr

08008448 <HAL_TIM_IC_CaptureCallback>:
 8008448:	b480      	push	{r7}
 800844a:	b083      	sub	sp, #12
 800844c:	af00      	add	r7, sp, #0
 800844e:	6078      	str	r0, [r7, #4]
 8008450:	bf00      	nop
 8008452:	370c      	adds	r7, #12
 8008454:	46bd      	mov	sp, r7
 8008456:	bc80      	pop	{r7}
 8008458:	4770      	bx	lr

0800845a <HAL_TIM_PWM_PulseFinishedCallback>:
 800845a:	b480      	push	{r7}
 800845c:	b083      	sub	sp, #12
 800845e:	af00      	add	r7, sp, #0
 8008460:	6078      	str	r0, [r7, #4]
 8008462:	bf00      	nop
 8008464:	370c      	adds	r7, #12
 8008466:	46bd      	mov	sp, r7
 8008468:	bc80      	pop	{r7}
 800846a:	4770      	bx	lr

0800846c <HAL_TIM_TriggerCallback>:
 800846c:	b480      	push	{r7}
 800846e:	b083      	sub	sp, #12
 8008470:	af00      	add	r7, sp, #0
 8008472:	6078      	str	r0, [r7, #4]
 8008474:	bf00      	nop
 8008476:	370c      	adds	r7, #12
 8008478:	46bd      	mov	sp, r7
 800847a:	bc80      	pop	{r7}
 800847c:	4770      	bx	lr
	...

08008480 <TIM_Base_SetConfig>:
 8008480:	b480      	push	{r7}
 8008482:	b085      	sub	sp, #20
 8008484:	af00      	add	r7, sp, #0
 8008486:	6078      	str	r0, [r7, #4]
 8008488:	6039      	str	r1, [r7, #0]
 800848a:	687b      	ldr	r3, [r7, #4]
 800848c:	681b      	ldr	r3, [r3, #0]
 800848e:	60fb      	str	r3, [r7, #12]
 8008490:	687b      	ldr	r3, [r7, #4]
 8008492:	4a2f      	ldr	r2, [pc, #188]	@ (8008550 <TIM_Base_SetConfig+0xd0>)
 8008494:	4293      	cmp	r3, r2
 8008496:	d00b      	beq.n	80084b0 <TIM_Base_SetConfig+0x30>
 8008498:	687b      	ldr	r3, [r7, #4]
 800849a:	f1b3 4f80 	cmp.w	r3, #1073741824	@ 0x40000000
 800849e:	d007      	beq.n	80084b0 <TIM_Base_SetConfig+0x30>
 80084a0:	687b      	ldr	r3, [r7, #4]
 80084a2:	4a2c      	ldr	r2, [pc, #176]	@ (8008554 <TIM_Base_SetConfig+0xd4>)
 80084a4:	4293      	cmp	r3, r2
 80084a6:	d003      	beq.n	80084b0 <TIM_Base_SetConfig+0x30>
 80084a8:	687b      	ldr	r3, [r7, #4]
 80084aa:	4a2b      	ldr	r2, [pc, #172]	@ (8008558 <TIM_Base_SetConfig+0xd8>)
 80084ac:	4293      	cmp	r3, r2
 80084ae:	d108      	bne.n	80084c2 <TIM_Base_SetConfig+0x42>
 80084b0:	68fb      	ldr	r3, [r7, #12]
 80084b2:	f023 0370 	bic.w	r3, r3, #112	@ 0x70
 80084b6:	60fb      	str	r3, [r7, #12]
 80084b8:	683b      	ldr	r3, [r7, #0]
 80084ba:	685b      	ldr	r3, [r3, #4]
 80084bc:	68fa      	ldr	r2, [r7, #12]
 80084be:	4313      	orrs	r3, r2
 80084c0:	60fb      	str	r3, [r7, #12]
 80084c2:	687b      	ldr	r3, [r7, #4]
 80084c4:	4a22      	ldr	r2, [pc, #136]	@ (8008550 <TIM_Base_SetConfig+0xd0>)
 80084c6:	4293      	cmp	r3, r2
 80084c8:	d00b      	beq.n	80084e2 <TIM_Base_SetConfig+0x62>
 80084ca:	687b      	ldr	r3, [r7, #4]
 80084cc:	f1b3 4f80 	cmp.w	r3, #1073741824	@ 0x40000000
 80084d0:	d007      	beq.n	80084e2 <TIM_Base_SetConfig+0x62>
 80084d2:	687b      	ldr	r3, [r7, #4]
 80084d4:	4a1f      	ldr	r2, [pc, #124]	@ (8008554 <TIM_Base_SetConfig+0xd4>)
 80084d6:	4293      	cmp	r3, r2
 80084d8:	d003      	beq.n	80084e2 <TIM_Base_SetConfig+0x62>
 80084da:	687b      	ldr	r3, [r7, #4]
 80084dc:	4a1e      	ldr	r2, [pc, #120]	@ (8008558 <TIM_Base_SetConfig+0xd8>)
 80084de:	4293      	cmp	r3, r2
 80084e0:	d108      	bne.n	80084f4 <TIM_Base_SetConfig+0x74>
 80084e2:	68fb      	ldr	r3, [r7, #12]
 80084e4:	f423 7340 	bic.w	r3, r3, #768	@ 0x300
 80084e8:	60fb      	str	r3, [r7, #12]
 80084ea:	683b      	ldr	r3, [r7, #0]
 80084ec:	68db      	ldr	r3, [r3, #12]
 80084ee:	68fa      	ldr	r2, [r7, #12]
 80084f0:	4313      	orrs	r3, r2
 80084f2:	60fb      	str	r3, [r7, #12]
 80084f4:	68fb      	ldr	r3, [r7, #12]
 80084f6:	f023 0280 	bic.w	r2, r3, #128	@ 0x80
 80084fa:	683b      	ldr	r3, [r7, #0]
 80084fc:	695b      	ldr	r3, [r3, #20]
 80084fe:	4313      	orrs	r3, r2
 8008500:	60fb      	str	r3, [r7, #12]
 8008502:	687b      	ldr	r3, [r7, #4]
 8008504:	68fa      	ldr	r2, [r7, #12]
 8008506:	601a      	str	r2, [r3, #0]
 8008508:	683b      	ldr	r3, [r7, #0]
 800850a:	689a      	ldr	r2, [r3, #8]
 800850c:	687b      	ldr	r3, [r7, #4]
 800850e:	62da      	str	r2, [r3, #44]	@ 0x2c
 8008510:	683b      	ldr	r3, [r7, #0]
 8008512:	681a      	ldr	r2, [r3, #0]
 8008514:	687b      	ldr	r3, [r7, #4]
 8008516:	629a      	str	r2, [r3, #40]	@ 0x28
 8008518:	687b      	ldr	r3, [r7, #4]
 800851a:	4a0d      	ldr	r2, [pc, #52]	@ (8008550 <TIM_Base_SetConfig+0xd0>)
 800851c:	4293      	cmp	r3, r2
 800851e:	d103      	bne.n	8008528 <TIM_Base_SetConfig+0xa8>
 8008520:	683b      	ldr	r3, [r7, #0]
 8008522:	691a      	ldr	r2, [r3, #16]
 8008524:	687b      	ldr	r3, [r7, #4]
 8008526:	631a      	str	r2, [r3, #48]	@ 0x30
 8008528:	687b      	ldr	r3, [r7, #4]
 800852a:	2201      	movs	r2, #1
 800852c:	615a      	str	r2, [r3, #20]
 800852e:	687b      	ldr	r3, [r7, #4]
 8008530:	691b      	ldr	r3, [r3, #16]
 8008532:	f003 0301 	and.w	r3, r3, #1
 8008536:	2b00      	cmp	r3, #0
 8008538:	d005      	beq.n	8008546 <TIM_Base_SetConfig+0xc6>
 800853a:	687b      	ldr	r3, [r7, #4]
 800853c:	691b      	ldr	r3, [r3, #16]
 800853e:	f023 0201 	bic.w	r2, r3, #1
 8008542:	687b      	ldr	r3, [r7, #4]
 8008544:	611a      	str	r2, [r3, #16]
 8008546:	bf00      	nop
 8008548:	3714      	adds	r7, #20
 800854a:	46bd      	mov	sp, r7
 800854c:	bc80      	pop	{r7}
 800854e:	4770      	bx	lr
 8008550:	40012c00 	.word	0x40012c00
 8008554:	40000400 	.word	0x40000400
 8008558:	40000800 	.word	0x40000800

0800855c <TIM_TI1_ConfigInputStage>:
 800855c:	b480      	push	{r7}
 800855e:	b087      	sub	sp, #28
 8008560:	af00      	add	r7, sp, #0
 8008562:	60f8      	str	r0, [r7, #12]
 8008564:	60b9      	str	r1, [r7, #8]
 8008566:	607a      	str	r2, [r7, #4]
 8008568:	68fb      	ldr	r3, [r7, #12]
 800856a:	6a1b      	ldr	r3, [r3, #32]
 800856c:	617b      	str	r3, [r7, #20]
 800856e:	68fb      	ldr	r3, [r7, #12]
 8008570:	6a1b      	ldr	r3, [r3, #32]
 8008572:	f023 0201 	bic.w	r2, r3, #1
 8008576:	68fb      	ldr	r3, [r7, #12]
 8008578:	621a      	str	r2, [r3, #32]
 800857a:	68fb      	ldr	r3, [r7, #12]
 800857c:	699b      	ldr	r3, [r3, #24]
 800857e:	613b      	str	r3, [r7, #16]
 8008580:	693b      	ldr	r3, [r7, #16]
 8008582:	f023 03f0 	bic.w	r3, r3, #240	@ 0xf0
 8008586:	613b      	str	r3, [r7, #16]
 8008588:	687b      	ldr	r3, [r7, #4]
 800858a:	011b      	lsls	r3, r3, #4
 800858c:	693a      	ldr	r2, [r7, #16]
 800858e:	4313      	orrs	r3, r2
 8008590:	613b      	str	r3, [r7, #16]
 8008592:	697b      	ldr	r3, [r7, #20]
 8008594:	f023 030a 	bic.w	r3, r3, #10
 8008598:	617b      	str	r3, [r7, #20]
 800859a:	697a      	ldr	r2, [r7, #20]
 800859c:	68bb      	ldr	r3, [r7, #8]
 800859e:	4313      	orrs	r3, r2
 80085a0:	617b      	str	r3, [r7, #20]
 80085a2:	68fb      	ldr	r3, [r7, #12]
 80085a4:	693a      	ldr	r2, [r7, #16]
 80085a6:	619a      	str	r2, [r3, #24]
 80085a8:	68fb      	ldr	r3, [r7, #12]
 80085aa:	697a      	ldr	r2, [r7, #20]
 80085ac:	621a      	str	r2, [r3, #32]
 80085ae:	bf00      	nop
 80085b0:	371c      	adds	r7, #28
 80085b2:	46bd      	mov	sp, r7
 80085b4:	bc80      	pop	{r7}
 80085b6:	4770      	bx	lr

080085b8 <TIM_TI2_ConfigInputStage>:
 80085b8:	b480      	push	{r7}
 80085ba:	b087      	sub	sp, #28
 80085bc:	af00      	add	r7, sp, #0
 80085be:	60f8      	str	r0, [r7, #12]
 80085c0:	60b9      	str	r1, [r7, #8]
 80085c2:	607a      	str	r2, [r7, #4]
 80085c4:	68fb      	ldr	r3, [r7, #12]
 80085c6:	6a1b      	ldr	r3, [r3, #32]
 80085c8:	617b      	str	r3, [r7, #20]
 80085ca:	68fb      	ldr	r3, [r7, #12]
 80085cc:	6a1b      	ldr	r3, [r3, #32]
 80085ce:	f023 0210 	bic.w	r2, r3, #16
 80085d2:	68fb      	ldr	r3, [r7, #12]
 80085d4:	621a      	str	r2, [r3, #32]
 80085d6:	68fb      	ldr	r3, [r7, #12]
 80085d8:	699b      	ldr	r3, [r3, #24]
 80085da:	613b      	str	r3, [r7, #16]
 80085dc:	693b      	ldr	r3, [r7, #16]
 80085de:	f423 4370 	bic.w	r3, r3, #61440	@ 0xf000
 80085e2:	613b      	str	r3, [r7, #16]
 80085e4:	687b      	ldr	r3, [r7, #4]
 80085e6:	031b      	lsls	r3, r3, #12
 80085e8:	693a      	ldr	r2, [r7, #16]
 80085ea:	4313      	orrs	r3, r2
 80085ec:	613b      	str	r3, [r7, #16]
 80085ee:	697b      	ldr	r3, [r7, #20]
 80085f0:	f023 03a0 	bic.w	r3, r3, #160	@ 0xa0
 80085f4:	617b      	str	r3, [r7, #20]
 80085f6:	68bb      	ldr	r3, [r7, #8]
 80085f8:	011b      	lsls	r3, r3, #4
 80085fa:	697a      	ldr	r2, [r7, #20]
 80085fc:	4313      	orrs	r3, r2
 80085fe:	617b      	str	r3, [r7, #20]
 8008600:	68fb      	ldr	r3, [r7, #12]
 8008602:	693a      	ldr	r2, [r7, #16]
 8008604:	619a      	str	r2, [r3, #24]
 8008606:	68fb      	ldr	r3, [r7, #12]
 8008608:	697a      	ldr	r2, [r7, #20]
 800860a:	621a      	str	r2, [r3, #32]
 800860c:	bf00      	nop
 800860e:	371c      	adds	r7, #28
 8008610:	46bd      	mov	sp, r7
 8008612:	bc80      	pop	{r7}
 8008614:	4770      	bx	lr

08008616 <TIM_ITRx_SetConfig>:
 8008616:	b480      	push	{r7}
 8008618:	b085      	sub	sp, #20
 800861a:	af00      	add	r7, sp, #0
 800861c:	6078      	str	r0, [r7, #4]
 800861e:	6039      	str	r1, [r7, #0]
 8008620:	687b      	ldr	r3, [r7, #4]
 8008622:	689b      	ldr	r3, [r3, #8]
 8008624:	60fb      	str	r3, [r7, #12]
 8008626:	68fb      	ldr	r3, [r7, #12]
 8008628:	f023 0370 	bic.w	r3, r3, #112	@ 0x70
 800862c:	60fb      	str	r3, [r7, #12]
 800862e:	683a      	ldr	r2, [r7, #0]
 8008630:	68fb      	ldr	r3, [r7, #12]
 8008632:	4313      	orrs	r3, r2
 8008634:	f043 0307 	orr.w	r3, r3, #7
 8008638:	60fb      	str	r3, [r7, #12]
 800863a:	687b      	ldr	r3, [r7, #4]
 800863c:	68fa      	ldr	r2, [r7, #12]
 800863e:	609a      	str	r2, [r3, #8]
 8008640:	bf00      	nop
 8008642:	3714      	adds	r7, #20
 8008644:	46bd      	mov	sp, r7
 8008646:	bc80      	pop	{r7}
 8008648:	4770      	bx	lr

0800864a <TIM_ETR_SetConfig>:
 800864a:	b480      	push	{r7}
 800864c:	b087      	sub	sp, #28
 800864e:	af00      	add	r7, sp, #0
 8008650:	60f8      	str	r0, [r7, #12]
 8008652:	60b9      	str	r1, [r7, #8]
 8008654:	607a      	str	r2, [r7, #4]
 8008656:	603b      	str	r3, [r7, #0]
 8008658:	68fb      	ldr	r3, [r7, #12]
 800865a:	689b      	ldr	r3, [r3, #8]
 800865c:	617b      	str	r3, [r7, #20]
 800865e:	697b      	ldr	r3, [r7, #20]
 8008660:	f423 437f 	bic.w	r3, r3, #65280	@ 0xff00
 8008664:	617b      	str	r3, [r7, #20]
 8008666:	683b      	ldr	r3, [r7, #0]
 8008668:	021a      	lsls	r2, r3, #8
 800866a:	687b      	ldr	r3, [r7, #4]
 800866c:	431a      	orrs	r2, r3
 800866e:	68bb      	ldr	r3, [r7, #8]
 8008670:	4313      	orrs	r3, r2
 8008672:	697a      	ldr	r2, [r7, #20]
 8008674:	4313      	orrs	r3, r2
 8008676:	617b      	str	r3, [r7, #20]
 8008678:	68fb      	ldr	r3, [r7, #12]
 800867a:	697a      	ldr	r2, [r7, #20]
 800867c:	609a      	str	r2, [r3, #8]
 800867e:	bf00      	nop
 8008680:	371c      	adds	r7, #28
 8008682:	46bd      	mov	sp, r7
 8008684:	bc80      	pop	{r7}
 8008686:	4770      	bx	lr

08008688 <HAL_TIMEx_MasterConfigSynchronization>:
 8008688:	b480      	push	{r7}
 800868a:	b085      	sub	sp, #20
 800868c:	af00      	add	r7, sp, #0
 800868e:	6078      	str	r0, [r7, #4]
 8008690:	6039      	str	r1, [r7, #0]
 8008692:	687b      	ldr	r3, [r7, #4]
 8008694:	f893 303c 	ldrb.w	r3, [r3, #60]	@ 0x3c
 8008698:	2b01      	cmp	r3, #1
 800869a:	d101      	bne.n	80086a0 <HAL_TIMEx_MasterConfigSynchronization+0x18>
 800869c:	2302      	movs	r3, #2
 800869e:	e046      	b.n	800872e <HAL_TIMEx_MasterConfigSynchronization+0xa6>
 80086a0:	687b      	ldr	r3, [r7, #4]
 80086a2:	2201      	movs	r2, #1
 80086a4:	f883 203c 	strb.w	r2, [r3, #60]	@ 0x3c
 80086a8:	687b      	ldr	r3, [r7, #4]
 80086aa:	2202      	movs	r2, #2
 80086ac:	f883 203d 	strb.w	r2, [r3, #61]	@ 0x3d
 80086b0:	687b      	ldr	r3, [r7, #4]
 80086b2:	681b      	ldr	r3, [r3, #0]
 80086b4:	685b      	ldr	r3, [r3, #4]
 80086b6:	60fb      	str	r3, [r7, #12]
 80086b8:	687b      	ldr	r3, [r7, #4]
 80086ba:	681b      	ldr	r3, [r3, #0]
 80086bc:	689b      	ldr	r3, [r3, #8]
 80086be:	60bb      	str	r3, [r7, #8]
 80086c0:	68fb      	ldr	r3, [r7, #12]
 80086c2:	f023 0370 	bic.w	r3, r3, #112	@ 0x70
 80086c6:	60fb      	str	r3, [r7, #12]
 80086c8:	683b      	ldr	r3, [r7, #0]
 80086ca:	681b      	ldr	r3, [r3, #0]
 80086cc:	68fa      	ldr	r2, [r7, #12]
 80086ce:	4313      	orrs	r3, r2
 80086d0:	60fb      	str	r3, [r7, #12]
 80086d2:	687b      	ldr	r3, [r7, #4]
 80086d4:	681b      	ldr	r3, [r3, #0]
 80086d6:	68fa      	ldr	r2, [r7, #12]
 80086d8:	605a      	str	r2, [r3, #4]
 80086da:	687b      	ldr	r3, [r7, #4]
 80086dc:	681b      	ldr	r3, [r3, #0]
 80086de:	4a16      	ldr	r2, [pc, #88]	@ (8008738 <HAL_TIMEx_MasterConfigSynchronization+0xb0>)
 80086e0:	4293      	cmp	r3, r2
 80086e2:	d00e      	beq.n	8008702 <HAL_TIMEx_MasterConfigSynchronization+0x7a>
 80086e4:	687b      	ldr	r3, [r7, #4]
 80086e6:	681b      	ldr	r3, [r3, #0]
 80086e8:	f1b3 4f80 	cmp.w	r3, #1073741824	@ 0x40000000
 80086ec:	d009      	beq.n	8008702 <HAL_TIMEx_MasterConfigSynchronization+0x7a>
 80086ee:	687b      	ldr	r3, [r7, #4]
 80086f0:	681b      	ldr	r3, [r3, #0]
 80086f2:	4a12      	ldr	r2, [pc, #72]	@ (800873c <HAL_TIMEx_MasterConfigSynchronization+0xb4>)
 80086f4:	4293      	cmp	r3, r2
 80086f6:	d004      	beq.n	8008702 <HAL_TIMEx_MasterConfigSynchronization+0x7a>
 80086f8:	687b      	ldr	r3, [r7, #4]
 80086fa:	681b      	ldr	r3, [r3, #0]
 80086fc:	4a10      	ldr	r2, [pc, #64]	@ (8008740 <HAL_TIMEx_MasterConfigSynchronization+0xb8>)
 80086fe:	4293      	cmp	r3, r2
 8008700:	d10c      	bne.n	800871c <HAL_TIMEx_MasterConfigSynchronization+0x94>
 8008702:	68bb      	ldr	r3, [r7, #8]
 8008704:	f023 0380 	bic.w	r3, r3, #128	@ 0x80
 8008708:	60bb      	str	r3, [r7, #8]
 800870a:	683b      	ldr	r3, [r7, #0]
 800870c:	685b      	ldr	r3, [r3, #4]
 800870e:	68ba      	ldr	r2, [r7, #8]
 8008710:	4313      	orrs	r3, r2
 8008712:	60bb      	str	r3, [r7, #8]
 8008714:	687b      	ldr	r3, [r7, #4]
 8008716:	681b      	ldr	r3, [r3, #0]
 8008718:	68ba      	ldr	r2, [r7, #8]
 800871a:	609a      	str	r2, [r3, #8]
 800871c:	687b      	ldr	r3, [r7, #4]
 800871e:	2201      	movs	r2, #1
 8008720:	f883 203d 	strb.w	r2, [r3, #61]	@ 0x3d
 8008724:	687b      	ldr	r3, [r7, #4]
 8008726:	2200      	movs	r2, #0
 8008728:	f883 203c 	strb.w	r2, [r3, #60]	@ 0x3c
 800872c:	2300      	movs	r3, #0
 800872e:	4618      	mov	r0, r3
 8008730:	3714      	adds	r7, #20
 8008732:	46bd      	mov	sp, r7
 8008734:	bc80      	pop	{r7}
 8008736:	4770      	bx	lr
 8008738:	40012c00 	.word	0x40012c00
 800873c:	40000400 	.word	0x40000400
 8008740:	40000800 	.word	0x40000800

08008744 <HAL_TIMEx_CommutCallback>:
 8008744:	b480      	push	{r7}
 8008746:	b083      	sub	sp, #12
 8008748:	af00      	add	r7, sp, #0
 800874a:	6078      	str	r0, [r7, #4]
 800874c:	bf00      	nop
 800874e:	370c      	adds	r7, #12
 8008750:	46bd      	mov	sp, r7
 8008752:	bc80      	pop	{r7}
 8008754:	4770      	bx	lr

08008756 <HAL_TIMEx_BreakCallback>:
 8008756:	b480      	push	{r7}
 8008758:	b083      	sub	sp, #12
 800875a:	af00      	add	r7, sp, #0
 800875c:	6078      	str	r0, [r7, #4]
 800875e:	bf00      	nop
 8008760:	370c      	adds	r7, #12
 8008762:	46bd      	mov	sp, r7
 8008764:	bc80      	pop	{r7}
 8008766:	4770      	bx	lr

08008768 <HAL_UART_Init>:
 8008768:	b580      	push	{r7, lr}
 800876a:	b082      	sub	sp, #8
 800876c:	af00      	add	r7, sp, #0
 800876e:	6078      	str	r0, [r7, #4]
 8008770:	687b      	ldr	r3, [r7, #4]
 8008772:	2b00      	cmp	r3, #0
 8008774:	d101      	bne.n	800877a <HAL_UART_Init+0x12>
 8008776:	2301      	movs	r3, #1
 8008778:	e042      	b.n	8008800 <HAL_UART_Init+0x98>
 800877a:	687b      	ldr	r3, [r7, #4]
 800877c:	f893 3041 	ldrb.w	r3, [r3, #65]	@ 0x41
 8008780:	b2db      	uxtb	r3, r3
 8008782:	2b00      	cmp	r3, #0
 8008784:	d106      	bne.n	8008794 <HAL_UART_Init+0x2c>
 8008786:	687b      	ldr	r3, [r7, #4]
 8008788:	2200      	movs	r2, #0
 800878a:	f883 2040 	strb.w	r2, [r3, #64]	@ 0x40
 800878e:	6878      	ldr	r0, [r7, #4]
 8008790:	f7fc f9dc 	bl	8004b4c <HAL_UART_MspInit>
 8008794:	687b      	ldr	r3, [r7, #4]
 8008796:	2224      	movs	r2, #36	@ 0x24
 8008798:	f883 2041 	strb.w	r2, [r3, #65]	@ 0x41
 800879c:	687b      	ldr	r3, [r7, #4]
 800879e:	681b      	ldr	r3, [r3, #0]
 80087a0:	68da      	ldr	r2, [r3, #12]
 80087a2:	687b      	ldr	r3, [r7, #4]
 80087a4:	681b      	ldr	r3, [r3, #0]
 80087a6:	f422 5200 	bic.w	r2, r2, #8192	@ 0x2000
 80087aa:	60da      	str	r2, [r3, #12]
 80087ac:	6878      	ldr	r0, [r7, #4]
 80087ae:	f000 ff79 	bl	80096a4 <UART_SetConfig>
 80087b2:	687b      	ldr	r3, [r7, #4]
 80087b4:	681b      	ldr	r3, [r3, #0]
 80087b6:	691a      	ldr	r2, [r3, #16]
 80087b8:	687b      	ldr	r3, [r7, #4]
 80087ba:	681b      	ldr	r3, [r3, #0]
 80087bc:	f422 4290 	bic.w	r2, r2, #18432	@ 0x4800
 80087c0:	611a      	str	r2, [r3, #16]
 80087c2:	687b      	ldr	r3, [r7, #4]
 80087c4:	681b      	ldr	r3, [r3, #0]
 80087c6:	695a      	ldr	r2, [r3, #20]
 80087c8:	687b      	ldr	r3, [r7, #4]
 80087ca:	681b      	ldr	r3, [r3, #0]
 80087cc:	f022 022a 	bic.w	r2, r2, #42	@ 0x2a
 80087d0:	615a      	str	r2, [r3, #20]
 80087d2:	687b      	ldr	r3, [r7, #4]
 80087d4:	681b      	ldr	r3, [r3, #0]
 80087d6:	68da      	ldr	r2, [r3, #12]
 80087d8:	687b      	ldr	r3, [r7, #4]
 80087da:	681b      	ldr	r3, [r3, #0]
 80087dc:	f442 5200 	orr.w	r2, r2, #8192	@ 0x2000
 80087e0:	60da      	str	r2, [r3, #12]
 80087e2:	687b      	ldr	r3, [r7, #4]
 80087e4:	2200      	movs	r2, #0
 80087e6:	645a      	str	r2, [r3, #68]	@ 0x44
 80087e8:	687b      	ldr	r3, [r7, #4]
 80087ea:	2220      	movs	r2, #32
 80087ec:	f883 2041 	strb.w	r2, [r3, #65]	@ 0x41
 80087f0:	687b      	ldr	r3, [r7, #4]
 80087f2:	2220      	movs	r2, #32
 80087f4:	f883 2042 	strb.w	r2, [r3, #66]	@ 0x42
 80087f8:	687b      	ldr	r3, [r7, #4]
 80087fa:	2200      	movs	r2, #0
 80087fc:	635a      	str	r2, [r3, #52]	@ 0x34
 80087fe:	2300      	movs	r3, #0
 8008800:	4618      	mov	r0, r3
 8008802:	3708      	adds	r7, #8
 8008804:	46bd      	mov	sp, r7
 8008806:	bd80      	pop	{r7, pc}

08008808 <HAL_UART_Transmit>:
 8008808:	b580      	push	{r7, lr}
 800880a:	b08a      	sub	sp, #40	@ 0x28
 800880c:	af02      	add	r7, sp, #8
 800880e:	60f8      	str	r0, [r7, #12]
 8008810:	60b9      	str	r1, [r7, #8]
 8008812:	603b      	str	r3, [r7, #0]
 8008814:	4613      	mov	r3, r2
 8008816:	80fb      	strh	r3, [r7, #6]
 8008818:	2300      	movs	r3, #0
 800881a:	617b      	str	r3, [r7, #20]
 800881c:	68fb      	ldr	r3, [r7, #12]
 800881e:	f893 3041 	ldrb.w	r3, [r3, #65]	@ 0x41
 8008822:	b2db      	uxtb	r3, r3
 8008824:	2b20      	cmp	r3, #32
 8008826:	d175      	bne.n	8008914 <HAL_UART_Transmit+0x10c>
 8008828:	68bb      	ldr	r3, [r7, #8]
 800882a:	2b00      	cmp	r3, #0
 800882c:	d002      	beq.n	8008834 <HAL_UART_Transmit+0x2c>
 800882e:	88fb      	ldrh	r3, [r7, #6]
 8008830:	2b00      	cmp	r3, #0
 8008832:	d101      	bne.n	8008838 <HAL_UART_Transmit+0x30>
 8008834:	2301      	movs	r3, #1
 8008836:	e06e      	b.n	8008916 <HAL_UART_Transmit+0x10e>
 8008838:	68fb      	ldr	r3, [r7, #12]
 800883a:	2200      	movs	r2, #0
 800883c:	645a      	str	r2, [r3, #68]	@ 0x44
 800883e:	68fb      	ldr	r3, [r7, #12]
 8008840:	2221      	movs	r2, #33	@ 0x21
 8008842:	f883 2041 	strb.w	r2, [r3, #65]	@ 0x41
 8008846:	f7fc faf1 	bl	8004e2c <HAL_GetTick>
 800884a:	6178      	str	r0, [r7, #20]
 800884c:	68fb      	ldr	r3, [r7, #12]
 800884e:	88fa      	ldrh	r2, [r7, #6]
 8008850:	849a      	strh	r2, [r3, #36]	@ 0x24
 8008852:	68fb      	ldr	r3, [r7, #12]
 8008854:	88fa      	ldrh	r2, [r7, #6]
 8008856:	84da      	strh	r2, [r3, #38]	@ 0x26
 8008858:	68fb      	ldr	r3, [r7, #12]
 800885a:	689b      	ldr	r3, [r3, #8]
 800885c:	f5b3 5f80 	cmp.w	r3, #4096	@ 0x1000
 8008860:	d108      	bne.n	8008874 <HAL_UART_Transmit+0x6c>
 8008862:	68fb      	ldr	r3, [r7, #12]
 8008864:	691b      	ldr	r3, [r3, #16]
 8008866:	2b00      	cmp	r3, #0
 8008868:	d104      	bne.n	8008874 <HAL_UART_Transmit+0x6c>
 800886a:	2300      	movs	r3, #0
 800886c:	61fb      	str	r3, [r7, #28]
 800886e:	68bb      	ldr	r3, [r7, #8]
 8008870:	61bb      	str	r3, [r7, #24]
 8008872:	e003      	b.n	800887c <HAL_UART_Transmit+0x74>
 8008874:	68bb      	ldr	r3, [r7, #8]
 8008876:	61fb      	str	r3, [r7, #28]
 8008878:	2300      	movs	r3, #0
 800887a:	61bb      	str	r3, [r7, #24]
 800887c:	e02e      	b.n	80088dc <HAL_UART_Transmit+0xd4>
 800887e:	683b      	ldr	r3, [r7, #0]
 8008880:	9300      	str	r3, [sp, #0]
 8008882:	697b      	ldr	r3, [r7, #20]
 8008884:	2200      	movs	r2, #0
 8008886:	2180      	movs	r1, #128	@ 0x80
 8008888:	68f8      	ldr	r0, [r7, #12]
 800888a:	f000 fc55 	bl	8009138 <UART_WaitOnFlagUntilTimeout>
 800888e:	4603      	mov	r3, r0
 8008890:	2b00      	cmp	r3, #0
 8008892:	d005      	beq.n	80088a0 <HAL_UART_Transmit+0x98>
 8008894:	68fb      	ldr	r3, [r7, #12]
 8008896:	2220      	movs	r2, #32
 8008898:	f883 2041 	strb.w	r2, [r3, #65]	@ 0x41
 800889c:	2303      	movs	r3, #3
 800889e:	e03a      	b.n	8008916 <HAL_UART_Transmit+0x10e>
 80088a0:	69fb      	ldr	r3, [r7, #28]
 80088a2:	2b00      	cmp	r3, #0
 80088a4:	d10b      	bne.n	80088be <HAL_UART_Transmit+0xb6>
 80088a6:	69bb      	ldr	r3, [r7, #24]
 80088a8:	881b      	ldrh	r3, [r3, #0]
 80088aa:	461a      	mov	r2, r3
 80088ac:	68fb      	ldr	r3, [r7, #12]
 80088ae:	681b      	ldr	r3, [r3, #0]
 80088b0:	f3c2 0208 	ubfx	r2, r2, #0, #9
 80088b4:	605a      	str	r2, [r3, #4]
 80088b6:	69bb      	ldr	r3, [r7, #24]
 80088b8:	3302      	adds	r3, #2
 80088ba:	61bb      	str	r3, [r7, #24]
 80088bc:	e007      	b.n	80088ce <HAL_UART_Transmit+0xc6>
 80088be:	69fb      	ldr	r3, [r7, #28]
 80088c0:	781a      	ldrb	r2, [r3, #0]
 80088c2:	68fb      	ldr	r3, [r7, #12]
 80088c4:	681b      	ldr	r3, [r3, #0]
 80088c6:	605a      	str	r2, [r3, #4]
 80088c8:	69fb      	ldr	r3, [r7, #28]
 80088ca:	3301      	adds	r3, #1
 80088cc:	61fb      	str	r3, [r7, #28]
 80088ce:	68fb      	ldr	r3, [r7, #12]
 80088d0:	8cdb      	ldrh	r3, [r3, #38]	@ 0x26
 80088d2:	b29b      	uxth	r3, r3
 80088d4:	3b01      	subs	r3, #1
 80088d6:	b29a      	uxth	r2, r3
 80088d8:	68fb      	ldr	r3, [r7, #12]
 80088da:	84da      	strh	r2, [r3, #38]	@ 0x26
 80088dc:	68fb      	ldr	r3, [r7, #12]
 80088de:	8cdb      	ldrh	r3, [r3, #38]	@ 0x26
 80088e0:	b29b      	uxth	r3, r3
 80088e2:	2b00      	cmp	r3, #0
 80088e4:	d1cb      	bne.n	800887e <HAL_UART_Transmit+0x76>
 80088e6:	683b      	ldr	r3, [r7, #0]
 80088e8:	9300      	str	r3, [sp, #0]
 80088ea:	697b      	ldr	r3, [r7, #20]
 80088ec:	2200      	movs	r2, #0
 80088ee:	2140      	movs	r1, #64	@ 0x40
 80088f0:	68f8      	ldr	r0, [r7, #12]
 80088f2:	f000 fc21 	bl	8009138 <UART_WaitOnFlagUntilTimeout>
 80088f6:	4603      	mov	r3, r0
 80088f8:	2b00      	cmp	r3, #0
 80088fa:	d005      	beq.n	8008908 <HAL_UART_Transmit+0x100>
 80088fc:	68fb      	ldr	r3, [r7, #12]
 80088fe:	2220      	movs	r2, #32
 8008900:	f883 2041 	strb.w	r2, [r3, #65]	@ 0x41
 8008904:	2303      	movs	r3, #3
 8008906:	e006      	b.n	8008916 <HAL_UART_Transmit+0x10e>
 8008908:	68fb      	ldr	r3, [r7, #12]
 800890a:	2220      	movs	r2, #32
 800890c:	f883 2041 	strb.w	r2, [r3, #65]	@ 0x41
 8008910:	2300      	movs	r3, #0
 8008912:	e000      	b.n	8008916 <HAL_UART_Transmit+0x10e>
 8008914:	2302      	movs	r3, #2
 8008916:	4618      	mov	r0, r3
 8008918:	3720      	adds	r7, #32
 800891a:	46bd      	mov	sp, r7
 800891c:	bd80      	pop	{r7, pc}

0800891e <HAL_UARTEx_ReceiveToIdle_DMA>:
 800891e:	b580      	push	{r7, lr}
 8008920:	b08c      	sub	sp, #48	@ 0x30
 8008922:	af00      	add	r7, sp, #0
 8008924:	60f8      	str	r0, [r7, #12]
 8008926:	60b9      	str	r1, [r7, #8]
 8008928:	4613      	mov	r3, r2
 800892a:	80fb      	strh	r3, [r7, #6]
 800892c:	68fb      	ldr	r3, [r7, #12]
 800892e:	f893 3042 	ldrb.w	r3, [r3, #66]	@ 0x42
 8008932:	b2db      	uxtb	r3, r3
 8008934:	2b20      	cmp	r3, #32
 8008936:	d146      	bne.n	80089c6 <HAL_UARTEx_ReceiveToIdle_DMA+0xa8>
 8008938:	68bb      	ldr	r3, [r7, #8]
 800893a:	2b00      	cmp	r3, #0
 800893c:	d002      	beq.n	8008944 <HAL_UARTEx_ReceiveToIdle_DMA+0x26>
 800893e:	88fb      	ldrh	r3, [r7, #6]
 8008940:	2b00      	cmp	r3, #0
 8008942:	d101      	bne.n	8008948 <HAL_UARTEx_ReceiveToIdle_DMA+0x2a>
 8008944:	2301      	movs	r3, #1
 8008946:	e03f      	b.n	80089c8 <HAL_UARTEx_ReceiveToIdle_DMA+0xaa>
 8008948:	68fb      	ldr	r3, [r7, #12]
 800894a:	2201      	movs	r2, #1
 800894c:	631a      	str	r2, [r3, #48]	@ 0x30
 800894e:	68fb      	ldr	r3, [r7, #12]
 8008950:	2200      	movs	r2, #0
 8008952:	635a      	str	r2, [r3, #52]	@ 0x34
 8008954:	88fb      	ldrh	r3, [r7, #6]
 8008956:	461a      	mov	r2, r3
 8008958:	68b9      	ldr	r1, [r7, #8]
 800895a:	68f8      	ldr	r0, [r7, #12]
 800895c:	f000 fc46 	bl	80091ec <UART_Start_Receive_DMA>
 8008960:	4603      	mov	r3, r0
 8008962:	f887 302f 	strb.w	r3, [r7, #47]	@ 0x2f
 8008966:	68fb      	ldr	r3, [r7, #12]
 8008968:	6b1b      	ldr	r3, [r3, #48]	@ 0x30
 800896a:	2b01      	cmp	r3, #1
 800896c:	d125      	bne.n	80089ba <HAL_UARTEx_ReceiveToIdle_DMA+0x9c>
 800896e:	2300      	movs	r3, #0
 8008970:	613b      	str	r3, [r7, #16]
 8008972:	68fb      	ldr	r3, [r7, #12]
 8008974:	681b      	ldr	r3, [r3, #0]
 8008976:	681b      	ldr	r3, [r3, #0]
 8008978:	613b      	str	r3, [r7, #16]
 800897a:	68fb      	ldr	r3, [r7, #12]
 800897c:	681b      	ldr	r3, [r3, #0]
 800897e:	685b      	ldr	r3, [r3, #4]
 8008980:	613b      	str	r3, [r7, #16]
 8008982:	693b      	ldr	r3, [r7, #16]
 8008984:	68fb      	ldr	r3, [r7, #12]
 8008986:	681b      	ldr	r3, [r3, #0]
 8008988:	330c      	adds	r3, #12
 800898a:	61bb      	str	r3, [r7, #24]
 800898c:	69bb      	ldr	r3, [r7, #24]
 800898e:	e853 3f00 	ldrex	r3, [r3]
 8008992:	617b      	str	r3, [r7, #20]
 8008994:	697b      	ldr	r3, [r7, #20]
 8008996:	f043 0310 	orr.w	r3, r3, #16
 800899a:	62bb      	str	r3, [r7, #40]	@ 0x28
 800899c:	68fb      	ldr	r3, [r7, #12]
 800899e:	681b      	ldr	r3, [r3, #0]
 80089a0:	330c      	adds	r3, #12
 80089a2:	6aba      	ldr	r2, [r7, #40]	@ 0x28
 80089a4:	627a      	str	r2, [r7, #36]	@ 0x24
 80089a6:	623b      	str	r3, [r7, #32]
 80089a8:	6a39      	ldr	r1, [r7, #32]
 80089aa:	6a7a      	ldr	r2, [r7, #36]	@ 0x24
 80089ac:	e841 2300 	strex	r3, r2, [r1]
 80089b0:	61fb      	str	r3, [r7, #28]
 80089b2:	69fb      	ldr	r3, [r7, #28]
 80089b4:	2b00      	cmp	r3, #0
 80089b6:	d1e5      	bne.n	8008984 <HAL_UARTEx_ReceiveToIdle_DMA+0x66>
 80089b8:	e002      	b.n	80089c0 <HAL_UARTEx_ReceiveToIdle_DMA+0xa2>
 80089ba:	2301      	movs	r3, #1
 80089bc:	f887 302f 	strb.w	r3, [r7, #47]	@ 0x2f
 80089c0:	f897 302f 	ldrb.w	r3, [r7, #47]	@ 0x2f
 80089c4:	e000      	b.n	80089c8 <HAL_UARTEx_ReceiveToIdle_DMA+0xaa>
 80089c6:	2302      	movs	r3, #2
 80089c8:	4618      	mov	r0, r3
 80089ca:	3730      	adds	r7, #48	@ 0x30
 80089cc:	46bd      	mov	sp, r7
 80089ce:	bd80      	pop	{r7, pc}

080089d0 <HAL_UART_IRQHandler>:
 80089d0:	b580      	push	{r7, lr}
 80089d2:	b0ba      	sub	sp, #232	@ 0xe8
 80089d4:	af00      	add	r7, sp, #0
 80089d6:	6078      	str	r0, [r7, #4]
 80089d8:	687b      	ldr	r3, [r7, #4]
 80089da:	681b      	ldr	r3, [r3, #0]
 80089dc:	681b      	ldr	r3, [r3, #0]
 80089de:	f8c7 30e4 	str.w	r3, [r7, #228]	@ 0xe4
 80089e2:	687b      	ldr	r3, [r7, #4]
 80089e4:	681b      	ldr	r3, [r3, #0]
 80089e6:	68db      	ldr	r3, [r3, #12]
 80089e8:	f8c7 30e0 	str.w	r3, [r7, #224]	@ 0xe0
 80089ec:	687b      	ldr	r3, [r7, #4]
 80089ee:	681b      	ldr	r3, [r3, #0]
 80089f0:	695b      	ldr	r3, [r3, #20]
 80089f2:	f8c7 30dc 	str.w	r3, [r7, #220]	@ 0xdc
 80089f6:	2300      	movs	r3, #0
 80089f8:	f8c7 30d8 	str.w	r3, [r7, #216]	@ 0xd8
 80089fc:	2300      	movs	r3, #0
 80089fe:	f8c7 30d4 	str.w	r3, [r7, #212]	@ 0xd4
 8008a02:	f8d7 30e4 	ldr.w	r3, [r7, #228]	@ 0xe4
 8008a06:	f003 030f 	and.w	r3, r3, #15
 8008a0a:	f8c7 30d8 	str.w	r3, [r7, #216]	@ 0xd8
 8008a0e:	f8d7 30d8 	ldr.w	r3, [r7, #216]	@ 0xd8
 8008a12:	2b00      	cmp	r3, #0
 8008a14:	d10f      	bne.n	8008a36 <HAL_UART_IRQHandler+0x66>
 8008a16:	f8d7 30e4 	ldr.w	r3, [r7, #228]	@ 0xe4
 8008a1a:	f003 0320 	and.w	r3, r3, #32
 8008a1e:	2b00      	cmp	r3, #0
 8008a20:	d009      	beq.n	8008a36 <HAL_UART_IRQHandler+0x66>
 8008a22:	f8d7 30e0 	ldr.w	r3, [r7, #224]	@ 0xe0
 8008a26:	f003 0320 	and.w	r3, r3, #32
 8008a2a:	2b00      	cmp	r3, #0
 8008a2c:	d003      	beq.n	8008a36 <HAL_UART_IRQHandler+0x66>
 8008a2e:	6878      	ldr	r0, [r7, #4]
 8008a30:	f000 fd7a 	bl	8009528 <UART_Receive_IT>
 8008a34:	e25b      	b.n	8008eee <HAL_UART_IRQHandler+0x51e>
 8008a36:	f8d7 30d8 	ldr.w	r3, [r7, #216]	@ 0xd8
 8008a3a:	2b00      	cmp	r3, #0
 8008a3c:	f000 80de 	beq.w	8008bfc <HAL_UART_IRQHandler+0x22c>
 8008a40:	f8d7 30dc 	ldr.w	r3, [r7, #220]	@ 0xdc
 8008a44:	f003 0301 	and.w	r3, r3, #1
 8008a48:	2b00      	cmp	r3, #0
 8008a4a:	d106      	bne.n	8008a5a <HAL_UART_IRQHandler+0x8a>
 8008a4c:	f8d7 30e0 	ldr.w	r3, [r7, #224]	@ 0xe0
 8008a50:	f403 7390 	and.w	r3, r3, #288	@ 0x120
 8008a54:	2b00      	cmp	r3, #0
 8008a56:	f000 80d1 	beq.w	8008bfc <HAL_UART_IRQHandler+0x22c>
 8008a5a:	f8d7 30e4 	ldr.w	r3, [r7, #228]	@ 0xe4
 8008a5e:	f003 0301 	and.w	r3, r3, #1
 8008a62:	2b00      	cmp	r3, #0
 8008a64:	d00b      	beq.n	8008a7e <HAL_UART_IRQHandler+0xae>
 8008a66:	f8d7 30e0 	ldr.w	r3, [r7, #224]	@ 0xe0
 8008a6a:	f403 7380 	and.w	r3, r3, #256	@ 0x100
 8008a6e:	2b00      	cmp	r3, #0
 8008a70:	d005      	beq.n	8008a7e <HAL_UART_IRQHandler+0xae>
 8008a72:	687b      	ldr	r3, [r7, #4]
 8008a74:	6c5b      	ldr	r3, [r3, #68]	@ 0x44
 8008a76:	f043 0201 	orr.w	r2, r3, #1
 8008a7a:	687b      	ldr	r3, [r7, #4]
 8008a7c:	645a      	str	r2, [r3, #68]	@ 0x44
 8008a7e:	f8d7 30e4 	ldr.w	r3, [r7, #228]	@ 0xe4
 8008a82:	f003 0304 	and.w	r3, r3, #4
 8008a86:	2b00      	cmp	r3, #0
 8008a88:	d00b      	beq.n	8008aa2 <HAL_UART_IRQHandler+0xd2>
 8008a8a:	f8d7 30dc 	ldr.w	r3, [r7, #220]	@ 0xdc
 8008a8e:	f003 0301 	and.w	r3, r3, #1
 8008a92:	2b00      	cmp	r3, #0
 8008a94:	d005      	beq.n	8008aa2 <HAL_UART_IRQHandler+0xd2>
 8008a96:	687b      	ldr	r3, [r7, #4]
 8008a98:	6c5b      	ldr	r3, [r3, #68]	@ 0x44
 8008a9a:	f043 0202 	orr.w	r2, r3, #2
 8008a9e:	687b      	ldr	r3, [r7, #4]
 8008aa0:	645a      	str	r2, [r3, #68]	@ 0x44
 8008aa2:	f8d7 30e4 	ldr.w	r3, [r7, #228]	@ 0xe4
 8008aa6:	f003 0302 	and.w	r3, r3, #2
 8008aaa:	2b00      	cmp	r3, #0
 8008aac:	d00b      	beq.n	8008ac6 <HAL_UART_IRQHandler+0xf6>
 8008aae:	f8d7 30dc 	ldr.w	r3, [r7, #220]	@ 0xdc
 8008ab2:	f003 0301 	and.w	r3, r3, #1
 8008ab6:	2b00      	cmp	r3, #0
 8008ab8:	d005      	beq.n	8008ac6 <HAL_UART_IRQHandler+0xf6>
 8008aba:	687b      	ldr	r3, [r7, #4]
 8008abc:	6c5b      	ldr	r3, [r3, #68]	@ 0x44
 8008abe:	f043 0204 	orr.w	r2, r3, #4
 8008ac2:	687b      	ldr	r3, [r7, #4]
 8008ac4:	645a      	str	r2, [r3, #68]	@ 0x44
 8008ac6:	f8d7 30e4 	ldr.w	r3, [r7, #228]	@ 0xe4
 8008aca:	f003 0308 	and.w	r3, r3, #8
 8008ace:	2b00      	cmp	r3, #0
 8008ad0:	d011      	beq.n	8008af6 <HAL_UART_IRQHandler+0x126>
 8008ad2:	f8d7 30e0 	ldr.w	r3, [r7, #224]	@ 0xe0
 8008ad6:	f003 0320 	and.w	r3, r3, #32
 8008ada:	2b00      	cmp	r3, #0
 8008adc:	d105      	bne.n	8008aea <HAL_UART_IRQHandler+0x11a>
 8008ade:	f8d7 30dc 	ldr.w	r3, [r7, #220]	@ 0xdc
 8008ae2:	f003 0301 	and.w	r3, r3, #1
 8008ae6:	2b00      	cmp	r3, #0
 8008ae8:	d005      	beq.n	8008af6 <HAL_UART_IRQHandler+0x126>
 8008aea:	687b      	ldr	r3, [r7, #4]
 8008aec:	6c5b      	ldr	r3, [r3, #68]	@ 0x44
 8008aee:	f043 0208 	orr.w	r2, r3, #8
 8008af2:	687b      	ldr	r3, [r7, #4]
 8008af4:	645a      	str	r2, [r3, #68]	@ 0x44
 8008af6:	687b      	ldr	r3, [r7, #4]
 8008af8:	6c5b      	ldr	r3, [r3, #68]	@ 0x44
 8008afa:	2b00      	cmp	r3, #0
 8008afc:	f000 81f2 	beq.w	8008ee4 <HAL_UART_IRQHandler+0x514>
 8008b00:	f8d7 30e4 	ldr.w	r3, [r7, #228]	@ 0xe4
 8008b04:	f003 0320 	and.w	r3, r3, #32
 8008b08:	2b00      	cmp	r3, #0
 8008b0a:	d008      	beq.n	8008b1e <HAL_UART_IRQHandler+0x14e>
 8008b0c:	f8d7 30e0 	ldr.w	r3, [r7, #224]	@ 0xe0
 8008b10:	f003 0320 	and.w	r3, r3, #32
 8008b14:	2b00      	cmp	r3, #0
 8008b16:	d002      	beq.n	8008b1e <HAL_UART_IRQHandler+0x14e>
 8008b18:	6878      	ldr	r0, [r7, #4]
 8008b1a:	f000 fd05 	bl	8009528 <UART_Receive_IT>
 8008b1e:	687b      	ldr	r3, [r7, #4]
 8008b20:	681b      	ldr	r3, [r3, #0]
 8008b22:	695b      	ldr	r3, [r3, #20]
 8008b24:	f003 0340 	and.w	r3, r3, #64	@ 0x40
 8008b28:	2b00      	cmp	r3, #0
 8008b2a:	bf14      	ite	ne
 8008b2c:	2301      	movne	r3, #1
 8008b2e:	2300      	moveq	r3, #0
 8008b30:	b2db      	uxtb	r3, r3
 8008b32:	f8c7 30d4 	str.w	r3, [r7, #212]	@ 0xd4
 8008b36:	687b      	ldr	r3, [r7, #4]
 8008b38:	6c5b      	ldr	r3, [r3, #68]	@ 0x44
 8008b3a:	f003 0308 	and.w	r3, r3, #8
 8008b3e:	2b00      	cmp	r3, #0
 8008b40:	d103      	bne.n	8008b4a <HAL_UART_IRQHandler+0x17a>
 8008b42:	f8d7 30d4 	ldr.w	r3, [r7, #212]	@ 0xd4
 8008b46:	2b00      	cmp	r3, #0
 8008b48:	d04f      	beq.n	8008bea <HAL_UART_IRQHandler+0x21a>
 8008b4a:	6878      	ldr	r0, [r7, #4]
 8008b4c:	f000 fc0f 	bl	800936e <UART_EndRxTransfer>
 8008b50:	687b      	ldr	r3, [r7, #4]
 8008b52:	681b      	ldr	r3, [r3, #0]
 8008b54:	695b      	ldr	r3, [r3, #20]
 8008b56:	f003 0340 	and.w	r3, r3, #64	@ 0x40
 8008b5a:	2b00      	cmp	r3, #0
 8008b5c:	d041      	beq.n	8008be2 <HAL_UART_IRQHandler+0x212>
 8008b5e:	687b      	ldr	r3, [r7, #4]
 8008b60:	681b      	ldr	r3, [r3, #0]
 8008b62:	3314      	adds	r3, #20
 8008b64:	f8c7 309c 	str.w	r3, [r7, #156]	@ 0x9c
 8008b68:	f8d7 309c 	ldr.w	r3, [r7, #156]	@ 0x9c
 8008b6c:	e853 3f00 	ldrex	r3, [r3]
 8008b70:	f8c7 3098 	str.w	r3, [r7, #152]	@ 0x98
 8008b74:	f8d7 3098 	ldr.w	r3, [r7, #152]	@ 0x98
 8008b78:	f023 0340 	bic.w	r3, r3, #64	@ 0x40
 8008b7c:	f8c7 30d0 	str.w	r3, [r7, #208]	@ 0xd0
 8008b80:	687b      	ldr	r3, [r7, #4]
 8008b82:	681b      	ldr	r3, [r3, #0]
 8008b84:	3314      	adds	r3, #20
 8008b86:	f8d7 20d0 	ldr.w	r2, [r7, #208]	@ 0xd0
 8008b8a:	f8c7 20a8 	str.w	r2, [r7, #168]	@ 0xa8
 8008b8e:	f8c7 30a4 	str.w	r3, [r7, #164]	@ 0xa4
 8008b92:	f8d7 10a4 	ldr.w	r1, [r7, #164]	@ 0xa4
 8008b96:	f8d7 20a8 	ldr.w	r2, [r7, #168]	@ 0xa8
 8008b9a:	e841 2300 	strex	r3, r2, [r1]
 8008b9e:	f8c7 30a0 	str.w	r3, [r7, #160]	@ 0xa0
 8008ba2:	f8d7 30a0 	ldr.w	r3, [r7, #160]	@ 0xa0
 8008ba6:	2b00      	cmp	r3, #0
 8008ba8:	d1d9      	bne.n	8008b5e <HAL_UART_IRQHandler+0x18e>
 8008baa:	687b      	ldr	r3, [r7, #4]
 8008bac:	6bdb      	ldr	r3, [r3, #60]	@ 0x3c
 8008bae:	2b00      	cmp	r3, #0
 8008bb0:	d013      	beq.n	8008bda <HAL_UART_IRQHandler+0x20a>
 8008bb2:	687b      	ldr	r3, [r7, #4]
 8008bb4:	6bdb      	ldr	r3, [r3, #60]	@ 0x3c
 8008bb6:	4a7e      	ldr	r2, [pc, #504]	@ (8008db0 <HAL_UART_IRQHandler+0x3e0>)
 8008bb8:	635a      	str	r2, [r3, #52]	@ 0x34
 8008bba:	687b      	ldr	r3, [r7, #4]
 8008bbc:	6bdb      	ldr	r3, [r3, #60]	@ 0x3c
 8008bbe:	4618      	mov	r0, r3
 8008bc0:	f7fd fa56 	bl	8006070 <HAL_DMA_Abort_IT>
 8008bc4:	4603      	mov	r3, r0
 8008bc6:	2b00      	cmp	r3, #0
 8008bc8:	d016      	beq.n	8008bf8 <HAL_UART_IRQHandler+0x228>
 8008bca:	687b      	ldr	r3, [r7, #4]
 8008bcc:	6bdb      	ldr	r3, [r3, #60]	@ 0x3c
 8008bce:	6b5b      	ldr	r3, [r3, #52]	@ 0x34
 8008bd0:	687a      	ldr	r2, [r7, #4]
 8008bd2:	6bd2      	ldr	r2, [r2, #60]	@ 0x3c
 8008bd4:	4610      	mov	r0, r2
 8008bd6:	4798      	blx	r3
 8008bd8:	e00e      	b.n	8008bf8 <HAL_UART_IRQHandler+0x228>
 8008bda:	6878      	ldr	r0, [r7, #4]
 8008bdc:	f000 f9a5 	bl	8008f2a <HAL_UART_ErrorCallback>
 8008be0:	e00a      	b.n	8008bf8 <HAL_UART_IRQHandler+0x228>
 8008be2:	6878      	ldr	r0, [r7, #4]
 8008be4:	f000 f9a1 	bl	8008f2a <HAL_UART_ErrorCallback>
 8008be8:	e006      	b.n	8008bf8 <HAL_UART_IRQHandler+0x228>
 8008bea:	6878      	ldr	r0, [r7, #4]
 8008bec:	f000 f99d 	bl	8008f2a <HAL_UART_ErrorCallback>
 8008bf0:	687b      	ldr	r3, [r7, #4]
 8008bf2:	2200      	movs	r2, #0
 8008bf4:	645a      	str	r2, [r3, #68]	@ 0x44
 8008bf6:	e175      	b.n	8008ee4 <HAL_UART_IRQHandler+0x514>
 8008bf8:	bf00      	nop
 8008bfa:	e173      	b.n	8008ee4 <HAL_UART_IRQHandler+0x514>
 8008bfc:	687b      	ldr	r3, [r7, #4]
 8008bfe:	6b1b      	ldr	r3, [r3, #48]	@ 0x30
 8008c00:	2b01      	cmp	r3, #1
 8008c02:	f040 814f 	bne.w	8008ea4 <HAL_UART_IRQHandler+0x4d4>
 8008c06:	f8d7 30e4 	ldr.w	r3, [r7, #228]	@ 0xe4
 8008c0a:	f003 0310 	and.w	r3, r3, #16
 8008c0e:	2b00      	cmp	r3, #0
 8008c10:	f000 8148 	beq.w	8008ea4 <HAL_UART_IRQHandler+0x4d4>
 8008c14:	f8d7 30e0 	ldr.w	r3, [r7, #224]	@ 0xe0
 8008c18:	f003 0310 	and.w	r3, r3, #16
 8008c1c:	2b00      	cmp	r3, #0
 8008c1e:	f000 8141 	beq.w	8008ea4 <HAL_UART_IRQHandler+0x4d4>
 8008c22:	2300      	movs	r3, #0
 8008c24:	60bb      	str	r3, [r7, #8]
 8008c26:	687b      	ldr	r3, [r7, #4]
 8008c28:	681b      	ldr	r3, [r3, #0]
 8008c2a:	681b      	ldr	r3, [r3, #0]
 8008c2c:	60bb      	str	r3, [r7, #8]
 8008c2e:	687b      	ldr	r3, [r7, #4]
 8008c30:	681b      	ldr	r3, [r3, #0]
 8008c32:	685b      	ldr	r3, [r3, #4]
 8008c34:	60bb      	str	r3, [r7, #8]
 8008c36:	68bb      	ldr	r3, [r7, #8]
 8008c38:	687b      	ldr	r3, [r7, #4]
 8008c3a:	681b      	ldr	r3, [r3, #0]
 8008c3c:	695b      	ldr	r3, [r3, #20]
 8008c3e:	f003 0340 	and.w	r3, r3, #64	@ 0x40
 8008c42:	2b00      	cmp	r3, #0
 8008c44:	f000 80b6 	beq.w	8008db4 <HAL_UART_IRQHandler+0x3e4>
 8008c48:	687b      	ldr	r3, [r7, #4]
 8008c4a:	6bdb      	ldr	r3, [r3, #60]	@ 0x3c
 8008c4c:	681b      	ldr	r3, [r3, #0]
 8008c4e:	685b      	ldr	r3, [r3, #4]
 8008c50:	f8a7 30be 	strh.w	r3, [r7, #190]	@ 0xbe
 8008c54:	f8b7 30be 	ldrh.w	r3, [r7, #190]	@ 0xbe
 8008c58:	2b00      	cmp	r3, #0
 8008c5a:	f000 8145 	beq.w	8008ee8 <HAL_UART_IRQHandler+0x518>
 8008c5e:	687b      	ldr	r3, [r7, #4]
 8008c60:	8d9b      	ldrh	r3, [r3, #44]	@ 0x2c
 8008c62:	f8b7 20be 	ldrh.w	r2, [r7, #190]	@ 0xbe
 8008c66:	429a      	cmp	r2, r3
 8008c68:	f080 813e 	bcs.w	8008ee8 <HAL_UART_IRQHandler+0x518>
 8008c6c:	687b      	ldr	r3, [r7, #4]
 8008c6e:	f8b7 20be 	ldrh.w	r2, [r7, #190]	@ 0xbe
 8008c72:	85da      	strh	r2, [r3, #46]	@ 0x2e
 8008c74:	687b      	ldr	r3, [r7, #4]
 8008c76:	6bdb      	ldr	r3, [r3, #60]	@ 0x3c
 8008c78:	699b      	ldr	r3, [r3, #24]
 8008c7a:	2b20      	cmp	r3, #32
 8008c7c:	f000 8088 	beq.w	8008d90 <HAL_UART_IRQHandler+0x3c0>
 8008c80:	687b      	ldr	r3, [r7, #4]
 8008c82:	681b      	ldr	r3, [r3, #0]
 8008c84:	330c      	adds	r3, #12
 8008c86:	f8c7 3088 	str.w	r3, [r7, #136]	@ 0x88
 8008c8a:	f8d7 3088 	ldr.w	r3, [r7, #136]	@ 0x88
 8008c8e:	e853 3f00 	ldrex	r3, [r3]
 8008c92:	f8c7 3084 	str.w	r3, [r7, #132]	@ 0x84
 8008c96:	f8d7 3084 	ldr.w	r3, [r7, #132]	@ 0x84
 8008c9a:	f423 7380 	bic.w	r3, r3, #256	@ 0x100
 8008c9e:	f8c7 30b8 	str.w	r3, [r7, #184]	@ 0xb8
 8008ca2:	687b      	ldr	r3, [r7, #4]
 8008ca4:	681b      	ldr	r3, [r3, #0]
 8008ca6:	330c      	adds	r3, #12
 8008ca8:	f8d7 20b8 	ldr.w	r2, [r7, #184]	@ 0xb8
 8008cac:	f8c7 2094 	str.w	r2, [r7, #148]	@ 0x94
 8008cb0:	f8c7 3090 	str.w	r3, [r7, #144]	@ 0x90
 8008cb4:	f8d7 1090 	ldr.w	r1, [r7, #144]	@ 0x90
 8008cb8:	f8d7 2094 	ldr.w	r2, [r7, #148]	@ 0x94
 8008cbc:	e841 2300 	strex	r3, r2, [r1]
 8008cc0:	f8c7 308c 	str.w	r3, [r7, #140]	@ 0x8c
 8008cc4:	f8d7 308c 	ldr.w	r3, [r7, #140]	@ 0x8c
 8008cc8:	2b00      	cmp	r3, #0
 8008cca:	d1d9      	bne.n	8008c80 <HAL_UART_IRQHandler+0x2b0>
 8008ccc:	687b      	ldr	r3, [r7, #4]
 8008cce:	681b      	ldr	r3, [r3, #0]
 8008cd0:	3314      	adds	r3, #20
 8008cd2:	677b      	str	r3, [r7, #116]	@ 0x74
 8008cd4:	6f7b      	ldr	r3, [r7, #116]	@ 0x74
 8008cd6:	e853 3f00 	ldrex	r3, [r3]
 8008cda:	673b      	str	r3, [r7, #112]	@ 0x70
 8008cdc:	6f3b      	ldr	r3, [r7, #112]	@ 0x70
 8008cde:	f023 0301 	bic.w	r3, r3, #1
 8008ce2:	f8c7 30b4 	str.w	r3, [r7, #180]	@ 0xb4
 8008ce6:	687b      	ldr	r3, [r7, #4]
 8008ce8:	681b      	ldr	r3, [r3, #0]
 8008cea:	3314      	adds	r3, #20
 8008cec:	f8d7 20b4 	ldr.w	r2, [r7, #180]	@ 0xb4
 8008cf0:	f8c7 2080 	str.w	r2, [r7, #128]	@ 0x80
 8008cf4:	67fb      	str	r3, [r7, #124]	@ 0x7c
 8008cf6:	6ff9      	ldr	r1, [r7, #124]	@ 0x7c
 8008cf8:	f8d7 2080 	ldr.w	r2, [r7, #128]	@ 0x80
 8008cfc:	e841 2300 	strex	r3, r2, [r1]
 8008d00:	67bb      	str	r3, [r7, #120]	@ 0x78
 8008d02:	6fbb      	ldr	r3, [r7, #120]	@ 0x78
 8008d04:	2b00      	cmp	r3, #0
 8008d06:	d1e1      	bne.n	8008ccc <HAL_UART_IRQHandler+0x2fc>
 8008d08:	687b      	ldr	r3, [r7, #4]
 8008d0a:	681b      	ldr	r3, [r3, #0]
 8008d0c:	3314      	adds	r3, #20
 8008d0e:	663b      	str	r3, [r7, #96]	@ 0x60
 8008d10:	6e3b      	ldr	r3, [r7, #96]	@ 0x60
 8008d12:	e853 3f00 	ldrex	r3, [r3]
 8008d16:	65fb      	str	r3, [r7, #92]	@ 0x5c
 8008d18:	6dfb      	ldr	r3, [r7, #92]	@ 0x5c
 8008d1a:	f023 0340 	bic.w	r3, r3, #64	@ 0x40
 8008d1e:	f8c7 30b0 	str.w	r3, [r7, #176]	@ 0xb0
 8008d22:	687b      	ldr	r3, [r7, #4]
 8008d24:	681b      	ldr	r3, [r3, #0]
 8008d26:	3314      	adds	r3, #20
 8008d28:	f8d7 20b0 	ldr.w	r2, [r7, #176]	@ 0xb0
 8008d2c:	66fa      	str	r2, [r7, #108]	@ 0x6c
 8008d2e:	66bb      	str	r3, [r7, #104]	@ 0x68
 8008d30:	6eb9      	ldr	r1, [r7, #104]	@ 0x68
 8008d32:	6efa      	ldr	r2, [r7, #108]	@ 0x6c
 8008d34:	e841 2300 	strex	r3, r2, [r1]
 8008d38:	667b      	str	r3, [r7, #100]	@ 0x64
 8008d3a:	6e7b      	ldr	r3, [r7, #100]	@ 0x64
 8008d3c:	2b00      	cmp	r3, #0
 8008d3e:	d1e3      	bne.n	8008d08 <HAL_UART_IRQHandler+0x338>
 8008d40:	687b      	ldr	r3, [r7, #4]
 8008d42:	2220      	movs	r2, #32
 8008d44:	f883 2042 	strb.w	r2, [r3, #66]	@ 0x42
 8008d48:	687b      	ldr	r3, [r7, #4]
 8008d4a:	2200      	movs	r2, #0
 8008d4c:	631a      	str	r2, [r3, #48]	@ 0x30
 8008d4e:	687b      	ldr	r3, [r7, #4]
 8008d50:	681b      	ldr	r3, [r3, #0]
 8008d52:	330c      	adds	r3, #12
 8008d54:	64fb      	str	r3, [r7, #76]	@ 0x4c
 8008d56:	6cfb      	ldr	r3, [r7, #76]	@ 0x4c
 8008d58:	e853 3f00 	ldrex	r3, [r3]
 8008d5c:	64bb      	str	r3, [r7, #72]	@ 0x48
 8008d5e:	6cbb      	ldr	r3, [r7, #72]	@ 0x48
 8008d60:	f023 0310 	bic.w	r3, r3, #16
 8008d64:	f8c7 30ac 	str.w	r3, [r7, #172]	@ 0xac
 8008d68:	687b      	ldr	r3, [r7, #4]
 8008d6a:	681b      	ldr	r3, [r3, #0]
 8008d6c:	330c      	adds	r3, #12
 8008d6e:	f8d7 20ac 	ldr.w	r2, [r7, #172]	@ 0xac
 8008d72:	65ba      	str	r2, [r7, #88]	@ 0x58
 8008d74:	657b      	str	r3, [r7, #84]	@ 0x54
 8008d76:	6d79      	ldr	r1, [r7, #84]	@ 0x54
 8008d78:	6dba      	ldr	r2, [r7, #88]	@ 0x58
 8008d7a:	e841 2300 	strex	r3, r2, [r1]
 8008d7e:	653b      	str	r3, [r7, #80]	@ 0x50
 8008d80:	6d3b      	ldr	r3, [r7, #80]	@ 0x50
 8008d82:	2b00      	cmp	r3, #0
 8008d84:	d1e3      	bne.n	8008d4e <HAL_UART_IRQHandler+0x37e>
 8008d86:	687b      	ldr	r3, [r7, #4]
 8008d88:	6bdb      	ldr	r3, [r3, #60]	@ 0x3c
 8008d8a:	4618      	mov	r0, r3
 8008d8c:	f7fd f934 	bl	8005ff8 <HAL_DMA_Abort>
 8008d90:	687b      	ldr	r3, [r7, #4]
 8008d92:	2202      	movs	r2, #2
 8008d94:	635a      	str	r2, [r3, #52]	@ 0x34
 8008d96:	687b      	ldr	r3, [r7, #4]
 8008d98:	8d9a      	ldrh	r2, [r3, #44]	@ 0x2c
 8008d9a:	687b      	ldr	r3, [r7, #4]
 8008d9c:	8ddb      	ldrh	r3, [r3, #46]	@ 0x2e
 8008d9e:	b29b      	uxth	r3, r3
 8008da0:	1ad3      	subs	r3, r2, r3
 8008da2:	b29b      	uxth	r3, r3
 8008da4:	4619      	mov	r1, r3
 8008da6:	6878      	ldr	r0, [r7, #4]
 8008da8:	f7f9 f820 	bl	8001dec <HAL_UARTEx_RxEventCallback>
 8008dac:	e09c      	b.n	8008ee8 <HAL_UART_IRQHandler+0x518>
 8008dae:	bf00      	nop
 8008db0:	08009433 	.word	0x08009433
 8008db4:	687b      	ldr	r3, [r7, #4]
 8008db6:	8d9a      	ldrh	r2, [r3, #44]	@ 0x2c
 8008db8:	687b      	ldr	r3, [r7, #4]
 8008dba:	8ddb      	ldrh	r3, [r3, #46]	@ 0x2e
 8008dbc:	b29b      	uxth	r3, r3
 8008dbe:	1ad3      	subs	r3, r2, r3
 8008dc0:	f8a7 30ce 	strh.w	r3, [r7, #206]	@ 0xce
 8008dc4:	687b      	ldr	r3, [r7, #4]
 8008dc6:	8ddb      	ldrh	r3, [r3, #46]	@ 0x2e
 8008dc8:	b29b      	uxth	r3, r3
 8008dca:	2b00      	cmp	r3, #0
 8008dcc:	f000 808e 	beq.w	8008eec <HAL_UART_IRQHandler+0x51c>
 8008dd0:	f8b7 30ce 	ldrh.w	r3, [r7, #206]	@ 0xce
 8008dd4:	2b00      	cmp	r3, #0
 8008dd6:	f000 8089 	beq.w	8008eec <HAL_UART_IRQHandler+0x51c>
 8008dda:	687b      	ldr	r3, [r7, #4]
 8008ddc:	681b      	ldr	r3, [r3, #0]
 8008dde:	330c      	adds	r3, #12
 8008de0:	63bb      	str	r3, [r7, #56]	@ 0x38
 8008de2:	6bbb      	ldr	r3, [r7, #56]	@ 0x38
 8008de4:	e853 3f00 	ldrex	r3, [r3]
 8008de8:	637b      	str	r3, [r7, #52]	@ 0x34
 8008dea:	6b7b      	ldr	r3, [r7, #52]	@ 0x34
 8008dec:	f423 7390 	bic.w	r3, r3, #288	@ 0x120
 8008df0:	f8c7 30c8 	str.w	r3, [r7, #200]	@ 0xc8
 8008df4:	687b      	ldr	r3, [r7, #4]
 8008df6:	681b      	ldr	r3, [r3, #0]
 8008df8:	330c      	adds	r3, #12
 8008dfa:	f8d7 20c8 	ldr.w	r2, [r7, #200]	@ 0xc8
 8008dfe:	647a      	str	r2, [r7, #68]	@ 0x44
 8008e00:	643b      	str	r3, [r7, #64]	@ 0x40
 8008e02:	6c39      	ldr	r1, [r7, #64]	@ 0x40
 8008e04:	6c7a      	ldr	r2, [r7, #68]	@ 0x44
 8008e06:	e841 2300 	strex	r3, r2, [r1]
 8008e0a:	63fb      	str	r3, [r7, #60]	@ 0x3c
 8008e0c:	6bfb      	ldr	r3, [r7, #60]	@ 0x3c
 8008e0e:	2b00      	cmp	r3, #0
 8008e10:	d1e3      	bne.n	8008dda <HAL_UART_IRQHandler+0x40a>
 8008e12:	687b      	ldr	r3, [r7, #4]
 8008e14:	681b      	ldr	r3, [r3, #0]
 8008e16:	3314      	adds	r3, #20
 8008e18:	627b      	str	r3, [r7, #36]	@ 0x24
 8008e1a:	6a7b      	ldr	r3, [r7, #36]	@ 0x24
 8008e1c:	e853 3f00 	ldrex	r3, [r3]
 8008e20:	623b      	str	r3, [r7, #32]
 8008e22:	6a3b      	ldr	r3, [r7, #32]
 8008e24:	f023 0301 	bic.w	r3, r3, #1
 8008e28:	f8c7 30c4 	str.w	r3, [r7, #196]	@ 0xc4
 8008e2c:	687b      	ldr	r3, [r7, #4]
 8008e2e:	681b      	ldr	r3, [r3, #0]
 8008e30:	3314      	adds	r3, #20
 8008e32:	f8d7 20c4 	ldr.w	r2, [r7, #196]	@ 0xc4
 8008e36:	633a      	str	r2, [r7, #48]	@ 0x30
 8008e38:	62fb      	str	r3, [r7, #44]	@ 0x2c
 8008e3a:	6af9      	ldr	r1, [r7, #44]	@ 0x2c
 8008e3c:	6b3a      	ldr	r2, [r7, #48]	@ 0x30
 8008e3e:	e841 2300 	strex	r3, r2, [r1]
 8008e42:	62bb      	str	r3, [r7, #40]	@ 0x28
 8008e44:	6abb      	ldr	r3, [r7, #40]	@ 0x28
 8008e46:	2b00      	cmp	r3, #0
 8008e48:	d1e3      	bne.n	8008e12 <HAL_UART_IRQHandler+0x442>
 8008e4a:	687b      	ldr	r3, [r7, #4]
 8008e4c:	2220      	movs	r2, #32
 8008e4e:	f883 2042 	strb.w	r2, [r3, #66]	@ 0x42
 8008e52:	687b      	ldr	r3, [r7, #4]
 8008e54:	2200      	movs	r2, #0
 8008e56:	631a      	str	r2, [r3, #48]	@ 0x30
 8008e58:	687b      	ldr	r3, [r7, #4]
 8008e5a:	681b      	ldr	r3, [r3, #0]
 8008e5c:	330c      	adds	r3, #12
 8008e5e:	613b      	str	r3, [r7, #16]
 8008e60:	693b      	ldr	r3, [r7, #16]
 8008e62:	e853 3f00 	ldrex	r3, [r3]
 8008e66:	60fb      	str	r3, [r7, #12]
 8008e68:	68fb      	ldr	r3, [r7, #12]
 8008e6a:	f023 0310 	bic.w	r3, r3, #16
 8008e6e:	f8c7 30c0 	str.w	r3, [r7, #192]	@ 0xc0
 8008e72:	687b      	ldr	r3, [r7, #4]
 8008e74:	681b      	ldr	r3, [r3, #0]
 8008e76:	330c      	adds	r3, #12
 8008e78:	f8d7 20c0 	ldr.w	r2, [r7, #192]	@ 0xc0
 8008e7c:	61fa      	str	r2, [r7, #28]
 8008e7e:	61bb      	str	r3, [r7, #24]
 8008e80:	69b9      	ldr	r1, [r7, #24]
 8008e82:	69fa      	ldr	r2, [r7, #28]
 8008e84:	e841 2300 	strex	r3, r2, [r1]
 8008e88:	617b      	str	r3, [r7, #20]
 8008e8a:	697b      	ldr	r3, [r7, #20]
 8008e8c:	2b00      	cmp	r3, #0
 8008e8e:	d1e3      	bne.n	8008e58 <HAL_UART_IRQHandler+0x488>
 8008e90:	687b      	ldr	r3, [r7, #4]
 8008e92:	2202      	movs	r2, #2
 8008e94:	635a      	str	r2, [r3, #52]	@ 0x34
 8008e96:	f8b7 30ce 	ldrh.w	r3, [r7, #206]	@ 0xce
 8008e9a:	4619      	mov	r1, r3
 8008e9c:	6878      	ldr	r0, [r7, #4]
 8008e9e:	f7f8 ffa5 	bl	8001dec <HAL_UARTEx_RxEventCallback>
 8008ea2:	e023      	b.n	8008eec <HAL_UART_IRQHandler+0x51c>
 8008ea4:	f8d7 30e4 	ldr.w	r3, [r7, #228]	@ 0xe4
 8008ea8:	f003 0380 	and.w	r3, r3, #128	@ 0x80
 8008eac:	2b00      	cmp	r3, #0
 8008eae:	d009      	beq.n	8008ec4 <HAL_UART_IRQHandler+0x4f4>
 8008eb0:	f8d7 30e0 	ldr.w	r3, [r7, #224]	@ 0xe0
 8008eb4:	f003 0380 	and.w	r3, r3, #128	@ 0x80
 8008eb8:	2b00      	cmp	r3, #0
 8008eba:	d003      	beq.n	8008ec4 <HAL_UART_IRQHandler+0x4f4>
 8008ebc:	6878      	ldr	r0, [r7, #4]
 8008ebe:	f000 facc 	bl	800945a <UART_Transmit_IT>
 8008ec2:	e014      	b.n	8008eee <HAL_UART_IRQHandler+0x51e>
 8008ec4:	f8d7 30e4 	ldr.w	r3, [r7, #228]	@ 0xe4
 8008ec8:	f003 0340 	and.w	r3, r3, #64	@ 0x40
 8008ecc:	2b00      	cmp	r3, #0
 8008ece:	d00e      	beq.n	8008eee <HAL_UART_IRQHandler+0x51e>
 8008ed0:	f8d7 30e0 	ldr.w	r3, [r7, #224]	@ 0xe0
 8008ed4:	f003 0340 	and.w	r3, r3, #64	@ 0x40
 8008ed8:	2b00      	cmp	r3, #0
 8008eda:	d008      	beq.n	8008eee <HAL_UART_IRQHandler+0x51e>
 8008edc:	6878      	ldr	r0, [r7, #4]
 8008ede:	f000 fb0b 	bl	80094f8 <UART_EndTransmit_IT>
 8008ee2:	e004      	b.n	8008eee <HAL_UART_IRQHandler+0x51e>
 8008ee4:	bf00      	nop
 8008ee6:	e002      	b.n	8008eee <HAL_UART_IRQHandler+0x51e>
 8008ee8:	bf00      	nop
 8008eea:	e000      	b.n	8008eee <HAL_UART_IRQHandler+0x51e>
 8008eec:	bf00      	nop
 8008eee:	37e8      	adds	r7, #232	@ 0xe8
 8008ef0:	46bd      	mov	sp, r7
 8008ef2:	bd80      	pop	{r7, pc}

08008ef4 <HAL_UART_TxCpltCallback>:
 8008ef4:	b480      	push	{r7}
 8008ef6:	b083      	sub	sp, #12
 8008ef8:	af00      	add	r7, sp, #0
 8008efa:	6078      	str	r0, [r7, #4]
 8008efc:	bf00      	nop
 8008efe:	370c      	adds	r7, #12
 8008f00:	46bd      	mov	sp, r7
 8008f02:	bc80      	pop	{r7}
 8008f04:	4770      	bx	lr

08008f06 <HAL_UART_RxCpltCallback>:
 8008f06:	b480      	push	{r7}
 8008f08:	b083      	sub	sp, #12
 8008f0a:	af00      	add	r7, sp, #0
 8008f0c:	6078      	str	r0, [r7, #4]
 8008f0e:	bf00      	nop
 8008f10:	370c      	adds	r7, #12
 8008f12:	46bd      	mov	sp, r7
 8008f14:	bc80      	pop	{r7}
 8008f16:	4770      	bx	lr

08008f18 <HAL_UART_RxHalfCpltCallback>:
 8008f18:	b480      	push	{r7}
 8008f1a:	b083      	sub	sp, #12
 8008f1c:	af00      	add	r7, sp, #0
 8008f1e:	6078      	str	r0, [r7, #4]
 8008f20:	bf00      	nop
 8008f22:	370c      	adds	r7, #12
 8008f24:	46bd      	mov	sp, r7
 8008f26:	bc80      	pop	{r7}
 8008f28:	4770      	bx	lr

08008f2a <HAL_UART_ErrorCallback>:
 8008f2a:	b480      	push	{r7}
 8008f2c:	b083      	sub	sp, #12
 8008f2e:	af00      	add	r7, sp, #0
 8008f30:	6078      	str	r0, [r7, #4]
 8008f32:	bf00      	nop
 8008f34:	370c      	adds	r7, #12
 8008f36:	46bd      	mov	sp, r7
 8008f38:	bc80      	pop	{r7}
 8008f3a:	4770      	bx	lr

08008f3c <UART_DMAReceiveCplt>:
 8008f3c:	b580      	push	{r7, lr}
 8008f3e:	b09c      	sub	sp, #112	@ 0x70
 8008f40:	af00      	add	r7, sp, #0
 8008f42:	6078      	str	r0, [r7, #4]
 8008f44:	687b      	ldr	r3, [r7, #4]
 8008f46:	6a5b      	ldr	r3, [r3, #36]	@ 0x24
 8008f48:	66fb      	str	r3, [r7, #108]	@ 0x6c
 8008f4a:	687b      	ldr	r3, [r7, #4]
 8008f4c:	681b      	ldr	r3, [r3, #0]
 8008f4e:	681b      	ldr	r3, [r3, #0]
 8008f50:	f003 0320 	and.w	r3, r3, #32
 8008f54:	2b00      	cmp	r3, #0
 8008f56:	d172      	bne.n	800903e <UART_DMAReceiveCplt+0x102>
 8008f58:	6efb      	ldr	r3, [r7, #108]	@ 0x6c
 8008f5a:	2200      	movs	r2, #0
 8008f5c:	85da      	strh	r2, [r3, #46]	@ 0x2e
 8008f5e:	6efb      	ldr	r3, [r7, #108]	@ 0x6c
 8008f60:	681b      	ldr	r3, [r3, #0]
 8008f62:	330c      	adds	r3, #12
 8008f64:	64fb      	str	r3, [r7, #76]	@ 0x4c
 8008f66:	6cfb      	ldr	r3, [r7, #76]	@ 0x4c
 8008f68:	e853 3f00 	ldrex	r3, [r3]
 8008f6c:	64bb      	str	r3, [r7, #72]	@ 0x48
 8008f6e:	6cbb      	ldr	r3, [r7, #72]	@ 0x48
 8008f70:	f423 7380 	bic.w	r3, r3, #256	@ 0x100
 8008f74:	66bb      	str	r3, [r7, #104]	@ 0x68
 8008f76:	6efb      	ldr	r3, [r7, #108]	@ 0x6c
 8008f78:	681b      	ldr	r3, [r3, #0]
 8008f7a:	330c      	adds	r3, #12
 8008f7c:	6eba      	ldr	r2, [r7, #104]	@ 0x68
 8008f7e:	65ba      	str	r2, [r7, #88]	@ 0x58
 8008f80:	657b      	str	r3, [r7, #84]	@ 0x54
 8008f82:	6d79      	ldr	r1, [r7, #84]	@ 0x54
 8008f84:	6dba      	ldr	r2, [r7, #88]	@ 0x58
 8008f86:	e841 2300 	strex	r3, r2, [r1]
 8008f8a:	653b      	str	r3, [r7, #80]	@ 0x50
 8008f8c:	6d3b      	ldr	r3, [r7, #80]	@ 0x50
 8008f8e:	2b00      	cmp	r3, #0
 8008f90:	d1e5      	bne.n	8008f5e <UART_DMAReceiveCplt+0x22>
 8008f92:	6efb      	ldr	r3, [r7, #108]	@ 0x6c
 8008f94:	681b      	ldr	r3, [r3, #0]
 8008f96:	3314      	adds	r3, #20
 8008f98:	63bb      	str	r3, [r7, #56]	@ 0x38
 8008f9a:	6bbb      	ldr	r3, [r7, #56]	@ 0x38
 8008f9c:	e853 3f00 	ldrex	r3, [r3]
 8008fa0:	637b      	str	r3, [r7, #52]	@ 0x34
 8008fa2:	6b7b      	ldr	r3, [r7, #52]	@ 0x34
 8008fa4:	f023 0301 	bic.w	r3, r3, #1
 8008fa8:	667b      	str	r3, [r7, #100]	@ 0x64
 8008faa:	6efb      	ldr	r3, [r7, #108]	@ 0x6c
 8008fac:	681b      	ldr	r3, [r3, #0]
 8008fae:	3314      	adds	r3, #20
 8008fb0:	6e7a      	ldr	r2, [r7, #100]	@ 0x64
 8008fb2:	647a      	str	r2, [r7, #68]	@ 0x44
 8008fb4:	643b      	str	r3, [r7, #64]	@ 0x40
 8008fb6:	6c39      	ldr	r1, [r7, #64]	@ 0x40
 8008fb8:	6c7a      	ldr	r2, [r7, #68]	@ 0x44
 8008fba:	e841 2300 	strex	r3, r2, [r1]
 8008fbe:	63fb      	str	r3, [r7, #60]	@ 0x3c
 8008fc0:	6bfb      	ldr	r3, [r7, #60]	@ 0x3c
 8008fc2:	2b00      	cmp	r3, #0
 8008fc4:	d1e5      	bne.n	8008f92 <UART_DMAReceiveCplt+0x56>
 8008fc6:	6efb      	ldr	r3, [r7, #108]	@ 0x6c
 8008fc8:	681b      	ldr	r3, [r3, #0]
 8008fca:	3314      	adds	r3, #20
 8008fcc:	627b      	str	r3, [r7, #36]	@ 0x24
 8008fce:	6a7b      	ldr	r3, [r7, #36]	@ 0x24
 8008fd0:	e853 3f00 	ldrex	r3, [r3]
 8008fd4:	623b      	str	r3, [r7, #32]
 8008fd6:	6a3b      	ldr	r3, [r7, #32]
 8008fd8:	f023 0340 	bic.w	r3, r3, #64	@ 0x40
 8008fdc:	663b      	str	r3, [r7, #96]	@ 0x60
 8008fde:	6efb      	ldr	r3, [r7, #108]	@ 0x6c
 8008fe0:	681b      	ldr	r3, [r3, #0]
 8008fe2:	3314      	adds	r3, #20
 8008fe4:	6e3a      	ldr	r2, [r7, #96]	@ 0x60
 8008fe6:	633a      	str	r2, [r7, #48]	@ 0x30
 8008fe8:	62fb      	str	r3, [r7, #44]	@ 0x2c
 8008fea:	6af9      	ldr	r1, [r7, #44]	@ 0x2c
 8008fec:	6b3a      	ldr	r2, [r7, #48]	@ 0x30
 8008fee:	e841 2300 	strex	r3, r2, [r1]
 8008ff2:	62bb      	str	r3, [r7, #40]	@ 0x28
 8008ff4:	6abb      	ldr	r3, [r7, #40]	@ 0x28
 8008ff6:	2b00      	cmp	r3, #0
 8008ff8:	d1e5      	bne.n	8008fc6 <UART_DMAReceiveCplt+0x8a>
 8008ffa:	6efb      	ldr	r3, [r7, #108]	@ 0x6c
 8008ffc:	2220      	movs	r2, #32
 8008ffe:	f883 2042 	strb.w	r2, [r3, #66]	@ 0x42
 8009002:	6efb      	ldr	r3, [r7, #108]	@ 0x6c
 8009004:	6b1b      	ldr	r3, [r3, #48]	@ 0x30
 8009006:	2b01      	cmp	r3, #1
 8009008:	d119      	bne.n	800903e <UART_DMAReceiveCplt+0x102>
 800900a:	6efb      	ldr	r3, [r7, #108]	@ 0x6c
 800900c:	681b      	ldr	r3, [r3, #0]
 800900e:	330c      	adds	r3, #12
 8009010:	613b      	str	r3, [r7, #16]
 8009012:	693b      	ldr	r3, [r7, #16]
 8009014:	e853 3f00 	ldrex	r3, [r3]
 8009018:	60fb      	str	r3, [r7, #12]
 800901a:	68fb      	ldr	r3, [r7, #12]
 800901c:	f023 0310 	bic.w	r3, r3, #16
 8009020:	65fb      	str	r3, [r7, #92]	@ 0x5c
 8009022:	6efb      	ldr	r3, [r7, #108]	@ 0x6c
 8009024:	681b      	ldr	r3, [r3, #0]
 8009026:	330c      	adds	r3, #12
 8009028:	6dfa      	ldr	r2, [r7, #92]	@ 0x5c
 800902a:	61fa      	str	r2, [r7, #28]
 800902c:	61bb      	str	r3, [r7, #24]
 800902e:	69b9      	ldr	r1, [r7, #24]
 8009030:	69fa      	ldr	r2, [r7, #28]
 8009032:	e841 2300 	strex	r3, r2, [r1]
 8009036:	617b      	str	r3, [r7, #20]
 8009038:	697b      	ldr	r3, [r7, #20]
 800903a:	2b00      	cmp	r3, #0
 800903c:	d1e5      	bne.n	800900a <UART_DMAReceiveCplt+0xce>
 800903e:	6efb      	ldr	r3, [r7, #108]	@ 0x6c
 8009040:	2200      	movs	r2, #0
 8009042:	635a      	str	r2, [r3, #52]	@ 0x34
 8009044:	6efb      	ldr	r3, [r7, #108]	@ 0x6c
 8009046:	6b1b      	ldr	r3, [r3, #48]	@ 0x30
 8009048:	2b01      	cmp	r3, #1
 800904a:	d106      	bne.n	800905a <UART_DMAReceiveCplt+0x11e>
 800904c:	6efb      	ldr	r3, [r7, #108]	@ 0x6c
 800904e:	8d9b      	ldrh	r3, [r3, #44]	@ 0x2c
 8009050:	4619      	mov	r1, r3
 8009052:	6ef8      	ldr	r0, [r7, #108]	@ 0x6c
 8009054:	f7f8 feca 	bl	8001dec <HAL_UARTEx_RxEventCallback>
 8009058:	e002      	b.n	8009060 <UART_DMAReceiveCplt+0x124>
 800905a:	6ef8      	ldr	r0, [r7, #108]	@ 0x6c
 800905c:	f7ff ff53 	bl	8008f06 <HAL_UART_RxCpltCallback>
 8009060:	bf00      	nop
 8009062:	3770      	adds	r7, #112	@ 0x70
 8009064:	46bd      	mov	sp, r7
 8009066:	bd80      	pop	{r7, pc}

08009068 <UART_DMARxHalfCplt>:
 8009068:	b580      	push	{r7, lr}
 800906a:	b084      	sub	sp, #16
 800906c:	af00      	add	r7, sp, #0
 800906e:	6078      	str	r0, [r7, #4]
 8009070:	687b      	ldr	r3, [r7, #4]
 8009072:	6a5b      	ldr	r3, [r3, #36]	@ 0x24
 8009074:	60fb      	str	r3, [r7, #12]
 8009076:	68fb      	ldr	r3, [r7, #12]
 8009078:	2201      	movs	r2, #1
 800907a:	635a      	str	r2, [r3, #52]	@ 0x34
 800907c:	68fb      	ldr	r3, [r7, #12]
 800907e:	6b1b      	ldr	r3, [r3, #48]	@ 0x30
 8009080:	2b01      	cmp	r3, #1
 8009082:	d108      	bne.n	8009096 <UART_DMARxHalfCplt+0x2e>
 8009084:	68fb      	ldr	r3, [r7, #12]
 8009086:	8d9b      	ldrh	r3, [r3, #44]	@ 0x2c
 8009088:	085b      	lsrs	r3, r3, #1
 800908a:	b29b      	uxth	r3, r3
 800908c:	4619      	mov	r1, r3
 800908e:	68f8      	ldr	r0, [r7, #12]
 8009090:	f7f8 feac 	bl	8001dec <HAL_UARTEx_RxEventCallback>
 8009094:	e002      	b.n	800909c <UART_DMARxHalfCplt+0x34>
 8009096:	68f8      	ldr	r0, [r7, #12]
 8009098:	f7ff ff3e 	bl	8008f18 <HAL_UART_RxHalfCpltCallback>
 800909c:	bf00      	nop
 800909e:	3710      	adds	r7, #16
 80090a0:	46bd      	mov	sp, r7
 80090a2:	bd80      	pop	{r7, pc}

080090a4 <UART_DMAError>:
 80090a4:	b580      	push	{r7, lr}
 80090a6:	b084      	sub	sp, #16
 80090a8:	af00      	add	r7, sp, #0
 80090aa:	6078      	str	r0, [r7, #4]
 80090ac:	2300      	movs	r3, #0
 80090ae:	60fb      	str	r3, [r7, #12]
 80090b0:	687b      	ldr	r3, [r7, #4]
 80090b2:	6a5b      	ldr	r3, [r3, #36]	@ 0x24
 80090b4:	60bb      	str	r3, [r7, #8]
 80090b6:	68bb      	ldr	r3, [r7, #8]
 80090b8:	681b      	ldr	r3, [r3, #0]
 80090ba:	695b      	ldr	r3, [r3, #20]
 80090bc:	f003 0380 	and.w	r3, r3, #128	@ 0x80
 80090c0:	2b00      	cmp	r3, #0
 80090c2:	bf14      	ite	ne
 80090c4:	2301      	movne	r3, #1
 80090c6:	2300      	moveq	r3, #0
 80090c8:	b2db      	uxtb	r3, r3
 80090ca:	60fb      	str	r3, [r7, #12]
 80090cc:	68bb      	ldr	r3, [r7, #8]
 80090ce:	f893 3041 	ldrb.w	r3, [r3, #65]	@ 0x41
 80090d2:	b2db      	uxtb	r3, r3
 80090d4:	2b21      	cmp	r3, #33	@ 0x21
 80090d6:	d108      	bne.n	80090ea <UART_DMAError+0x46>
 80090d8:	68fb      	ldr	r3, [r7, #12]
 80090da:	2b00      	cmp	r3, #0
 80090dc:	d005      	beq.n	80090ea <UART_DMAError+0x46>
 80090de:	68bb      	ldr	r3, [r7, #8]
 80090e0:	2200      	movs	r2, #0
 80090e2:	84da      	strh	r2, [r3, #38]	@ 0x26
 80090e4:	68b8      	ldr	r0, [r7, #8]
 80090e6:	f000 f91b 	bl	8009320 <UART_EndTxTransfer>
 80090ea:	68bb      	ldr	r3, [r7, #8]
 80090ec:	681b      	ldr	r3, [r3, #0]
 80090ee:	695b      	ldr	r3, [r3, #20]
 80090f0:	f003 0340 	and.w	r3, r3, #64	@ 0x40
 80090f4:	2b00      	cmp	r3, #0
 80090f6:	bf14      	ite	ne
 80090f8:	2301      	movne	r3, #1
 80090fa:	2300      	moveq	r3, #0
 80090fc:	b2db      	uxtb	r3, r3
 80090fe:	60fb      	str	r3, [r7, #12]
 8009100:	68bb      	ldr	r3, [r7, #8]
 8009102:	f893 3042 	ldrb.w	r3, [r3, #66]	@ 0x42
 8009106:	b2db      	uxtb	r3, r3
 8009108:	2b22      	cmp	r3, #34	@ 0x22
 800910a:	d108      	bne.n	800911e <UART_DMAError+0x7a>
 800910c:	68fb      	ldr	r3, [r7, #12]
 800910e:	2b00      	cmp	r3, #0
 8009110:	d005      	beq.n	800911e <UART_DMAError+0x7a>
 8009112:	68bb      	ldr	r3, [r7, #8]
 8009114:	2200      	movs	r2, #0
 8009116:	85da      	strh	r2, [r3, #46]	@ 0x2e
 8009118:	68b8      	ldr	r0, [r7, #8]
 800911a:	f000 f928 	bl	800936e <UART_EndRxTransfer>
 800911e:	68bb      	ldr	r3, [r7, #8]
 8009120:	6c5b      	ldr	r3, [r3, #68]	@ 0x44
 8009122:	f043 0210 	orr.w	r2, r3, #16
 8009126:	68bb      	ldr	r3, [r7, #8]
 8009128:	645a      	str	r2, [r3, #68]	@ 0x44
 800912a:	68b8      	ldr	r0, [r7, #8]
 800912c:	f7ff fefd 	bl	8008f2a <HAL_UART_ErrorCallback>
 8009130:	bf00      	nop
 8009132:	3710      	adds	r7, #16
 8009134:	46bd      	mov	sp, r7
 8009136:	bd80      	pop	{r7, pc}

08009138 <UART_WaitOnFlagUntilTimeout>:
 8009138:	b580      	push	{r7, lr}
 800913a:	b086      	sub	sp, #24
 800913c:	af00      	add	r7, sp, #0
 800913e:	60f8      	str	r0, [r7, #12]
 8009140:	60b9      	str	r1, [r7, #8]
 8009142:	603b      	str	r3, [r7, #0]
 8009144:	4613      	mov	r3, r2
 8009146:	71fb      	strb	r3, [r7, #7]
 8009148:	e03b      	b.n	80091c2 <UART_WaitOnFlagUntilTimeout+0x8a>
 800914a:	6a3b      	ldr	r3, [r7, #32]
 800914c:	f1b3 3fff 	cmp.w	r3, #4294967295
 8009150:	d037      	beq.n	80091c2 <UART_WaitOnFlagUntilTimeout+0x8a>
 8009152:	f7fb fe6b 	bl	8004e2c <HAL_GetTick>
 8009156:	4602      	mov	r2, r0
 8009158:	683b      	ldr	r3, [r7, #0]
 800915a:	1ad3      	subs	r3, r2, r3
 800915c:	6a3a      	ldr	r2, [r7, #32]
 800915e:	429a      	cmp	r2, r3
 8009160:	d302      	bcc.n	8009168 <UART_WaitOnFlagUntilTimeout+0x30>
 8009162:	6a3b      	ldr	r3, [r7, #32]
 8009164:	2b00      	cmp	r3, #0
 8009166:	d101      	bne.n	800916c <UART_WaitOnFlagUntilTimeout+0x34>
 8009168:	2303      	movs	r3, #3
 800916a:	e03a      	b.n	80091e2 <UART_WaitOnFlagUntilTimeout+0xaa>
 800916c:	68fb      	ldr	r3, [r7, #12]
 800916e:	681b      	ldr	r3, [r3, #0]
 8009170:	68db      	ldr	r3, [r3, #12]
 8009172:	f003 0304 	and.w	r3, r3, #4
 8009176:	2b00      	cmp	r3, #0
 8009178:	d023      	beq.n	80091c2 <UART_WaitOnFlagUntilTimeout+0x8a>
 800917a:	68bb      	ldr	r3, [r7, #8]
 800917c:	2b80      	cmp	r3, #128	@ 0x80
 800917e:	d020      	beq.n	80091c2 <UART_WaitOnFlagUntilTimeout+0x8a>
 8009180:	68bb      	ldr	r3, [r7, #8]
 8009182:	2b40      	cmp	r3, #64	@ 0x40
 8009184:	d01d      	beq.n	80091c2 <UART_WaitOnFlagUntilTimeout+0x8a>
 8009186:	68fb      	ldr	r3, [r7, #12]
 8009188:	681b      	ldr	r3, [r3, #0]
 800918a:	681b      	ldr	r3, [r3, #0]
 800918c:	f003 0308 	and.w	r3, r3, #8
 8009190:	2b08      	cmp	r3, #8
 8009192:	d116      	bne.n	80091c2 <UART_WaitOnFlagUntilTimeout+0x8a>
 8009194:	2300      	movs	r3, #0
 8009196:	617b      	str	r3, [r7, #20]
 8009198:	68fb      	ldr	r3, [r7, #12]
 800919a:	681b      	ldr	r3, [r3, #0]
 800919c:	681b      	ldr	r3, [r3, #0]
 800919e:	617b      	str	r3, [r7, #20]
 80091a0:	68fb      	ldr	r3, [r7, #12]
 80091a2:	681b      	ldr	r3, [r3, #0]
 80091a4:	685b      	ldr	r3, [r3, #4]
 80091a6:	617b      	str	r3, [r7, #20]
 80091a8:	697b      	ldr	r3, [r7, #20]
 80091aa:	68f8      	ldr	r0, [r7, #12]
 80091ac:	f000 f8df 	bl	800936e <UART_EndRxTransfer>
 80091b0:	68fb      	ldr	r3, [r7, #12]
 80091b2:	2208      	movs	r2, #8
 80091b4:	645a      	str	r2, [r3, #68]	@ 0x44
 80091b6:	68fb      	ldr	r3, [r7, #12]
 80091b8:	2200      	movs	r2, #0
 80091ba:	f883 2040 	strb.w	r2, [r3, #64]	@ 0x40
 80091be:	2301      	movs	r3, #1
 80091c0:	e00f      	b.n	80091e2 <UART_WaitOnFlagUntilTimeout+0xaa>
 80091c2:	68fb      	ldr	r3, [r7, #12]
 80091c4:	681b      	ldr	r3, [r3, #0]
 80091c6:	681a      	ldr	r2, [r3, #0]
 80091c8:	68bb      	ldr	r3, [r7, #8]
 80091ca:	4013      	ands	r3, r2
 80091cc:	68ba      	ldr	r2, [r7, #8]
 80091ce:	429a      	cmp	r2, r3
 80091d0:	bf0c      	ite	eq
 80091d2:	2301      	moveq	r3, #1
 80091d4:	2300      	movne	r3, #0
 80091d6:	b2db      	uxtb	r3, r3
 80091d8:	461a      	mov	r2, r3
 80091da:	79fb      	ldrb	r3, [r7, #7]
 80091dc:	429a      	cmp	r2, r3
 80091de:	d0b4      	beq.n	800914a <UART_WaitOnFlagUntilTimeout+0x12>
 80091e0:	2300      	movs	r3, #0
 80091e2:	4618      	mov	r0, r3
 80091e4:	3718      	adds	r7, #24
 80091e6:	46bd      	mov	sp, r7
 80091e8:	bd80      	pop	{r7, pc}
	...

080091ec <UART_Start_Receive_DMA>:
 80091ec:	b580      	push	{r7, lr}
 80091ee:	b098      	sub	sp, #96	@ 0x60
 80091f0:	af00      	add	r7, sp, #0
 80091f2:	60f8      	str	r0, [r7, #12]
 80091f4:	60b9      	str	r1, [r7, #8]
 80091f6:	4613      	mov	r3, r2
 80091f8:	80fb      	strh	r3, [r7, #6]
 80091fa:	68ba      	ldr	r2, [r7, #8]
 80091fc:	68fb      	ldr	r3, [r7, #12]
 80091fe:	629a      	str	r2, [r3, #40]	@ 0x28
 8009200:	68fb      	ldr	r3, [r7, #12]
 8009202:	88fa      	ldrh	r2, [r7, #6]
 8009204:	859a      	strh	r2, [r3, #44]	@ 0x2c
 8009206:	68fb      	ldr	r3, [r7, #12]
 8009208:	2200      	movs	r2, #0
 800920a:	645a      	str	r2, [r3, #68]	@ 0x44
 800920c:	68fb      	ldr	r3, [r7, #12]
 800920e:	2222      	movs	r2, #34	@ 0x22
 8009210:	f883 2042 	strb.w	r2, [r3, #66]	@ 0x42
 8009214:	68fb      	ldr	r3, [r7, #12]
 8009216:	6bdb      	ldr	r3, [r3, #60]	@ 0x3c
 8009218:	4a3e      	ldr	r2, [pc, #248]	@ (8009314 <UART_Start_Receive_DMA+0x128>)
 800921a:	629a      	str	r2, [r3, #40]	@ 0x28
 800921c:	68fb      	ldr	r3, [r7, #12]
 800921e:	6bdb      	ldr	r3, [r3, #60]	@ 0x3c
 8009220:	4a3d      	ldr	r2, [pc, #244]	@ (8009318 <UART_Start_Receive_DMA+0x12c>)
 8009222:	62da      	str	r2, [r3, #44]	@ 0x2c
 8009224:	68fb      	ldr	r3, [r7, #12]
 8009226:	6bdb      	ldr	r3, [r3, #60]	@ 0x3c
 8009228:	4a3c      	ldr	r2, [pc, #240]	@ (800931c <UART_Start_Receive_DMA+0x130>)
 800922a:	631a      	str	r2, [r3, #48]	@ 0x30
 800922c:	68fb      	ldr	r3, [r7, #12]
 800922e:	6bdb      	ldr	r3, [r3, #60]	@ 0x3c
 8009230:	2200      	movs	r2, #0
 8009232:	635a      	str	r2, [r3, #52]	@ 0x34
 8009234:	f107 0308 	add.w	r3, r7, #8
 8009238:	65fb      	str	r3, [r7, #92]	@ 0x5c
 800923a:	68fb      	ldr	r3, [r7, #12]
 800923c:	6bd8      	ldr	r0, [r3, #60]	@ 0x3c
 800923e:	68fb      	ldr	r3, [r7, #12]
 8009240:	681b      	ldr	r3, [r3, #0]
 8009242:	3304      	adds	r3, #4
 8009244:	4619      	mov	r1, r3
 8009246:	6dfb      	ldr	r3, [r7, #92]	@ 0x5c
 8009248:	681a      	ldr	r2, [r3, #0]
 800924a:	88fb      	ldrh	r3, [r7, #6]
 800924c:	f7fc fe74 	bl	8005f38 <HAL_DMA_Start_IT>
 8009250:	2300      	movs	r3, #0
 8009252:	613b      	str	r3, [r7, #16]
 8009254:	68fb      	ldr	r3, [r7, #12]
 8009256:	681b      	ldr	r3, [r3, #0]
 8009258:	681b      	ldr	r3, [r3, #0]
 800925a:	613b      	str	r3, [r7, #16]
 800925c:	68fb      	ldr	r3, [r7, #12]
 800925e:	681b      	ldr	r3, [r3, #0]
 8009260:	685b      	ldr	r3, [r3, #4]
 8009262:	613b      	str	r3, [r7, #16]
 8009264:	693b      	ldr	r3, [r7, #16]
 8009266:	68fb      	ldr	r3, [r7, #12]
 8009268:	691b      	ldr	r3, [r3, #16]
 800926a:	2b00      	cmp	r3, #0
 800926c:	d019      	beq.n	80092a2 <UART_Start_Receive_DMA+0xb6>
 800926e:	68fb      	ldr	r3, [r7, #12]
 8009270:	681b      	ldr	r3, [r3, #0]
 8009272:	330c      	adds	r3, #12
 8009274:	643b      	str	r3, [r7, #64]	@ 0x40
 8009276:	6c3b      	ldr	r3, [r7, #64]	@ 0x40
 8009278:	e853 3f00 	ldrex	r3, [r3]
 800927c:	63fb      	str	r3, [r7, #60]	@ 0x3c
 800927e:	6bfb      	ldr	r3, [r7, #60]	@ 0x3c
 8009280:	f443 7380 	orr.w	r3, r3, #256	@ 0x100
 8009284:	65bb      	str	r3, [r7, #88]	@ 0x58
 8009286:	68fb      	ldr	r3, [r7, #12]
 8009288:	681b      	ldr	r3, [r3, #0]
 800928a:	330c      	adds	r3, #12
 800928c:	6dba      	ldr	r2, [r7, #88]	@ 0x58
 800928e:	64fa      	str	r2, [r7, #76]	@ 0x4c
 8009290:	64bb      	str	r3, [r7, #72]	@ 0x48
 8009292:	6cb9      	ldr	r1, [r7, #72]	@ 0x48
 8009294:	6cfa      	ldr	r2, [r7, #76]	@ 0x4c
 8009296:	e841 2300 	strex	r3, r2, [r1]
 800929a:	647b      	str	r3, [r7, #68]	@ 0x44
 800929c:	6c7b      	ldr	r3, [r7, #68]	@ 0x44
 800929e:	2b00      	cmp	r3, #0
 80092a0:	d1e5      	bne.n	800926e <UART_Start_Receive_DMA+0x82>
 80092a2:	68fb      	ldr	r3, [r7, #12]
 80092a4:	681b      	ldr	r3, [r3, #0]
 80092a6:	3314      	adds	r3, #20
 80092a8:	62fb      	str	r3, [r7, #44]	@ 0x2c
 80092aa:	6afb      	ldr	r3, [r7, #44]	@ 0x2c
 80092ac:	e853 3f00 	ldrex	r3, [r3]
 80092b0:	62bb      	str	r3, [r7, #40]	@ 0x28
 80092b2:	6abb      	ldr	r3, [r7, #40]	@ 0x28
 80092b4:	f043 0301 	orr.w	r3, r3, #1
 80092b8:	657b      	str	r3, [r7, #84]	@ 0x54
 80092ba:	68fb      	ldr	r3, [r7, #12]
 80092bc:	681b      	ldr	r3, [r3, #0]
 80092be:	3314      	adds	r3, #20
 80092c0:	6d7a      	ldr	r2, [r7, #84]	@ 0x54
 80092c2:	63ba      	str	r2, [r7, #56]	@ 0x38
 80092c4:	637b      	str	r3, [r7, #52]	@ 0x34
 80092c6:	6b79      	ldr	r1, [r7, #52]	@ 0x34
 80092c8:	6bba      	ldr	r2, [r7, #56]	@ 0x38
 80092ca:	e841 2300 	strex	r3, r2, [r1]
 80092ce:	633b      	str	r3, [r7, #48]	@ 0x30
 80092d0:	6b3b      	ldr	r3, [r7, #48]	@ 0x30
 80092d2:	2b00      	cmp	r3, #0
 80092d4:	d1e5      	bne.n	80092a2 <UART_Start_Receive_DMA+0xb6>
 80092d6:	68fb      	ldr	r3, [r7, #12]
 80092d8:	681b      	ldr	r3, [r3, #0]
 80092da:	3314      	adds	r3, #20
 80092dc:	61bb      	str	r3, [r7, #24]
 80092de:	69bb      	ldr	r3, [r7, #24]
 80092e0:	e853 3f00 	ldrex	r3, [r3]
 80092e4:	617b      	str	r3, [r7, #20]
 80092e6:	697b      	ldr	r3, [r7, #20]
 80092e8:	f043 0340 	orr.w	r3, r3, #64	@ 0x40
 80092ec:	653b      	str	r3, [r7, #80]	@ 0x50
 80092ee:	68fb      	ldr	r3, [r7, #12]
 80092f0:	681b      	ldr	r3, [r3, #0]
 80092f2:	3314      	adds	r3, #20
 80092f4:	6d3a      	ldr	r2, [r7, #80]	@ 0x50
 80092f6:	627a      	str	r2, [r7, #36]	@ 0x24
 80092f8:	623b      	str	r3, [r7, #32]
 80092fa:	6a39      	ldr	r1, [r7, #32]
 80092fc:	6a7a      	ldr	r2, [r7, #36]	@ 0x24
 80092fe:	e841 2300 	strex	r3, r2, [r1]
 8009302:	61fb      	str	r3, [r7, #28]
 8009304:	69fb      	ldr	r3, [r7, #28]
 8009306:	2b00      	cmp	r3, #0
 8009308:	d1e5      	bne.n	80092d6 <UART_Start_Receive_DMA+0xea>
 800930a:	2300      	movs	r3, #0
 800930c:	4618      	mov	r0, r3
 800930e:	3760      	adds	r7, #96	@ 0x60
 8009310:	46bd      	mov	sp, r7
 8009312:	bd80      	pop	{r7, pc}
 8009314:	08008f3d 	.word	0x08008f3d
 8009318:	08009069 	.word	0x08009069
 800931c:	080090a5 	.word	0x080090a5

08009320 <UART_EndTxTransfer>:
 8009320:	b480      	push	{r7}
 8009322:	b089      	sub	sp, #36	@ 0x24
 8009324:	af00      	add	r7, sp, #0
 8009326:	6078      	str	r0, [r7, #4]
 8009328:	687b      	ldr	r3, [r7, #4]
 800932a:	681b      	ldr	r3, [r3, #0]
 800932c:	330c      	adds	r3, #12
 800932e:	60fb      	str	r3, [r7, #12]
 8009330:	68fb      	ldr	r3, [r7, #12]
 8009332:	e853 3f00 	ldrex	r3, [r3]
 8009336:	60bb      	str	r3, [r7, #8]
 8009338:	68bb      	ldr	r3, [r7, #8]
 800933a:	f023 03c0 	bic.w	r3, r3, #192	@ 0xc0
 800933e:	61fb      	str	r3, [r7, #28]
 8009340:	687b      	ldr	r3, [r7, #4]
 8009342:	681b      	ldr	r3, [r3, #0]
 8009344:	330c      	adds	r3, #12
 8009346:	69fa      	ldr	r2, [r7, #28]
 8009348:	61ba      	str	r2, [r7, #24]
 800934a:	617b      	str	r3, [r7, #20]
 800934c:	6979      	ldr	r1, [r7, #20]
 800934e:	69ba      	ldr	r2, [r7, #24]
 8009350:	e841 2300 	strex	r3, r2, [r1]
 8009354:	613b      	str	r3, [r7, #16]
 8009356:	693b      	ldr	r3, [r7, #16]
 8009358:	2b00      	cmp	r3, #0
 800935a:	d1e5      	bne.n	8009328 <UART_EndTxTransfer+0x8>
 800935c:	687b      	ldr	r3, [r7, #4]
 800935e:	2220      	movs	r2, #32
 8009360:	f883 2041 	strb.w	r2, [r3, #65]	@ 0x41
 8009364:	bf00      	nop
 8009366:	3724      	adds	r7, #36	@ 0x24
 8009368:	46bd      	mov	sp, r7
 800936a:	bc80      	pop	{r7}
 800936c:	4770      	bx	lr

0800936e <UART_EndRxTransfer>:
 800936e:	b480      	push	{r7}
 8009370:	b095      	sub	sp, #84	@ 0x54
 8009372:	af00      	add	r7, sp, #0
 8009374:	6078      	str	r0, [r7, #4]
 8009376:	687b      	ldr	r3, [r7, #4]
 8009378:	681b      	ldr	r3, [r3, #0]
 800937a:	330c      	adds	r3, #12
 800937c:	637b      	str	r3, [r7, #52]	@ 0x34
 800937e:	6b7b      	ldr	r3, [r7, #52]	@ 0x34
 8009380:	e853 3f00 	ldrex	r3, [r3]
 8009384:	633b      	str	r3, [r7, #48]	@ 0x30
 8009386:	6b3b      	ldr	r3, [r7, #48]	@ 0x30
 8009388:	f423 7390 	bic.w	r3, r3, #288	@ 0x120
 800938c:	64fb      	str	r3, [r7, #76]	@ 0x4c
 800938e:	687b      	ldr	r3, [r7, #4]
 8009390:	681b      	ldr	r3, [r3, #0]
 8009392:	330c      	adds	r3, #12
 8009394:	6cfa      	ldr	r2, [r7, #76]	@ 0x4c
 8009396:	643a      	str	r2, [r7, #64]	@ 0x40
 8009398:	63fb      	str	r3, [r7, #60]	@ 0x3c
 800939a:	6bf9      	ldr	r1, [r7, #60]	@ 0x3c
 800939c:	6c3a      	ldr	r2, [r7, #64]	@ 0x40
 800939e:	e841 2300 	strex	r3, r2, [r1]
 80093a2:	63bb      	str	r3, [r7, #56]	@ 0x38
 80093a4:	6bbb      	ldr	r3, [r7, #56]	@ 0x38
 80093a6:	2b00      	cmp	r3, #0
 80093a8:	d1e5      	bne.n	8009376 <UART_EndRxTransfer+0x8>
 80093aa:	687b      	ldr	r3, [r7, #4]
 80093ac:	681b      	ldr	r3, [r3, #0]
 80093ae:	3314      	adds	r3, #20
 80093b0:	623b      	str	r3, [r7, #32]
 80093b2:	6a3b      	ldr	r3, [r7, #32]
 80093b4:	e853 3f00 	ldrex	r3, [r3]
 80093b8:	61fb      	str	r3, [r7, #28]
 80093ba:	69fb      	ldr	r3, [r7, #28]
 80093bc:	f023 0301 	bic.w	r3, r3, #1
 80093c0:	64bb      	str	r3, [r7, #72]	@ 0x48
 80093c2:	687b      	ldr	r3, [r7, #4]
 80093c4:	681b      	ldr	r3, [r3, #0]
 80093c6:	3314      	adds	r3, #20
 80093c8:	6cba      	ldr	r2, [r7, #72]	@ 0x48
 80093ca:	62fa      	str	r2, [r7, #44]	@ 0x2c
 80093cc:	62bb      	str	r3, [r7, #40]	@ 0x28
 80093ce:	6ab9      	ldr	r1, [r7, #40]	@ 0x28
 80093d0:	6afa      	ldr	r2, [r7, #44]	@ 0x2c
 80093d2:	e841 2300 	strex	r3, r2, [r1]
 80093d6:	627b      	str	r3, [r7, #36]	@ 0x24
 80093d8:	6a7b      	ldr	r3, [r7, #36]	@ 0x24
 80093da:	2b00      	cmp	r3, #0
 80093dc:	d1e5      	bne.n	80093aa <UART_EndRxTransfer+0x3c>
 80093de:	687b      	ldr	r3, [r7, #4]
 80093e0:	6b1b      	ldr	r3, [r3, #48]	@ 0x30
 80093e2:	2b01      	cmp	r3, #1
 80093e4:	d119      	bne.n	800941a <UART_EndRxTransfer+0xac>
 80093e6:	687b      	ldr	r3, [r7, #4]
 80093e8:	681b      	ldr	r3, [r3, #0]
 80093ea:	330c      	adds	r3, #12
 80093ec:	60fb      	str	r3, [r7, #12]
 80093ee:	68fb      	ldr	r3, [r7, #12]
 80093f0:	e853 3f00 	ldrex	r3, [r3]
 80093f4:	60bb      	str	r3, [r7, #8]
 80093f6:	68bb      	ldr	r3, [r7, #8]
 80093f8:	f023 0310 	bic.w	r3, r3, #16
 80093fc:	647b      	str	r3, [r7, #68]	@ 0x44
 80093fe:	687b      	ldr	r3, [r7, #4]
 8009400:	681b      	ldr	r3, [r3, #0]
 8009402:	330c      	adds	r3, #12
 8009404:	6c7a      	ldr	r2, [r7, #68]	@ 0x44
 8009406:	61ba      	str	r2, [r7, #24]
 8009408:	617b      	str	r3, [r7, #20]
 800940a:	6979      	ldr	r1, [r7, #20]
 800940c:	69ba      	ldr	r2, [r7, #24]
 800940e:	e841 2300 	strex	r3, r2, [r1]
 8009412:	613b      	str	r3, [r7, #16]
 8009414:	693b      	ldr	r3, [r7, #16]
 8009416:	2b00      	cmp	r3, #0
 8009418:	d1e5      	bne.n	80093e6 <UART_EndRxTransfer+0x78>
 800941a:	687b      	ldr	r3, [r7, #4]
 800941c:	2220      	movs	r2, #32
 800941e:	f883 2042 	strb.w	r2, [r3, #66]	@ 0x42
 8009422:	687b      	ldr	r3, [r7, #4]
 8009424:	2200      	movs	r2, #0
 8009426:	631a      	str	r2, [r3, #48]	@ 0x30
 8009428:	bf00      	nop
 800942a:	3754      	adds	r7, #84	@ 0x54
 800942c:	46bd      	mov	sp, r7
 800942e:	bc80      	pop	{r7}
 8009430:	4770      	bx	lr

08009432 <UART_DMAAbortOnError>:
 8009432:	b580      	push	{r7, lr}
 8009434:	b084      	sub	sp, #16
 8009436:	af00      	add	r7, sp, #0
 8009438:	6078      	str	r0, [r7, #4]
 800943a:	687b      	ldr	r3, [r7, #4]
 800943c:	6a5b      	ldr	r3, [r3, #36]	@ 0x24
 800943e:	60fb      	str	r3, [r7, #12]
 8009440:	68fb      	ldr	r3, [r7, #12]
 8009442:	2200      	movs	r2, #0
 8009444:	85da      	strh	r2, [r3, #46]	@ 0x2e
 8009446:	68fb      	ldr	r3, [r7, #12]
 8009448:	2200      	movs	r2, #0
 800944a:	84da      	strh	r2, [r3, #38]	@ 0x26
 800944c:	68f8      	ldr	r0, [r7, #12]
 800944e:	f7ff fd6c 	bl	8008f2a <HAL_UART_ErrorCallback>
 8009452:	bf00      	nop
 8009454:	3710      	adds	r7, #16
 8009456:	46bd      	mov	sp, r7
 8009458:	bd80      	pop	{r7, pc}

0800945a <UART_Transmit_IT>:
 800945a:	b480      	push	{r7}
 800945c:	b085      	sub	sp, #20
 800945e:	af00      	add	r7, sp, #0
 8009460:	6078      	str	r0, [r7, #4]
 8009462:	687b      	ldr	r3, [r7, #4]
 8009464:	f893 3041 	ldrb.w	r3, [r3, #65]	@ 0x41
 8009468:	b2db      	uxtb	r3, r3
 800946a:	2b21      	cmp	r3, #33	@ 0x21
 800946c:	d13e      	bne.n	80094ec <UART_Transmit_IT+0x92>
 800946e:	687b      	ldr	r3, [r7, #4]
 8009470:	689b      	ldr	r3, [r3, #8]
 8009472:	f5b3 5f80 	cmp.w	r3, #4096	@ 0x1000
 8009476:	d114      	bne.n	80094a2 <UART_Transmit_IT+0x48>
 8009478:	687b      	ldr	r3, [r7, #4]
 800947a:	691b      	ldr	r3, [r3, #16]
 800947c:	2b00      	cmp	r3, #0
 800947e:	d110      	bne.n	80094a2 <UART_Transmit_IT+0x48>
 8009480:	687b      	ldr	r3, [r7, #4]
 8009482:	6a1b      	ldr	r3, [r3, #32]
 8009484:	60fb      	str	r3, [r7, #12]
 8009486:	68fb      	ldr	r3, [r7, #12]
 8009488:	881b      	ldrh	r3, [r3, #0]
 800948a:	461a      	mov	r2, r3
 800948c:	687b      	ldr	r3, [r7, #4]
 800948e:	681b      	ldr	r3, [r3, #0]
 8009490:	f3c2 0208 	ubfx	r2, r2, #0, #9
 8009494:	605a      	str	r2, [r3, #4]
 8009496:	687b      	ldr	r3, [r7, #4]
 8009498:	6a1b      	ldr	r3, [r3, #32]
 800949a:	1c9a      	adds	r2, r3, #2
 800949c:	687b      	ldr	r3, [r7, #4]
 800949e:	621a      	str	r2, [r3, #32]
 80094a0:	e008      	b.n	80094b4 <UART_Transmit_IT+0x5a>
 80094a2:	687b      	ldr	r3, [r7, #4]
 80094a4:	6a1b      	ldr	r3, [r3, #32]
 80094a6:	1c59      	adds	r1, r3, #1
 80094a8:	687a      	ldr	r2, [r7, #4]
 80094aa:	6211      	str	r1, [r2, #32]
 80094ac:	781a      	ldrb	r2, [r3, #0]
 80094ae:	687b      	ldr	r3, [r7, #4]
 80094b0:	681b      	ldr	r3, [r3, #0]
 80094b2:	605a      	str	r2, [r3, #4]
 80094b4:	687b      	ldr	r3, [r7, #4]
 80094b6:	8cdb      	ldrh	r3, [r3, #38]	@ 0x26
 80094b8:	b29b      	uxth	r3, r3
 80094ba:	3b01      	subs	r3, #1
 80094bc:	b29b      	uxth	r3, r3
 80094be:	687a      	ldr	r2, [r7, #4]
 80094c0:	4619      	mov	r1, r3
 80094c2:	84d1      	strh	r1, [r2, #38]	@ 0x26
 80094c4:	2b00      	cmp	r3, #0
 80094c6:	d10f      	bne.n	80094e8 <UART_Transmit_IT+0x8e>
 80094c8:	687b      	ldr	r3, [r7, #4]
 80094ca:	681b      	ldr	r3, [r3, #0]
 80094cc:	68da      	ldr	r2, [r3, #12]
 80094ce:	687b      	ldr	r3, [r7, #4]
 80094d0:	681b      	ldr	r3, [r3, #0]
 80094d2:	f022 0280 	bic.w	r2, r2, #128	@ 0x80
 80094d6:	60da      	str	r2, [r3, #12]
 80094d8:	687b      	ldr	r3, [r7, #4]
 80094da:	681b      	ldr	r3, [r3, #0]
 80094dc:	68da      	ldr	r2, [r3, #12]
 80094de:	687b      	ldr	r3, [r7, #4]
 80094e0:	681b      	ldr	r3, [r3, #0]
 80094e2:	f042 0240 	orr.w	r2, r2, #64	@ 0x40
 80094e6:	60da      	str	r2, [r3, #12]
 80094e8:	2300      	movs	r3, #0
 80094ea:	e000      	b.n	80094ee <UART_Transmit_IT+0x94>
 80094ec:	2302      	movs	r3, #2
 80094ee:	4618      	mov	r0, r3
 80094f0:	3714      	adds	r7, #20
 80094f2:	46bd      	mov	sp, r7
 80094f4:	bc80      	pop	{r7}
 80094f6:	4770      	bx	lr

080094f8 <UART_EndTransmit_IT>:
 80094f8:	b580      	push	{r7, lr}
 80094fa:	b082      	sub	sp, #8
 80094fc:	af00      	add	r7, sp, #0
 80094fe:	6078      	str	r0, [r7, #4]
 8009500:	687b      	ldr	r3, [r7, #4]
 8009502:	681b      	ldr	r3, [r3, #0]
 8009504:	68da      	ldr	r2, [r3, #12]
 8009506:	687b      	ldr	r3, [r7, #4]
 8009508:	681b      	ldr	r3, [r3, #0]
 800950a:	f022 0240 	bic.w	r2, r2, #64	@ 0x40
 800950e:	60da      	str	r2, [r3, #12]
 8009510:	687b      	ldr	r3, [r7, #4]
 8009512:	2220      	movs	r2, #32
 8009514:	f883 2041 	strb.w	r2, [r3, #65]	@ 0x41
 8009518:	6878      	ldr	r0, [r7, #4]
 800951a:	f7ff fceb 	bl	8008ef4 <HAL_UART_TxCpltCallback>
 800951e:	2300      	movs	r3, #0
 8009520:	4618      	mov	r0, r3
 8009522:	3708      	adds	r7, #8
 8009524:	46bd      	mov	sp, r7
 8009526:	bd80      	pop	{r7, pc}

08009528 <UART_Receive_IT>:
 8009528:	b580      	push	{r7, lr}
 800952a:	b08c      	sub	sp, #48	@ 0x30
 800952c:	af00      	add	r7, sp, #0
 800952e:	6078      	str	r0, [r7, #4]
 8009530:	687b      	ldr	r3, [r7, #4]
 8009532:	f893 3042 	ldrb.w	r3, [r3, #66]	@ 0x42
 8009536:	b2db      	uxtb	r3, r3
 8009538:	2b22      	cmp	r3, #34	@ 0x22
 800953a:	f040 80ae 	bne.w	800969a <UART_Receive_IT+0x172>
 800953e:	687b      	ldr	r3, [r7, #4]
 8009540:	689b      	ldr	r3, [r3, #8]
 8009542:	f5b3 5f80 	cmp.w	r3, #4096	@ 0x1000
 8009546:	d117      	bne.n	8009578 <UART_Receive_IT+0x50>
 8009548:	687b      	ldr	r3, [r7, #4]
 800954a:	691b      	ldr	r3, [r3, #16]
 800954c:	2b00      	cmp	r3, #0
 800954e:	d113      	bne.n	8009578 <UART_Receive_IT+0x50>
 8009550:	2300      	movs	r3, #0
 8009552:	62fb      	str	r3, [r7, #44]	@ 0x2c
 8009554:	687b      	ldr	r3, [r7, #4]
 8009556:	6a9b      	ldr	r3, [r3, #40]	@ 0x28
 8009558:	62bb      	str	r3, [r7, #40]	@ 0x28
 800955a:	687b      	ldr	r3, [r7, #4]
 800955c:	681b      	ldr	r3, [r3, #0]
 800955e:	685b      	ldr	r3, [r3, #4]
 8009560:	b29b      	uxth	r3, r3
 8009562:	f3c3 0308 	ubfx	r3, r3, #0, #9
 8009566:	b29a      	uxth	r2, r3
 8009568:	6abb      	ldr	r3, [r7, #40]	@ 0x28
 800956a:	801a      	strh	r2, [r3, #0]
 800956c:	687b      	ldr	r3, [r7, #4]
 800956e:	6a9b      	ldr	r3, [r3, #40]	@ 0x28
 8009570:	1c9a      	adds	r2, r3, #2
 8009572:	687b      	ldr	r3, [r7, #4]
 8009574:	629a      	str	r2, [r3, #40]	@ 0x28
 8009576:	e026      	b.n	80095c6 <UART_Receive_IT+0x9e>
 8009578:	687b      	ldr	r3, [r7, #4]
 800957a:	6a9b      	ldr	r3, [r3, #40]	@ 0x28
 800957c:	62fb      	str	r3, [r7, #44]	@ 0x2c
 800957e:	2300      	movs	r3, #0
 8009580:	62bb      	str	r3, [r7, #40]	@ 0x28
 8009582:	687b      	ldr	r3, [r7, #4]
 8009584:	689b      	ldr	r3, [r3, #8]
 8009586:	f5b3 5f80 	cmp.w	r3, #4096	@ 0x1000
 800958a:	d007      	beq.n	800959c <UART_Receive_IT+0x74>
 800958c:	687b      	ldr	r3, [r7, #4]
 800958e:	689b      	ldr	r3, [r3, #8]
 8009590:	2b00      	cmp	r3, #0
 8009592:	d10a      	bne.n	80095aa <UART_Receive_IT+0x82>
 8009594:	687b      	ldr	r3, [r7, #4]
 8009596:	691b      	ldr	r3, [r3, #16]
 8009598:	2b00      	cmp	r3, #0
 800959a:	d106      	bne.n	80095aa <UART_Receive_IT+0x82>
 800959c:	687b      	ldr	r3, [r7, #4]
 800959e:	681b      	ldr	r3, [r3, #0]
 80095a0:	685b      	ldr	r3, [r3, #4]
 80095a2:	b2da      	uxtb	r2, r3
 80095a4:	6afb      	ldr	r3, [r7, #44]	@ 0x2c
 80095a6:	701a      	strb	r2, [r3, #0]
 80095a8:	e008      	b.n	80095bc <UART_Receive_IT+0x94>
 80095aa:	687b      	ldr	r3, [r7, #4]
 80095ac:	681b      	ldr	r3, [r3, #0]
 80095ae:	685b      	ldr	r3, [r3, #4]
 80095b0:	b2db      	uxtb	r3, r3
 80095b2:	f003 037f 	and.w	r3, r3, #127	@ 0x7f
 80095b6:	b2da      	uxtb	r2, r3
 80095b8:	6afb      	ldr	r3, [r7, #44]	@ 0x2c
 80095ba:	701a      	strb	r2, [r3, #0]
 80095bc:	687b      	ldr	r3, [r7, #4]
 80095be:	6a9b      	ldr	r3, [r3, #40]	@ 0x28
 80095c0:	1c5a      	adds	r2, r3, #1
 80095c2:	687b      	ldr	r3, [r7, #4]
 80095c4:	629a      	str	r2, [r3, #40]	@ 0x28
 80095c6:	687b      	ldr	r3, [r7, #4]
 80095c8:	8ddb      	ldrh	r3, [r3, #46]	@ 0x2e
 80095ca:	b29b      	uxth	r3, r3
 80095cc:	3b01      	subs	r3, #1
 80095ce:	b29b      	uxth	r3, r3
 80095d0:	687a      	ldr	r2, [r7, #4]
 80095d2:	4619      	mov	r1, r3
 80095d4:	85d1      	strh	r1, [r2, #46]	@ 0x2e
 80095d6:	2b00      	cmp	r3, #0
 80095d8:	d15d      	bne.n	8009696 <UART_Receive_IT+0x16e>
 80095da:	687b      	ldr	r3, [r7, #4]
 80095dc:	681b      	ldr	r3, [r3, #0]
 80095de:	68da      	ldr	r2, [r3, #12]
 80095e0:	687b      	ldr	r3, [r7, #4]
 80095e2:	681b      	ldr	r3, [r3, #0]
 80095e4:	f022 0220 	bic.w	r2, r2, #32
 80095e8:	60da      	str	r2, [r3, #12]
 80095ea:	687b      	ldr	r3, [r7, #4]
 80095ec:	681b      	ldr	r3, [r3, #0]
 80095ee:	68da      	ldr	r2, [r3, #12]
 80095f0:	687b      	ldr	r3, [r7, #4]
 80095f2:	681b      	ldr	r3, [r3, #0]
 80095f4:	f422 7280 	bic.w	r2, r2, #256	@ 0x100
 80095f8:	60da      	str	r2, [r3, #12]
 80095fa:	687b      	ldr	r3, [r7, #4]
 80095fc:	681b      	ldr	r3, [r3, #0]
 80095fe:	695a      	ldr	r2, [r3, #20]
 8009600:	687b      	ldr	r3, [r7, #4]
 8009602:	681b      	ldr	r3, [r3, #0]
 8009604:	f022 0201 	bic.w	r2, r2, #1
 8009608:	615a      	str	r2, [r3, #20]
 800960a:	687b      	ldr	r3, [r7, #4]
 800960c:	2220      	movs	r2, #32
 800960e:	f883 2042 	strb.w	r2, [r3, #66]	@ 0x42
 8009612:	687b      	ldr	r3, [r7, #4]
 8009614:	2200      	movs	r2, #0
 8009616:	635a      	str	r2, [r3, #52]	@ 0x34
 8009618:	687b      	ldr	r3, [r7, #4]
 800961a:	6b1b      	ldr	r3, [r3, #48]	@ 0x30
 800961c:	2b01      	cmp	r3, #1
 800961e:	d135      	bne.n	800968c <UART_Receive_IT+0x164>
 8009620:	687b      	ldr	r3, [r7, #4]
 8009622:	2200      	movs	r2, #0
 8009624:	631a      	str	r2, [r3, #48]	@ 0x30
 8009626:	687b      	ldr	r3, [r7, #4]
 8009628:	681b      	ldr	r3, [r3, #0]
 800962a:	330c      	adds	r3, #12
 800962c:	617b      	str	r3, [r7, #20]
 800962e:	697b      	ldr	r3, [r7, #20]
 8009630:	e853 3f00 	ldrex	r3, [r3]
 8009634:	613b      	str	r3, [r7, #16]
 8009636:	693b      	ldr	r3, [r7, #16]
 8009638:	f023 0310 	bic.w	r3, r3, #16
 800963c:	627b      	str	r3, [r7, #36]	@ 0x24
 800963e:	687b      	ldr	r3, [r7, #4]
 8009640:	681b      	ldr	r3, [r3, #0]
 8009642:	330c      	adds	r3, #12
 8009644:	6a7a      	ldr	r2, [r7, #36]	@ 0x24
 8009646:	623a      	str	r2, [r7, #32]
 8009648:	61fb      	str	r3, [r7, #28]
 800964a:	69f9      	ldr	r1, [r7, #28]
 800964c:	6a3a      	ldr	r2, [r7, #32]
 800964e:	e841 2300 	strex	r3, r2, [r1]
 8009652:	61bb      	str	r3, [r7, #24]
 8009654:	69bb      	ldr	r3, [r7, #24]
 8009656:	2b00      	cmp	r3, #0
 8009658:	d1e5      	bne.n	8009626 <UART_Receive_IT+0xfe>
 800965a:	687b      	ldr	r3, [r7, #4]
 800965c:	681b      	ldr	r3, [r3, #0]
 800965e:	681b      	ldr	r3, [r3, #0]
 8009660:	f003 0310 	and.w	r3, r3, #16
 8009664:	2b10      	cmp	r3, #16
 8009666:	d10a      	bne.n	800967e <UART_Receive_IT+0x156>
 8009668:	2300      	movs	r3, #0
 800966a:	60fb      	str	r3, [r7, #12]
 800966c:	687b      	ldr	r3, [r7, #4]
 800966e:	681b      	ldr	r3, [r3, #0]
 8009670:	681b      	ldr	r3, [r3, #0]
 8009672:	60fb      	str	r3, [r7, #12]
 8009674:	687b      	ldr	r3, [r7, #4]
 8009676:	681b      	ldr	r3, [r3, #0]
 8009678:	685b      	ldr	r3, [r3, #4]
 800967a:	60fb      	str	r3, [r7, #12]
 800967c:	68fb      	ldr	r3, [r7, #12]
 800967e:	687b      	ldr	r3, [r7, #4]
 8009680:	8d9b      	ldrh	r3, [r3, #44]	@ 0x2c
 8009682:	4619      	mov	r1, r3
 8009684:	6878      	ldr	r0, [r7, #4]
 8009686:	f7f8 fbb1 	bl	8001dec <HAL_UARTEx_RxEventCallback>
 800968a:	e002      	b.n	8009692 <UART_Receive_IT+0x16a>
 800968c:	6878      	ldr	r0, [r7, #4]
 800968e:	f7ff fc3a 	bl	8008f06 <HAL_UART_RxCpltCallback>
 8009692:	2300      	movs	r3, #0
 8009694:	e002      	b.n	800969c <UART_Receive_IT+0x174>
 8009696:	2300      	movs	r3, #0
 8009698:	e000      	b.n	800969c <UART_Receive_IT+0x174>
 800969a:	2302      	movs	r3, #2
 800969c:	4618      	mov	r0, r3
 800969e:	3730      	adds	r7, #48	@ 0x30
 80096a0:	46bd      	mov	sp, r7
 80096a2:	bd80      	pop	{r7, pc}

080096a4 <UART_SetConfig>:
 80096a4:	b580      	push	{r7, lr}
 80096a6:	b084      	sub	sp, #16
 80096a8:	af00      	add	r7, sp, #0
 80096aa:	6078      	str	r0, [r7, #4]
 80096ac:	687b      	ldr	r3, [r7, #4]
 80096ae:	681b      	ldr	r3, [r3, #0]
 80096b0:	691b      	ldr	r3, [r3, #16]
 80096b2:	f423 5140 	bic.w	r1, r3, #12288	@ 0x3000
 80096b6:	687b      	ldr	r3, [r7, #4]
 80096b8:	68da      	ldr	r2, [r3, #12]
 80096ba:	687b      	ldr	r3, [r7, #4]
 80096bc:	681b      	ldr	r3, [r3, #0]
 80096be:	430a      	orrs	r2, r1
 80096c0:	611a      	str	r2, [r3, #16]
 80096c2:	687b      	ldr	r3, [r7, #4]
 80096c4:	689a      	ldr	r2, [r3, #8]
 80096c6:	687b      	ldr	r3, [r7, #4]
 80096c8:	691b      	ldr	r3, [r3, #16]
 80096ca:	431a      	orrs	r2, r3
 80096cc:	687b      	ldr	r3, [r7, #4]
 80096ce:	695b      	ldr	r3, [r3, #20]
 80096d0:	4313      	orrs	r3, r2
 80096d2:	60bb      	str	r3, [r7, #8]
 80096d4:	687b      	ldr	r3, [r7, #4]
 80096d6:	681b      	ldr	r3, [r3, #0]
 80096d8:	68db      	ldr	r3, [r3, #12]
 80096da:	f423 53b0 	bic.w	r3, r3, #5632	@ 0x1600
 80096de:	f023 030c 	bic.w	r3, r3, #12
 80096e2:	687a      	ldr	r2, [r7, #4]
 80096e4:	6812      	ldr	r2, [r2, #0]
 80096e6:	68b9      	ldr	r1, [r7, #8]
 80096e8:	430b      	orrs	r3, r1
 80096ea:	60d3      	str	r3, [r2, #12]
 80096ec:	687b      	ldr	r3, [r7, #4]
 80096ee:	681b      	ldr	r3, [r3, #0]
 80096f0:	695b      	ldr	r3, [r3, #20]
 80096f2:	f423 7140 	bic.w	r1, r3, #768	@ 0x300
 80096f6:	687b      	ldr	r3, [r7, #4]
 80096f8:	699a      	ldr	r2, [r3, #24]
 80096fa:	687b      	ldr	r3, [r7, #4]
 80096fc:	681b      	ldr	r3, [r3, #0]
 80096fe:	430a      	orrs	r2, r1
 8009700:	615a      	str	r2, [r3, #20]
 8009702:	687b      	ldr	r3, [r7, #4]
 8009704:	681b      	ldr	r3, [r3, #0]
 8009706:	4a2c      	ldr	r2, [pc, #176]	@ (80097b8 <UART_SetConfig+0x114>)
 8009708:	4293      	cmp	r3, r2
 800970a:	d103      	bne.n	8009714 <UART_SetConfig+0x70>
 800970c:	f7fd fe74 	bl	80073f8 <HAL_RCC_GetPCLK2Freq>
 8009710:	60f8      	str	r0, [r7, #12]
 8009712:	e002      	b.n	800971a <UART_SetConfig+0x76>
 8009714:	f7fd fe5c 	bl	80073d0 <HAL_RCC_GetPCLK1Freq>
 8009718:	60f8      	str	r0, [r7, #12]
 800971a:	68fa      	ldr	r2, [r7, #12]
 800971c:	4613      	mov	r3, r2
 800971e:	009b      	lsls	r3, r3, #2
 8009720:	4413      	add	r3, r2
 8009722:	009a      	lsls	r2, r3, #2
 8009724:	441a      	add	r2, r3
 8009726:	687b      	ldr	r3, [r7, #4]
 8009728:	685b      	ldr	r3, [r3, #4]
 800972a:	009b      	lsls	r3, r3, #2
 800972c:	fbb2 f3f3 	udiv	r3, r2, r3
 8009730:	4a22      	ldr	r2, [pc, #136]	@ (80097bc <UART_SetConfig+0x118>)
 8009732:	fba2 2303 	umull	r2, r3, r2, r3
 8009736:	095b      	lsrs	r3, r3, #5
 8009738:	0119      	lsls	r1, r3, #4
 800973a:	68fa      	ldr	r2, [r7, #12]
 800973c:	4613      	mov	r3, r2
 800973e:	009b      	lsls	r3, r3, #2
 8009740:	4413      	add	r3, r2
 8009742:	009a      	lsls	r2, r3, #2
 8009744:	441a      	add	r2, r3
 8009746:	687b      	ldr	r3, [r7, #4]
 8009748:	685b      	ldr	r3, [r3, #4]
 800974a:	009b      	lsls	r3, r3, #2
 800974c:	fbb2 f2f3 	udiv	r2, r2, r3
 8009750:	4b1a      	ldr	r3, [pc, #104]	@ (80097bc <UART_SetConfig+0x118>)
 8009752:	fba3 0302 	umull	r0, r3, r3, r2
 8009756:	095b      	lsrs	r3, r3, #5
 8009758:	2064      	movs	r0, #100	@ 0x64
 800975a:	fb00 f303 	mul.w	r3, r0, r3
 800975e:	1ad3      	subs	r3, r2, r3
 8009760:	011b      	lsls	r3, r3, #4
 8009762:	3332      	adds	r3, #50	@ 0x32
 8009764:	4a15      	ldr	r2, [pc, #84]	@ (80097bc <UART_SetConfig+0x118>)
 8009766:	fba2 2303 	umull	r2, r3, r2, r3
 800976a:	095b      	lsrs	r3, r3, #5
 800976c:	f003 03f0 	and.w	r3, r3, #240	@ 0xf0
 8009770:	4419      	add	r1, r3
 8009772:	68fa      	ldr	r2, [r7, #12]
 8009774:	4613      	mov	r3, r2
 8009776:	009b      	lsls	r3, r3, #2
 8009778:	4413      	add	r3, r2
 800977a:	009a      	lsls	r2, r3, #2
 800977c:	441a      	add	r2, r3
 800977e:	687b      	ldr	r3, [r7, #4]
 8009780:	685b      	ldr	r3, [r3, #4]
 8009782:	009b      	lsls	r3, r3, #2
 8009784:	fbb2 f2f3 	udiv	r2, r2, r3
 8009788:	4b0c      	ldr	r3, [pc, #48]	@ (80097bc <UART_SetConfig+0x118>)
 800978a:	fba3 0302 	umull	r0, r3, r3, r2
 800978e:	095b      	lsrs	r3, r3, #5
 8009790:	2064      	movs	r0, #100	@ 0x64
 8009792:	fb00 f303 	mul.w	r3, r0, r3
 8009796:	1ad3      	subs	r3, r2, r3
 8009798:	011b      	lsls	r3, r3, #4
 800979a:	3332      	adds	r3, #50	@ 0x32
 800979c:	4a07      	ldr	r2, [pc, #28]	@ (80097bc <UART_SetConfig+0x118>)
 800979e:	fba2 2303 	umull	r2, r3, r2, r3
 80097a2:	095b      	lsrs	r3, r3, #5
 80097a4:	f003 020f 	and.w	r2, r3, #15
 80097a8:	687b      	ldr	r3, [r7, #4]
 80097aa:	681b      	ldr	r3, [r3, #0]
 80097ac:	440a      	add	r2, r1
 80097ae:	609a      	str	r2, [r3, #8]
 80097b0:	bf00      	nop
 80097b2:	3710      	adds	r7, #16
 80097b4:	46bd      	mov	sp, r7
 80097b6:	bd80      	pop	{r7, pc}
 80097b8:	40013800 	.word	0x40013800
 80097bc:	51eb851f 	.word	0x51eb851f

080097c0 <memset>:
 80097c0:	4603      	mov	r3, r0
 80097c2:	4402      	add	r2, r0
 80097c4:	4293      	cmp	r3, r2
 80097c6:	d100      	bne.n	80097ca <memset+0xa>
 80097c8:	4770      	bx	lr
 80097ca:	f803 1b01 	strb.w	r1, [r3], #1
 80097ce:	e7f9      	b.n	80097c4 <memset+0x4>

080097d0 <strcat>:
 80097d0:	4602      	mov	r2, r0
 80097d2:	b510      	push	{r4, lr}
 80097d4:	7814      	ldrb	r4, [r2, #0]
 80097d6:	4613      	mov	r3, r2
 80097d8:	3201      	adds	r2, #1
 80097da:	2c00      	cmp	r4, #0
 80097dc:	d1fa      	bne.n	80097d4 <strcat+0x4>
 80097de:	3b01      	subs	r3, #1
 80097e0:	f811 2b01 	ldrb.w	r2, [r1], #1
 80097e4:	f803 2f01 	strb.w	r2, [r3, #1]!
 80097e8:	2a00      	cmp	r2, #0
 80097ea:	d1f9      	bne.n	80097e0 <strcat+0x10>
 80097ec:	bd10      	pop	{r4, pc}
	...

080097f0 <__libc_init_array>:
 80097f0:	b570      	push	{r4, r5, r6, lr}
 80097f2:	2600      	movs	r6, #0
 80097f4:	4d0c      	ldr	r5, [pc, #48]	@ (8009828 <__libc_init_array+0x38>)
 80097f6:	4c0d      	ldr	r4, [pc, #52]	@ (800982c <__libc_init_array+0x3c>)
 80097f8:	1b64      	subs	r4, r4, r5
 80097fa:	10a4      	asrs	r4, r4, #2
 80097fc:	42a6      	cmp	r6, r4
 80097fe:	d109      	bne.n	8009814 <__libc_init_array+0x24>
 8009800:	f000 f822 	bl	8009848 <_init>
 8009804:	2600      	movs	r6, #0
 8009806:	4d0a      	ldr	r5, [pc, #40]	@ (8009830 <__libc_init_array+0x40>)
 8009808:	4c0a      	ldr	r4, [pc, #40]	@ (8009834 <__libc_init_array+0x44>)
 800980a:	1b64      	subs	r4, r4, r5
 800980c:	10a4      	asrs	r4, r4, #2
 800980e:	42a6      	cmp	r6, r4
 8009810:	d105      	bne.n	800981e <__libc_init_array+0x2e>
 8009812:	bd70      	pop	{r4, r5, r6, pc}
 8009814:	f855 3b04 	ldr.w	r3, [r5], #4
 8009818:	4798      	blx	r3
 800981a:	3601      	adds	r6, #1
 800981c:	e7ee      	b.n	80097fc <__libc_init_array+0xc>
 800981e:	f855 3b04 	ldr.w	r3, [r5], #4
 8009822:	4798      	blx	r3
 8009824:	3601      	adds	r6, #1
 8009826:	e7f2      	b.n	800980e <__libc_init_array+0x1e>
 8009828:	08009914 	.word	0x08009914
 800982c:	08009914 	.word	0x08009914
 8009830:	08009914 	.word	0x08009914
 8009834:	08009918 	.word	0x08009918

08009838 <strcpy>:
 8009838:	4603      	mov	r3, r0
 800983a:	f811 2b01 	ldrb.w	r2, [r1], #1
 800983e:	f803 2b01 	strb.w	r2, [r3], #1
 8009842:	2a00      	cmp	r2, #0
 8009844:	d1f9      	bne.n	800983a <strcpy+0x2>
 8009846:	4770      	bx	lr

08009848 <_init>:
 8009848:	b5f8      	push	{r3, r4, r5, r6, r7, lr}
 800984a:	bf00      	nop
 800984c:	bcf8      	pop	{r3, r4, r5, r6, r7}
 800984e:	bc08      	pop	{r3}
 8009850:	469e      	mov	lr, r3
 8009852:	4770      	bx	lr

08009854 <_fini>:
 8009854:	b5f8      	push	{r3, r4, r5, r6, r7, lr}
 8009856:	bf00      	nop
 8009858:	bcf8      	pop	{r3, r4, r5, r6, r7}
 800985a:	bc08      	pop	{r3}
 800985c:	469e      	mov	lr, r3
 800985e:	4770      	bx	lr
